
Joyce_Rover.elf:     file format elf32-littlearm

Sections:
Idx Name          Size      VMA       LMA       File off  Algn
  0 .isr_vector   0000010c  08000000  08000000  00010000  2**0
                  CONTENTS, ALLOC, LOAD, READONLY, DATA
  1 .text         00005930  0800010c  0800010c  0001010c  2**2
                  CONTENTS, ALLOC, LOAD, READONLY, CODE
  2 .rodata       0000002c  08005a3c  08005a3c  00015a3c  2**2
                  CONTENTS, ALLOC, LOAD, READONLY, DATA
  3 .ARM.extab    00000000  08005a68  08005a68  0002000c  2**0
                  CONTENTS
  4 .ARM          00000000  08005a68  08005a68  0002000c  2**0
                  CONTENTS
  5 .preinit_array 00000000  08005a68  08005a68  0002000c  2**0
                  CONTENTS, ALLOC, LOAD, DATA
  6 .init_array   00000004  08005a68  08005a68  00015a68  2**2
                  CONTENTS, ALLOC, LOAD, DATA
  7 .fini_array   00000004  08005a6c  08005a6c  00015a6c  2**2
                  CONTENTS, ALLOC, LOAD, DATA
  8 .data         0000000c  20000000  08005a70  00020000  2**2
                  CONTENTS, ALLOC, LOAD, DATA
  9 .bss          00000228  20000010  08005a7c  00020010  2**3
                  ALLOC
 10 ._user_heap_stack 00000600  20000238  08005a7c  00020238  2**0
                  ALLOC
 11 .ARM.attributes 00000029  00000000  00000000  0002000c  2**0
                  CONTENTS, READONLY
 12 .debug_info   0000c4cf  00000000  00000000  00020035  2**0
                  CONTENTS, READONLY, DEBUGGING, OCTETS
 13 .debug_abbrev 00001aa8  00000000  00000000  0002c504  2**0
                  CONTENTS, READONLY, DEBUGGING, OCTETS
 14 .debug_aranges 00000cd0  00000000  00000000  0002dfb0  2**3
                  CONTENTS, READONLY, DEBUGGING, OCTETS
 15 .debug_ranges 00000c20  00000000  00000000  0002ec80  2**3
                  CONTENTS, READONLY, DEBUGGING, OCTETS
 16 .debug_macro  0001768e  00000000  00000000  0002f8a0  2**0
                  CONTENTS, READONLY, DEBUGGING, OCTETS
 17 .debug_line   0000dfc3  00000000  00000000  00046f2e  2**0
                  CONTENTS, READONLY, DEBUGGING, OCTETS
 18 .debug_str    0008a3b3  00000000  00000000  00054ef1  2**0
                  CONTENTS, READONLY, DEBUGGING, OCTETS
 19 .comment      00000050  00000000  00000000  000df2a4  2**0
                  CONTENTS, READONLY
 20 .debug_frame  00003910  00000000  00000000  000df2f4  2**2
                  CONTENTS, READONLY, DEBUGGING, OCTETS

Disassembly of section .text:

0800010c <__do_global_dtors_aux>:
 800010c:	b510      	push	{r4, lr}
 800010e:	4c05      	ldr	r4, [pc, #20]	; (8000124 <__do_global_dtors_aux+0x18>)
 8000110:	7823      	ldrb	r3, [r4, #0]
 8000112:	b933      	cbnz	r3, 8000122 <__do_global_dtors_aux+0x16>
 8000114:	4b04      	ldr	r3, [pc, #16]	; (8000128 <__do_global_dtors_aux+0x1c>)
 8000116:	b113      	cbz	r3, 800011e <__do_global_dtors_aux+0x12>
 8000118:	4804      	ldr	r0, [pc, #16]	; (800012c <__do_global_dtors_aux+0x20>)
 800011a:	f3af 8000 	nop.w
 800011e:	2301      	movs	r3, #1
 8000120:	7023      	strb	r3, [r4, #0]
 8000122:	bd10      	pop	{r4, pc}
 8000124:	20000010 	.word	0x20000010
 8000128:	00000000 	.word	0x00000000
 800012c:	08005a24 	.word	0x08005a24

08000130 <frame_dummy>:
 8000130:	b508      	push	{r3, lr}
 8000132:	4b03      	ldr	r3, [pc, #12]	; (8000140 <frame_dummy+0x10>)
 8000134:	b11b      	cbz	r3, 800013e <frame_dummy+0xe>
 8000136:	4903      	ldr	r1, [pc, #12]	; (8000144 <frame_dummy+0x14>)
 8000138:	4803      	ldr	r0, [pc, #12]	; (8000148 <frame_dummy+0x18>)
 800013a:	f3af 8000 	nop.w
 800013e:	bd08      	pop	{r3, pc}
 8000140:	00000000 	.word	0x00000000
 8000144:	20000014 	.word	0x20000014
 8000148:	08005a24 	.word	0x08005a24

0800014c <__aeabi_drsub>:
 800014c:	f081 4100 	eor.w	r1, r1, #2147483648	; 0x80000000
 8000150:	e002      	b.n	8000158 <__adddf3>
 8000152:	bf00      	nop

08000154 <__aeabi_dsub>:
 8000154:	f083 4300 	eor.w	r3, r3, #2147483648	; 0x80000000

08000158 <__adddf3>:
 8000158:	b530      	push	{r4, r5, lr}
 800015a:	ea4f 0441 	mov.w	r4, r1, lsl #1
 800015e:	ea4f 0543 	mov.w	r5, r3, lsl #1
 8000162:	ea94 0f05 	teq	r4, r5
 8000166:	bf08      	it	eq
 8000168:	ea90 0f02 	teqeq	r0, r2
 800016c:	bf1f      	itttt	ne
 800016e:	ea54 0c00 	orrsne.w	ip, r4, r0
 8000172:	ea55 0c02 	orrsne.w	ip, r5, r2
 8000176:	ea7f 5c64 	mvnsne.w	ip, r4, asr #21
 800017a:	ea7f 5c65 	mvnsne.w	ip, r5, asr #21
 800017e:	f000 80e2 	beq.w	8000346 <__adddf3+0x1ee>
 8000182:	ea4f 5454 	mov.w	r4, r4, lsr #21
 8000186:	ebd4 5555 	rsbs	r5, r4, r5, lsr #21
 800018a:	bfb8      	it	lt
 800018c:	426d      	neglt	r5, r5
 800018e:	dd0c      	ble.n	80001aa <__adddf3+0x52>
 8000190:	442c      	add	r4, r5
 8000192:	ea80 0202 	eor.w	r2, r0, r2
 8000196:	ea81 0303 	eor.w	r3, r1, r3
 800019a:	ea82 0000 	eor.w	r0, r2, r0
 800019e:	ea83 0101 	eor.w	r1, r3, r1
 80001a2:	ea80 0202 	eor.w	r2, r0, r2
 80001a6:	ea81 0303 	eor.w	r3, r1, r3
 80001aa:	2d36      	cmp	r5, #54	; 0x36
 80001ac:	bf88      	it	hi
 80001ae:	bd30      	pophi	{r4, r5, pc}
 80001b0:	f011 4f00 	tst.w	r1, #2147483648	; 0x80000000
 80001b4:	ea4f 3101 	mov.w	r1, r1, lsl #12
 80001b8:	f44f 1c80 	mov.w	ip, #1048576	; 0x100000
 80001bc:	ea4c 3111 	orr.w	r1, ip, r1, lsr #12
 80001c0:	d002      	beq.n	80001c8 <__adddf3+0x70>
 80001c2:	4240      	negs	r0, r0
 80001c4:	eb61 0141 	sbc.w	r1, r1, r1, lsl #1
 80001c8:	f013 4f00 	tst.w	r3, #2147483648	; 0x80000000
 80001cc:	ea4f 3303 	mov.w	r3, r3, lsl #12
 80001d0:	ea4c 3313 	orr.w	r3, ip, r3, lsr #12
 80001d4:	d002      	beq.n	80001dc <__adddf3+0x84>
 80001d6:	4252      	negs	r2, r2
 80001d8:	eb63 0343 	sbc.w	r3, r3, r3, lsl #1
 80001dc:	ea94 0f05 	teq	r4, r5
 80001e0:	f000 80a7 	beq.w	8000332 <__adddf3+0x1da>
 80001e4:	f1a4 0401 	sub.w	r4, r4, #1
 80001e8:	f1d5 0e20 	rsbs	lr, r5, #32
 80001ec:	db0d      	blt.n	800020a <__adddf3+0xb2>
 80001ee:	fa02 fc0e 	lsl.w	ip, r2, lr
 80001f2:	fa22 f205 	lsr.w	r2, r2, r5
 80001f6:	1880      	adds	r0, r0, r2
 80001f8:	f141 0100 	adc.w	r1, r1, #0
 80001fc:	fa03 f20e 	lsl.w	r2, r3, lr
 8000200:	1880      	adds	r0, r0, r2
 8000202:	fa43 f305 	asr.w	r3, r3, r5
 8000206:	4159      	adcs	r1, r3
 8000208:	e00e      	b.n	8000228 <__adddf3+0xd0>
 800020a:	f1a5 0520 	sub.w	r5, r5, #32
 800020e:	f10e 0e20 	add.w	lr, lr, #32
 8000212:	2a01      	cmp	r2, #1
 8000214:	fa03 fc0e 	lsl.w	ip, r3, lr
 8000218:	bf28      	it	cs
 800021a:	f04c 0c02 	orrcs.w	ip, ip, #2
 800021e:	fa43 f305 	asr.w	r3, r3, r5
 8000222:	18c0      	adds	r0, r0, r3
 8000224:	eb51 71e3 	adcs.w	r1, r1, r3, asr #31
 8000228:	f001 4500 	and.w	r5, r1, #2147483648	; 0x80000000
 800022c:	d507      	bpl.n	800023e <__adddf3+0xe6>
 800022e:	f04f 0e00 	mov.w	lr, #0
 8000232:	f1dc 0c00 	rsbs	ip, ip, #0
 8000236:	eb7e 0000 	sbcs.w	r0, lr, r0
 800023a:	eb6e 0101 	sbc.w	r1, lr, r1
 800023e:	f5b1 1f80 	cmp.w	r1, #1048576	; 0x100000
 8000242:	d31b      	bcc.n	800027c <__adddf3+0x124>
 8000244:	f5b1 1f00 	cmp.w	r1, #2097152	; 0x200000
 8000248:	d30c      	bcc.n	8000264 <__adddf3+0x10c>
 800024a:	0849      	lsrs	r1, r1, #1
 800024c:	ea5f 0030 	movs.w	r0, r0, rrx
 8000250:	ea4f 0c3c 	mov.w	ip, ip, rrx
 8000254:	f104 0401 	add.w	r4, r4, #1
 8000258:	ea4f 5244 	mov.w	r2, r4, lsl #21
 800025c:	f512 0f80 	cmn.w	r2, #4194304	; 0x400000
 8000260:	f080 809a 	bcs.w	8000398 <__adddf3+0x240>
 8000264:	f1bc 4f00 	cmp.w	ip, #2147483648	; 0x80000000
 8000268:	bf08      	it	eq
 800026a:	ea5f 0c50 	movseq.w	ip, r0, lsr #1
 800026e:	f150 0000 	adcs.w	r0, r0, #0
 8000272:	eb41 5104 	adc.w	r1, r1, r4, lsl #20
 8000276:	ea41 0105 	orr.w	r1, r1, r5
 800027a:	bd30      	pop	{r4, r5, pc}
 800027c:	ea5f 0c4c 	movs.w	ip, ip, lsl #1
 8000280:	4140      	adcs	r0, r0
 8000282:	eb41 0101 	adc.w	r1, r1, r1
 8000286:	3c01      	subs	r4, #1
 8000288:	bf28      	it	cs
 800028a:	f5b1 1f80 	cmpcs.w	r1, #1048576	; 0x100000
 800028e:	d2e9      	bcs.n	8000264 <__adddf3+0x10c>
 8000290:	f091 0f00 	teq	r1, #0
 8000294:	bf04      	itt	eq
 8000296:	4601      	moveq	r1, r0
 8000298:	2000      	moveq	r0, #0
 800029a:	fab1 f381 	clz	r3, r1
 800029e:	bf08      	it	eq
 80002a0:	3320      	addeq	r3, #32
 80002a2:	f1a3 030b 	sub.w	r3, r3, #11
 80002a6:	f1b3 0220 	subs.w	r2, r3, #32
 80002aa:	da0c      	bge.n	80002c6 <__adddf3+0x16e>
 80002ac:	320c      	adds	r2, #12
 80002ae:	dd08      	ble.n	80002c2 <__adddf3+0x16a>
 80002b0:	f102 0c14 	add.w	ip, r2, #20
 80002b4:	f1c2 020c 	rsb	r2, r2, #12
 80002b8:	fa01 f00c 	lsl.w	r0, r1, ip
 80002bc:	fa21 f102 	lsr.w	r1, r1, r2
 80002c0:	e00c      	b.n	80002dc <__adddf3+0x184>
 80002c2:	f102 0214 	add.w	r2, r2, #20
 80002c6:	bfd8      	it	le
 80002c8:	f1c2 0c20 	rsble	ip, r2, #32
 80002cc:	fa01 f102 	lsl.w	r1, r1, r2
 80002d0:	fa20 fc0c 	lsr.w	ip, r0, ip
 80002d4:	bfdc      	itt	le
 80002d6:	ea41 010c 	orrle.w	r1, r1, ip
 80002da:	4090      	lslle	r0, r2
 80002dc:	1ae4      	subs	r4, r4, r3
 80002de:	bfa2      	ittt	ge
 80002e0:	eb01 5104 	addge.w	r1, r1, r4, lsl #20
 80002e4:	4329      	orrge	r1, r5
 80002e6:	bd30      	popge	{r4, r5, pc}
 80002e8:	ea6f 0404 	mvn.w	r4, r4
 80002ec:	3c1f      	subs	r4, #31
 80002ee:	da1c      	bge.n	800032a <__adddf3+0x1d2>
 80002f0:	340c      	adds	r4, #12
 80002f2:	dc0e      	bgt.n	8000312 <__adddf3+0x1ba>
 80002f4:	f104 0414 	add.w	r4, r4, #20
 80002f8:	f1c4 0220 	rsb	r2, r4, #32
 80002fc:	fa20 f004 	lsr.w	r0, r0, r4
 8000300:	fa01 f302 	lsl.w	r3, r1, r2
 8000304:	ea40 0003 	orr.w	r0, r0, r3
 8000308:	fa21 f304 	lsr.w	r3, r1, r4
 800030c:	ea45 0103 	orr.w	r1, r5, r3
 8000310:	bd30      	pop	{r4, r5, pc}
 8000312:	f1c4 040c 	rsb	r4, r4, #12
 8000316:	f1c4 0220 	rsb	r2, r4, #32
 800031a:	fa20 f002 	lsr.w	r0, r0, r2
 800031e:	fa01 f304 	lsl.w	r3, r1, r4
 8000322:	ea40 0003 	orr.w	r0, r0, r3
 8000326:	4629      	mov	r1, r5
 8000328:	bd30      	pop	{r4, r5, pc}
 800032a:	fa21 f004 	lsr.w	r0, r1, r4
 800032e:	4629      	mov	r1, r5
 8000330:	bd30      	pop	{r4, r5, pc}
 8000332:	f094 0f00 	teq	r4, #0
 8000336:	f483 1380 	eor.w	r3, r3, #1048576	; 0x100000
 800033a:	bf06      	itte	eq
 800033c:	f481 1180 	eoreq.w	r1, r1, #1048576	; 0x100000
 8000340:	3401      	addeq	r4, #1
 8000342:	3d01      	subne	r5, #1
 8000344:	e74e      	b.n	80001e4 <__adddf3+0x8c>
 8000346:	ea7f 5c64 	mvns.w	ip, r4, asr #21
 800034a:	bf18      	it	ne
 800034c:	ea7f 5c65 	mvnsne.w	ip, r5, asr #21
 8000350:	d029      	beq.n	80003a6 <__adddf3+0x24e>
 8000352:	ea94 0f05 	teq	r4, r5
 8000356:	bf08      	it	eq
 8000358:	ea90 0f02 	teqeq	r0, r2
 800035c:	d005      	beq.n	800036a <__adddf3+0x212>
 800035e:	ea54 0c00 	orrs.w	ip, r4, r0
 8000362:	bf04      	itt	eq
 8000364:	4619      	moveq	r1, r3
 8000366:	4610      	moveq	r0, r2
 8000368:	bd30      	pop	{r4, r5, pc}
 800036a:	ea91 0f03 	teq	r1, r3
 800036e:	bf1e      	ittt	ne
 8000370:	2100      	movne	r1, #0
 8000372:	2000      	movne	r0, #0
 8000374:	bd30      	popne	{r4, r5, pc}
 8000376:	ea5f 5c54 	movs.w	ip, r4, lsr #21
 800037a:	d105      	bne.n	8000388 <__adddf3+0x230>
 800037c:	0040      	lsls	r0, r0, #1
 800037e:	4149      	adcs	r1, r1
 8000380:	bf28      	it	cs
 8000382:	f041 4100 	orrcs.w	r1, r1, #2147483648	; 0x80000000
 8000386:	bd30      	pop	{r4, r5, pc}
 8000388:	f514 0480 	adds.w	r4, r4, #4194304	; 0x400000
 800038c:	bf3c      	itt	cc
 800038e:	f501 1180 	addcc.w	r1, r1, #1048576	; 0x100000
 8000392:	bd30      	popcc	{r4, r5, pc}
 8000394:	f001 4500 	and.w	r5, r1, #2147483648	; 0x80000000
 8000398:	f045 41fe 	orr.w	r1, r5, #2130706432	; 0x7f000000
 800039c:	f441 0170 	orr.w	r1, r1, #15728640	; 0xf00000
 80003a0:	f04f 0000 	mov.w	r0, #0
 80003a4:	bd30      	pop	{r4, r5, pc}
 80003a6:	ea7f 5c64 	mvns.w	ip, r4, asr #21
 80003aa:	bf1a      	itte	ne
 80003ac:	4619      	movne	r1, r3
 80003ae:	4610      	movne	r0, r2
 80003b0:	ea7f 5c65 	mvnseq.w	ip, r5, asr #21
 80003b4:	bf1c      	itt	ne
 80003b6:	460b      	movne	r3, r1
 80003b8:	4602      	movne	r2, r0
 80003ba:	ea50 3401 	orrs.w	r4, r0, r1, lsl #12
 80003be:	bf06      	itte	eq
 80003c0:	ea52 3503 	orrseq.w	r5, r2, r3, lsl #12
 80003c4:	ea91 0f03 	teqeq	r1, r3
 80003c8:	f441 2100 	orrne.w	r1, r1, #524288	; 0x80000
 80003cc:	bd30      	pop	{r4, r5, pc}
 80003ce:	bf00      	nop

080003d0 <__aeabi_ui2d>:
 80003d0:	f090 0f00 	teq	r0, #0
 80003d4:	bf04      	itt	eq
 80003d6:	2100      	moveq	r1, #0
 80003d8:	4770      	bxeq	lr
 80003da:	b530      	push	{r4, r5, lr}
 80003dc:	f44f 6480 	mov.w	r4, #1024	; 0x400
 80003e0:	f104 0432 	add.w	r4, r4, #50	; 0x32
 80003e4:	f04f 0500 	mov.w	r5, #0
 80003e8:	f04f 0100 	mov.w	r1, #0
 80003ec:	e750      	b.n	8000290 <__adddf3+0x138>
 80003ee:	bf00      	nop

080003f0 <__aeabi_i2d>:
 80003f0:	f090 0f00 	teq	r0, #0
 80003f4:	bf04      	itt	eq
 80003f6:	2100      	moveq	r1, #0
 80003f8:	4770      	bxeq	lr
 80003fa:	b530      	push	{r4, r5, lr}
 80003fc:	f44f 6480 	mov.w	r4, #1024	; 0x400
 8000400:	f104 0432 	add.w	r4, r4, #50	; 0x32
 8000404:	f010 4500 	ands.w	r5, r0, #2147483648	; 0x80000000
 8000408:	bf48      	it	mi
 800040a:	4240      	negmi	r0, r0
 800040c:	f04f 0100 	mov.w	r1, #0
 8000410:	e73e      	b.n	8000290 <__adddf3+0x138>
 8000412:	bf00      	nop

08000414 <__aeabi_f2d>:
 8000414:	0042      	lsls	r2, r0, #1
 8000416:	ea4f 01e2 	mov.w	r1, r2, asr #3
 800041a:	ea4f 0131 	mov.w	r1, r1, rrx
 800041e:	ea4f 7002 	mov.w	r0, r2, lsl #28
 8000422:	bf1f      	itttt	ne
 8000424:	f012 437f 	andsne.w	r3, r2, #4278190080	; 0xff000000
 8000428:	f093 4f7f 	teqne	r3, #4278190080	; 0xff000000
 800042c:	f081 5160 	eorne.w	r1, r1, #939524096	; 0x38000000
 8000430:	4770      	bxne	lr
 8000432:	f032 427f 	bics.w	r2, r2, #4278190080	; 0xff000000
 8000436:	bf08      	it	eq
 8000438:	4770      	bxeq	lr
 800043a:	f093 4f7f 	teq	r3, #4278190080	; 0xff000000
 800043e:	bf04      	itt	eq
 8000440:	f441 2100 	orreq.w	r1, r1, #524288	; 0x80000
 8000444:	4770      	bxeq	lr
 8000446:	b530      	push	{r4, r5, lr}
 8000448:	f44f 7460 	mov.w	r4, #896	; 0x380
 800044c:	f001 4500 	and.w	r5, r1, #2147483648	; 0x80000000
 8000450:	f021 4100 	bic.w	r1, r1, #2147483648	; 0x80000000
 8000454:	e71c      	b.n	8000290 <__adddf3+0x138>
 8000456:	bf00      	nop

08000458 <__aeabi_ul2d>:
 8000458:	ea50 0201 	orrs.w	r2, r0, r1
 800045c:	bf08      	it	eq
 800045e:	4770      	bxeq	lr
 8000460:	b530      	push	{r4, r5, lr}
 8000462:	f04f 0500 	mov.w	r5, #0
 8000466:	e00a      	b.n	800047e <__aeabi_l2d+0x16>

08000468 <__aeabi_l2d>:
 8000468:	ea50 0201 	orrs.w	r2, r0, r1
 800046c:	bf08      	it	eq
 800046e:	4770      	bxeq	lr
 8000470:	b530      	push	{r4, r5, lr}
 8000472:	f011 4500 	ands.w	r5, r1, #2147483648	; 0x80000000
 8000476:	d502      	bpl.n	800047e <__aeabi_l2d+0x16>
 8000478:	4240      	negs	r0, r0
 800047a:	eb61 0141 	sbc.w	r1, r1, r1, lsl #1
 800047e:	f44f 6480 	mov.w	r4, #1024	; 0x400
 8000482:	f104 0432 	add.w	r4, r4, #50	; 0x32
 8000486:	ea5f 5c91 	movs.w	ip, r1, lsr #22
 800048a:	f43f aed8 	beq.w	800023e <__adddf3+0xe6>
 800048e:	f04f 0203 	mov.w	r2, #3
 8000492:	ea5f 0cdc 	movs.w	ip, ip, lsr #3
 8000496:	bf18      	it	ne
 8000498:	3203      	addne	r2, #3
 800049a:	ea5f 0cdc 	movs.w	ip, ip, lsr #3
 800049e:	bf18      	it	ne
 80004a0:	3203      	addne	r2, #3
 80004a2:	eb02 02dc 	add.w	r2, r2, ip, lsr #3
 80004a6:	f1c2 0320 	rsb	r3, r2, #32
 80004aa:	fa00 fc03 	lsl.w	ip, r0, r3
 80004ae:	fa20 f002 	lsr.w	r0, r0, r2
 80004b2:	fa01 fe03 	lsl.w	lr, r1, r3
 80004b6:	ea40 000e 	orr.w	r0, r0, lr
 80004ba:	fa21 f102 	lsr.w	r1, r1, r2
 80004be:	4414      	add	r4, r2
 80004c0:	e6bd      	b.n	800023e <__adddf3+0xe6>
 80004c2:	bf00      	nop

080004c4 <__aeabi_dmul>:
 80004c4:	b570      	push	{r4, r5, r6, lr}
 80004c6:	f04f 0cff 	mov.w	ip, #255	; 0xff
 80004ca:	f44c 6ce0 	orr.w	ip, ip, #1792	; 0x700
 80004ce:	ea1c 5411 	ands.w	r4, ip, r1, lsr #20
 80004d2:	bf1d      	ittte	ne
 80004d4:	ea1c 5513 	andsne.w	r5, ip, r3, lsr #20
 80004d8:	ea94 0f0c 	teqne	r4, ip
 80004dc:	ea95 0f0c 	teqne	r5, ip
 80004e0:	f000 f8de 	bleq	80006a0 <__aeabi_dmul+0x1dc>
 80004e4:	442c      	add	r4, r5
 80004e6:	ea81 0603 	eor.w	r6, r1, r3
 80004ea:	ea21 514c 	bic.w	r1, r1, ip, lsl #21
 80004ee:	ea23 534c 	bic.w	r3, r3, ip, lsl #21
 80004f2:	ea50 3501 	orrs.w	r5, r0, r1, lsl #12
 80004f6:	bf18      	it	ne
 80004f8:	ea52 3503 	orrsne.w	r5, r2, r3, lsl #12
 80004fc:	f441 1180 	orr.w	r1, r1, #1048576	; 0x100000
 8000500:	f443 1380 	orr.w	r3, r3, #1048576	; 0x100000
 8000504:	d038      	beq.n	8000578 <__aeabi_dmul+0xb4>
 8000506:	fba0 ce02 	umull	ip, lr, r0, r2
 800050a:	f04f 0500 	mov.w	r5, #0
 800050e:	fbe1 e502 	umlal	lr, r5, r1, r2
 8000512:	f006 4200 	and.w	r2, r6, #2147483648	; 0x80000000
 8000516:	fbe0 e503 	umlal	lr, r5, r0, r3
 800051a:	f04f 0600 	mov.w	r6, #0
 800051e:	fbe1 5603 	umlal	r5, r6, r1, r3
 8000522:	f09c 0f00 	teq	ip, #0
 8000526:	bf18      	it	ne
 8000528:	f04e 0e01 	orrne.w	lr, lr, #1
 800052c:	f1a4 04ff 	sub.w	r4, r4, #255	; 0xff
 8000530:	f5b6 7f00 	cmp.w	r6, #512	; 0x200
 8000534:	f564 7440 	sbc.w	r4, r4, #768	; 0x300
 8000538:	d204      	bcs.n	8000544 <__aeabi_dmul+0x80>
 800053a:	ea5f 0e4e 	movs.w	lr, lr, lsl #1
 800053e:	416d      	adcs	r5, r5
 8000540:	eb46 0606 	adc.w	r6, r6, r6
 8000544:	ea42 21c6 	orr.w	r1, r2, r6, lsl #11
 8000548:	ea41 5155 	orr.w	r1, r1, r5, lsr #21
 800054c:	ea4f 20c5 	mov.w	r0, r5, lsl #11
 8000550:	ea40 505e 	orr.w	r0, r0, lr, lsr #21
 8000554:	ea4f 2ece 	mov.w	lr, lr, lsl #11
 8000558:	f1b4 0cfd 	subs.w	ip, r4, #253	; 0xfd
 800055c:	bf88      	it	hi
 800055e:	f5bc 6fe0 	cmphi.w	ip, #1792	; 0x700
 8000562:	d81e      	bhi.n	80005a2 <__aeabi_dmul+0xde>
 8000564:	f1be 4f00 	cmp.w	lr, #2147483648	; 0x80000000
 8000568:	bf08      	it	eq
 800056a:	ea5f 0e50 	movseq.w	lr, r0, lsr #1
 800056e:	f150 0000 	adcs.w	r0, r0, #0
 8000572:	eb41 5104 	adc.w	r1, r1, r4, lsl #20
 8000576:	bd70      	pop	{r4, r5, r6, pc}
 8000578:	f006 4600 	and.w	r6, r6, #2147483648	; 0x80000000
 800057c:	ea46 0101 	orr.w	r1, r6, r1
 8000580:	ea40 0002 	orr.w	r0, r0, r2
 8000584:	ea81 0103 	eor.w	r1, r1, r3
 8000588:	ebb4 045c 	subs.w	r4, r4, ip, lsr #1
 800058c:	bfc2      	ittt	gt
 800058e:	ebd4 050c 	rsbsgt	r5, r4, ip
 8000592:	ea41 5104 	orrgt.w	r1, r1, r4, lsl #20
 8000596:	bd70      	popgt	{r4, r5, r6, pc}
 8000598:	f441 1180 	orr.w	r1, r1, #1048576	; 0x100000
 800059c:	f04f 0e00 	mov.w	lr, #0
 80005a0:	3c01      	subs	r4, #1
 80005a2:	f300 80ab 	bgt.w	80006fc <__aeabi_dmul+0x238>
 80005a6:	f114 0f36 	cmn.w	r4, #54	; 0x36
 80005aa:	bfde      	ittt	le
 80005ac:	2000      	movle	r0, #0
 80005ae:	f001 4100 	andle.w	r1, r1, #2147483648	; 0x80000000
 80005b2:	bd70      	pople	{r4, r5, r6, pc}
 80005b4:	f1c4 0400 	rsb	r4, r4, #0
 80005b8:	3c20      	subs	r4, #32
 80005ba:	da35      	bge.n	8000628 <__aeabi_dmul+0x164>
 80005bc:	340c      	adds	r4, #12
 80005be:	dc1b      	bgt.n	80005f8 <__aeabi_dmul+0x134>
 80005c0:	f104 0414 	add.w	r4, r4, #20
 80005c4:	f1c4 0520 	rsb	r5, r4, #32
 80005c8:	fa00 f305 	lsl.w	r3, r0, r5
 80005cc:	fa20 f004 	lsr.w	r0, r0, r4
 80005d0:	fa01 f205 	lsl.w	r2, r1, r5
 80005d4:	ea40 0002 	orr.w	r0, r0, r2
 80005d8:	f001 4200 	and.w	r2, r1, #2147483648	; 0x80000000
 80005dc:	f021 4100 	bic.w	r1, r1, #2147483648	; 0x80000000
 80005e0:	eb10 70d3 	adds.w	r0, r0, r3, lsr #31
 80005e4:	fa21 f604 	lsr.w	r6, r1, r4
 80005e8:	eb42 0106 	adc.w	r1, r2, r6
 80005ec:	ea5e 0e43 	orrs.w	lr, lr, r3, lsl #1
 80005f0:	bf08      	it	eq
 80005f2:	ea20 70d3 	biceq.w	r0, r0, r3, lsr #31
 80005f6:	bd70      	pop	{r4, r5, r6, pc}
 80005f8:	f1c4 040c 	rsb	r4, r4, #12
 80005fc:	f1c4 0520 	rsb	r5, r4, #32
 8000600:	fa00 f304 	lsl.w	r3, r0, r4
 8000604:	fa20 f005 	lsr.w	r0, r0, r5
 8000608:	fa01 f204 	lsl.w	r2, r1, r4
 800060c:	ea40 0002 	orr.w	r0, r0, r2
 8000610:	f001 4100 	and.w	r1, r1, #2147483648	; 0x80000000
 8000614:	eb10 70d3 	adds.w	r0, r0, r3, lsr #31
 8000618:	f141 0100 	adc.w	r1, r1, #0
 800061c:	ea5e 0e43 	orrs.w	lr, lr, r3, lsl #1
 8000620:	bf08      	it	eq
 8000622:	ea20 70d3 	biceq.w	r0, r0, r3, lsr #31
 8000626:	bd70      	pop	{r4, r5, r6, pc}
 8000628:	f1c4 0520 	rsb	r5, r4, #32
 800062c:	fa00 f205 	lsl.w	r2, r0, r5
 8000630:	ea4e 0e02 	orr.w	lr, lr, r2
 8000634:	fa20 f304 	lsr.w	r3, r0, r4
 8000638:	fa01 f205 	lsl.w	r2, r1, r5
 800063c:	ea43 0302 	orr.w	r3, r3, r2
 8000640:	fa21 f004 	lsr.w	r0, r1, r4
 8000644:	f001 4100 	and.w	r1, r1, #2147483648	; 0x80000000
 8000648:	fa21 f204 	lsr.w	r2, r1, r4
 800064c:	ea20 0002 	bic.w	r0, r0, r2
 8000650:	eb00 70d3 	add.w	r0, r0, r3, lsr #31
 8000654:	ea5e 0e43 	orrs.w	lr, lr, r3, lsl #1
 8000658:	bf08      	it	eq
 800065a:	ea20 70d3 	biceq.w	r0, r0, r3, lsr #31
 800065e:	bd70      	pop	{r4, r5, r6, pc}
 8000660:	f094 0f00 	teq	r4, #0
 8000664:	d10f      	bne.n	8000686 <__aeabi_dmul+0x1c2>
 8000666:	f001 4600 	and.w	r6, r1, #2147483648	; 0x80000000
 800066a:	0040      	lsls	r0, r0, #1
 800066c:	eb41 0101 	adc.w	r1, r1, r1
 8000670:	f411 1f80 	tst.w	r1, #1048576	; 0x100000
 8000674:	bf08      	it	eq
 8000676:	3c01      	subeq	r4, #1
 8000678:	d0f7      	beq.n	800066a <__aeabi_dmul+0x1a6>
 800067a:	ea41 0106 	orr.w	r1, r1, r6
 800067e:	f095 0f00 	teq	r5, #0
 8000682:	bf18      	it	ne
 8000684:	4770      	bxne	lr
 8000686:	f003 4600 	and.w	r6, r3, #2147483648	; 0x80000000
 800068a:	0052      	lsls	r2, r2, #1
 800068c:	eb43 0303 	adc.w	r3, r3, r3
 8000690:	f413 1f80 	tst.w	r3, #1048576	; 0x100000
 8000694:	bf08      	it	eq
 8000696:	3d01      	subeq	r5, #1
 8000698:	d0f7      	beq.n	800068a <__aeabi_dmul+0x1c6>
 800069a:	ea43 0306 	orr.w	r3, r3, r6
 800069e:	4770      	bx	lr
 80006a0:	ea94 0f0c 	teq	r4, ip
 80006a4:	ea0c 5513 	and.w	r5, ip, r3, lsr #20
 80006a8:	bf18      	it	ne
 80006aa:	ea95 0f0c 	teqne	r5, ip
 80006ae:	d00c      	beq.n	80006ca <__aeabi_dmul+0x206>
 80006b0:	ea50 0641 	orrs.w	r6, r0, r1, lsl #1
 80006b4:	bf18      	it	ne
 80006b6:	ea52 0643 	orrsne.w	r6, r2, r3, lsl #1
 80006ba:	d1d1      	bne.n	8000660 <__aeabi_dmul+0x19c>
 80006bc:	ea81 0103 	eor.w	r1, r1, r3
 80006c0:	f001 4100 	and.w	r1, r1, #2147483648	; 0x80000000
 80006c4:	f04f 0000 	mov.w	r0, #0
 80006c8:	bd70      	pop	{r4, r5, r6, pc}
 80006ca:	ea50 0641 	orrs.w	r6, r0, r1, lsl #1
 80006ce:	bf06      	itte	eq
 80006d0:	4610      	moveq	r0, r2
 80006d2:	4619      	moveq	r1, r3
 80006d4:	ea52 0643 	orrsne.w	r6, r2, r3, lsl #1
 80006d8:	d019      	beq.n	800070e <__aeabi_dmul+0x24a>
 80006da:	ea94 0f0c 	teq	r4, ip
 80006de:	d102      	bne.n	80006e6 <__aeabi_dmul+0x222>
 80006e0:	ea50 3601 	orrs.w	r6, r0, r1, lsl #12
 80006e4:	d113      	bne.n	800070e <__aeabi_dmul+0x24a>
 80006e6:	ea95 0f0c 	teq	r5, ip
 80006ea:	d105      	bne.n	80006f8 <__aeabi_dmul+0x234>
 80006ec:	ea52 3603 	orrs.w	r6, r2, r3, lsl #12
 80006f0:	bf1c      	itt	ne
 80006f2:	4610      	movne	r0, r2
 80006f4:	4619      	movne	r1, r3
 80006f6:	d10a      	bne.n	800070e <__aeabi_dmul+0x24a>
 80006f8:	ea81 0103 	eor.w	r1, r1, r3
 80006fc:	f001 4100 	and.w	r1, r1, #2147483648	; 0x80000000
 8000700:	f041 41fe 	orr.w	r1, r1, #2130706432	; 0x7f000000
 8000704:	f441 0170 	orr.w	r1, r1, #15728640	; 0xf00000
 8000708:	f04f 0000 	mov.w	r0, #0
 800070c:	bd70      	pop	{r4, r5, r6, pc}
 800070e:	f041 41fe 	orr.w	r1, r1, #2130706432	; 0x7f000000
 8000712:	f441 0178 	orr.w	r1, r1, #16252928	; 0xf80000
 8000716:	bd70      	pop	{r4, r5, r6, pc}

08000718 <__aeabi_ddiv>:
 8000718:	b570      	push	{r4, r5, r6, lr}
 800071a:	f04f 0cff 	mov.w	ip, #255	; 0xff
 800071e:	f44c 6ce0 	orr.w	ip, ip, #1792	; 0x700
 8000722:	ea1c 5411 	ands.w	r4, ip, r1, lsr #20
 8000726:	bf1d      	ittte	ne
 8000728:	ea1c 5513 	andsne.w	r5, ip, r3, lsr #20
 800072c:	ea94 0f0c 	teqne	r4, ip
 8000730:	ea95 0f0c 	teqne	r5, ip
 8000734:	f000 f8a7 	bleq	8000886 <__aeabi_ddiv+0x16e>
 8000738:	eba4 0405 	sub.w	r4, r4, r5
 800073c:	ea81 0e03 	eor.w	lr, r1, r3
 8000740:	ea52 3503 	orrs.w	r5, r2, r3, lsl #12
 8000744:	ea4f 3101 	mov.w	r1, r1, lsl #12
 8000748:	f000 8088 	beq.w	800085c <__aeabi_ddiv+0x144>
 800074c:	ea4f 3303 	mov.w	r3, r3, lsl #12
 8000750:	f04f 5580 	mov.w	r5, #268435456	; 0x10000000
 8000754:	ea45 1313 	orr.w	r3, r5, r3, lsr #4
 8000758:	ea43 6312 	orr.w	r3, r3, r2, lsr #24
 800075c:	ea4f 2202 	mov.w	r2, r2, lsl #8
 8000760:	ea45 1511 	orr.w	r5, r5, r1, lsr #4
 8000764:	ea45 6510 	orr.w	r5, r5, r0, lsr #24
 8000768:	ea4f 2600 	mov.w	r6, r0, lsl #8
 800076c:	f00e 4100 	and.w	r1, lr, #2147483648	; 0x80000000
 8000770:	429d      	cmp	r5, r3
 8000772:	bf08      	it	eq
 8000774:	4296      	cmpeq	r6, r2
 8000776:	f144 04fd 	adc.w	r4, r4, #253	; 0xfd
 800077a:	f504 7440 	add.w	r4, r4, #768	; 0x300
 800077e:	d202      	bcs.n	8000786 <__aeabi_ddiv+0x6e>
 8000780:	085b      	lsrs	r3, r3, #1
 8000782:	ea4f 0232 	mov.w	r2, r2, rrx
 8000786:	1ab6      	subs	r6, r6, r2
 8000788:	eb65 0503 	sbc.w	r5, r5, r3
 800078c:	085b      	lsrs	r3, r3, #1
 800078e:	ea4f 0232 	mov.w	r2, r2, rrx
 8000792:	f44f 1080 	mov.w	r0, #1048576	; 0x100000
 8000796:	f44f 2c00 	mov.w	ip, #524288	; 0x80000
 800079a:	ebb6 0e02 	subs.w	lr, r6, r2
 800079e:	eb75 0e03 	sbcs.w	lr, r5, r3
 80007a2:	bf22      	ittt	cs
 80007a4:	1ab6      	subcs	r6, r6, r2
 80007a6:	4675      	movcs	r5, lr
 80007a8:	ea40 000c 	orrcs.w	r0, r0, ip
 80007ac:	085b      	lsrs	r3, r3, #1
 80007ae:	ea4f 0232 	mov.w	r2, r2, rrx
 80007b2:	ebb6 0e02 	subs.w	lr, r6, r2
 80007b6:	eb75 0e03 	sbcs.w	lr, r5, r3
 80007ba:	bf22      	ittt	cs
 80007bc:	1ab6      	subcs	r6, r6, r2
 80007be:	4675      	movcs	r5, lr
 80007c0:	ea40 005c 	orrcs.w	r0, r0, ip, lsr #1
 80007c4:	085b      	lsrs	r3, r3, #1
 80007c6:	ea4f 0232 	mov.w	r2, r2, rrx
 80007ca:	ebb6 0e02 	subs.w	lr, r6, r2
 80007ce:	eb75 0e03 	sbcs.w	lr, r5, r3
 80007d2:	bf22      	ittt	cs
 80007d4:	1ab6      	subcs	r6, r6, r2
 80007d6:	4675      	movcs	r5, lr
 80007d8:	ea40 009c 	orrcs.w	r0, r0, ip, lsr #2
 80007dc:	085b      	lsrs	r3, r3, #1
 80007de:	ea4f 0232 	mov.w	r2, r2, rrx
 80007e2:	ebb6 0e02 	subs.w	lr, r6, r2
 80007e6:	eb75 0e03 	sbcs.w	lr, r5, r3
 80007ea:	bf22      	ittt	cs
 80007ec:	1ab6      	subcs	r6, r6, r2
 80007ee:	4675      	movcs	r5, lr
 80007f0:	ea40 00dc 	orrcs.w	r0, r0, ip, lsr #3
 80007f4:	ea55 0e06 	orrs.w	lr, r5, r6
 80007f8:	d018      	beq.n	800082c <__aeabi_ddiv+0x114>
 80007fa:	ea4f 1505 	mov.w	r5, r5, lsl #4
 80007fe:	ea45 7516 	orr.w	r5, r5, r6, lsr #28
 8000802:	ea4f 1606 	mov.w	r6, r6, lsl #4
 8000806:	ea4f 03c3 	mov.w	r3, r3, lsl #3
 800080a:	ea43 7352 	orr.w	r3, r3, r2, lsr #29
 800080e:	ea4f 02c2 	mov.w	r2, r2, lsl #3
 8000812:	ea5f 1c1c 	movs.w	ip, ip, lsr #4
 8000816:	d1c0      	bne.n	800079a <__aeabi_ddiv+0x82>
 8000818:	f411 1f80 	tst.w	r1, #1048576	; 0x100000
 800081c:	d10b      	bne.n	8000836 <__aeabi_ddiv+0x11e>
 800081e:	ea41 0100 	orr.w	r1, r1, r0
 8000822:	f04f 0000 	mov.w	r0, #0
 8000826:	f04f 4c00 	mov.w	ip, #2147483648	; 0x80000000
 800082a:	e7b6      	b.n	800079a <__aeabi_ddiv+0x82>
 800082c:	f411 1f80 	tst.w	r1, #1048576	; 0x100000
 8000830:	bf04      	itt	eq
 8000832:	4301      	orreq	r1, r0
 8000834:	2000      	moveq	r0, #0
 8000836:	f1b4 0cfd 	subs.w	ip, r4, #253	; 0xfd
 800083a:	bf88      	it	hi
 800083c:	f5bc 6fe0 	cmphi.w	ip, #1792	; 0x700
 8000840:	f63f aeaf 	bhi.w	80005a2 <__aeabi_dmul+0xde>
 8000844:	ebb5 0c03 	subs.w	ip, r5, r3
 8000848:	bf04      	itt	eq
 800084a:	ebb6 0c02 	subseq.w	ip, r6, r2
 800084e:	ea5f 0c50 	movseq.w	ip, r0, lsr #1
 8000852:	f150 0000 	adcs.w	r0, r0, #0
 8000856:	eb41 5104 	adc.w	r1, r1, r4, lsl #20
 800085a:	bd70      	pop	{r4, r5, r6, pc}
 800085c:	f00e 4e00 	and.w	lr, lr, #2147483648	; 0x80000000
 8000860:	ea4e 3111 	orr.w	r1, lr, r1, lsr #12
 8000864:	eb14 045c 	adds.w	r4, r4, ip, lsr #1
 8000868:	bfc2      	ittt	gt
 800086a:	ebd4 050c 	rsbsgt	r5, r4, ip
 800086e:	ea41 5104 	orrgt.w	r1, r1, r4, lsl #20
 8000872:	bd70      	popgt	{r4, r5, r6, pc}
 8000874:	f441 1180 	orr.w	r1, r1, #1048576	; 0x100000
 8000878:	f04f 0e00 	mov.w	lr, #0
 800087c:	3c01      	subs	r4, #1
 800087e:	e690      	b.n	80005a2 <__aeabi_dmul+0xde>
 8000880:	ea45 0e06 	orr.w	lr, r5, r6
 8000884:	e68d      	b.n	80005a2 <__aeabi_dmul+0xde>
 8000886:	ea0c 5513 	and.w	r5, ip, r3, lsr #20
 800088a:	ea94 0f0c 	teq	r4, ip
 800088e:	bf08      	it	eq
 8000890:	ea95 0f0c 	teqeq	r5, ip
 8000894:	f43f af3b 	beq.w	800070e <__aeabi_dmul+0x24a>
 8000898:	ea94 0f0c 	teq	r4, ip
 800089c:	d10a      	bne.n	80008b4 <__aeabi_ddiv+0x19c>
 800089e:	ea50 3401 	orrs.w	r4, r0, r1, lsl #12
 80008a2:	f47f af34 	bne.w	800070e <__aeabi_dmul+0x24a>
 80008a6:	ea95 0f0c 	teq	r5, ip
 80008aa:	f47f af25 	bne.w	80006f8 <__aeabi_dmul+0x234>
 80008ae:	4610      	mov	r0, r2
 80008b0:	4619      	mov	r1, r3
 80008b2:	e72c      	b.n	800070e <__aeabi_dmul+0x24a>
 80008b4:	ea95 0f0c 	teq	r5, ip
 80008b8:	d106      	bne.n	80008c8 <__aeabi_ddiv+0x1b0>
 80008ba:	ea52 3503 	orrs.w	r5, r2, r3, lsl #12
 80008be:	f43f aefd 	beq.w	80006bc <__aeabi_dmul+0x1f8>
 80008c2:	4610      	mov	r0, r2
 80008c4:	4619      	mov	r1, r3
 80008c6:	e722      	b.n	800070e <__aeabi_dmul+0x24a>
 80008c8:	ea50 0641 	orrs.w	r6, r0, r1, lsl #1
 80008cc:	bf18      	it	ne
 80008ce:	ea52 0643 	orrsne.w	r6, r2, r3, lsl #1
 80008d2:	f47f aec5 	bne.w	8000660 <__aeabi_dmul+0x19c>
 80008d6:	ea50 0441 	orrs.w	r4, r0, r1, lsl #1
 80008da:	f47f af0d 	bne.w	80006f8 <__aeabi_dmul+0x234>
 80008de:	ea52 0543 	orrs.w	r5, r2, r3, lsl #1
 80008e2:	f47f aeeb 	bne.w	80006bc <__aeabi_dmul+0x1f8>
 80008e6:	e712      	b.n	800070e <__aeabi_dmul+0x24a>

080008e8 <__aeabi_d2f>:
 80008e8:	ea4f 0241 	mov.w	r2, r1, lsl #1
 80008ec:	f1b2 43e0 	subs.w	r3, r2, #1879048192	; 0x70000000
 80008f0:	bf24      	itt	cs
 80008f2:	f5b3 1c00 	subscs.w	ip, r3, #2097152	; 0x200000
 80008f6:	f1dc 5cfe 	rsbscs	ip, ip, #532676608	; 0x1fc00000
 80008fa:	d90d      	bls.n	8000918 <__aeabi_d2f+0x30>
 80008fc:	f001 4c00 	and.w	ip, r1, #2147483648	; 0x80000000
 8000900:	ea4f 02c0 	mov.w	r2, r0, lsl #3
 8000904:	ea4c 7050 	orr.w	r0, ip, r0, lsr #29
 8000908:	f1b2 4f00 	cmp.w	r2, #2147483648	; 0x80000000
 800090c:	eb40 0083 	adc.w	r0, r0, r3, lsl #2
 8000910:	bf08      	it	eq
 8000912:	f020 0001 	biceq.w	r0, r0, #1
 8000916:	4770      	bx	lr
 8000918:	f011 4f80 	tst.w	r1, #1073741824	; 0x40000000
 800091c:	d121      	bne.n	8000962 <__aeabi_d2f+0x7a>
 800091e:	f113 7238 	adds.w	r2, r3, #48234496	; 0x2e00000
 8000922:	bfbc      	itt	lt
 8000924:	f001 4000 	andlt.w	r0, r1, #2147483648	; 0x80000000
 8000928:	4770      	bxlt	lr
 800092a:	f441 1180 	orr.w	r1, r1, #1048576	; 0x100000
 800092e:	ea4f 5252 	mov.w	r2, r2, lsr #21
 8000932:	f1c2 0218 	rsb	r2, r2, #24
 8000936:	f1c2 0c20 	rsb	ip, r2, #32
 800093a:	fa10 f30c 	lsls.w	r3, r0, ip
 800093e:	fa20 f002 	lsr.w	r0, r0, r2
 8000942:	bf18      	it	ne
 8000944:	f040 0001 	orrne.w	r0, r0, #1
 8000948:	ea4f 23c1 	mov.w	r3, r1, lsl #11
 800094c:	ea4f 23d3 	mov.w	r3, r3, lsr #11
 8000950:	fa03 fc0c 	lsl.w	ip, r3, ip
 8000954:	ea40 000c 	orr.w	r0, r0, ip
 8000958:	fa23 f302 	lsr.w	r3, r3, r2
 800095c:	ea4f 0343 	mov.w	r3, r3, lsl #1
 8000960:	e7cc      	b.n	80008fc <__aeabi_d2f+0x14>
 8000962:	ea7f 5362 	mvns.w	r3, r2, asr #21
 8000966:	d107      	bne.n	8000978 <__aeabi_d2f+0x90>
 8000968:	ea50 3301 	orrs.w	r3, r0, r1, lsl #12
 800096c:	bf1e      	ittt	ne
 800096e:	f04f 40fe 	movne.w	r0, #2130706432	; 0x7f000000
 8000972:	f440 0040 	orrne.w	r0, r0, #12582912	; 0xc00000
 8000976:	4770      	bxne	lr
 8000978:	f001 4000 	and.w	r0, r1, #2147483648	; 0x80000000
 800097c:	f040 40fe 	orr.w	r0, r0, #2130706432	; 0x7f000000
 8000980:	f440 0000 	orr.w	r0, r0, #8388608	; 0x800000
 8000984:	4770      	bx	lr
 8000986:	bf00      	nop

08000988 <__aeabi_frsub>:
 8000988:	f080 4000 	eor.w	r0, r0, #2147483648	; 0x80000000
 800098c:	e002      	b.n	8000994 <__addsf3>
 800098e:	bf00      	nop

08000990 <__aeabi_fsub>:
 8000990:	f081 4100 	eor.w	r1, r1, #2147483648	; 0x80000000

08000994 <__addsf3>:
 8000994:	0042      	lsls	r2, r0, #1
 8000996:	bf1f      	itttt	ne
 8000998:	ea5f 0341 	movsne.w	r3, r1, lsl #1
 800099c:	ea92 0f03 	teqne	r2, r3
 80009a0:	ea7f 6c22 	mvnsne.w	ip, r2, asr #24
 80009a4:	ea7f 6c23 	mvnsne.w	ip, r3, asr #24
 80009a8:	d06a      	beq.n	8000a80 <__addsf3+0xec>
 80009aa:	ea4f 6212 	mov.w	r2, r2, lsr #24
 80009ae:	ebd2 6313 	rsbs	r3, r2, r3, lsr #24
 80009b2:	bfc1      	itttt	gt
 80009b4:	18d2      	addgt	r2, r2, r3
 80009b6:	4041      	eorgt	r1, r0
 80009b8:	4048      	eorgt	r0, r1
 80009ba:	4041      	eorgt	r1, r0
 80009bc:	bfb8      	it	lt
 80009be:	425b      	neglt	r3, r3
 80009c0:	2b19      	cmp	r3, #25
 80009c2:	bf88      	it	hi
 80009c4:	4770      	bxhi	lr
 80009c6:	f010 4f00 	tst.w	r0, #2147483648	; 0x80000000
 80009ca:	f440 0000 	orr.w	r0, r0, #8388608	; 0x800000
 80009ce:	f020 407f 	bic.w	r0, r0, #4278190080	; 0xff000000
 80009d2:	bf18      	it	ne
 80009d4:	4240      	negne	r0, r0
 80009d6:	f011 4f00 	tst.w	r1, #2147483648	; 0x80000000
 80009da:	f441 0100 	orr.w	r1, r1, #8388608	; 0x800000
 80009de:	f021 417f 	bic.w	r1, r1, #4278190080	; 0xff000000
 80009e2:	bf18      	it	ne
 80009e4:	4249      	negne	r1, r1
 80009e6:	ea92 0f03 	teq	r2, r3
 80009ea:	d03f      	beq.n	8000a6c <__addsf3+0xd8>
 80009ec:	f1a2 0201 	sub.w	r2, r2, #1
 80009f0:	fa41 fc03 	asr.w	ip, r1, r3
 80009f4:	eb10 000c 	adds.w	r0, r0, ip
 80009f8:	f1c3 0320 	rsb	r3, r3, #32
 80009fc:	fa01 f103 	lsl.w	r1, r1, r3
 8000a00:	f000 4300 	and.w	r3, r0, #2147483648	; 0x80000000
 8000a04:	d502      	bpl.n	8000a0c <__addsf3+0x78>
 8000a06:	4249      	negs	r1, r1
 8000a08:	eb60 0040 	sbc.w	r0, r0, r0, lsl #1
 8000a0c:	f5b0 0f00 	cmp.w	r0, #8388608	; 0x800000
 8000a10:	d313      	bcc.n	8000a3a <__addsf3+0xa6>
 8000a12:	f1b0 7f80 	cmp.w	r0, #16777216	; 0x1000000
 8000a16:	d306      	bcc.n	8000a26 <__addsf3+0x92>
 8000a18:	0840      	lsrs	r0, r0, #1
 8000a1a:	ea4f 0131 	mov.w	r1, r1, rrx
 8000a1e:	f102 0201 	add.w	r2, r2, #1
 8000a22:	2afe      	cmp	r2, #254	; 0xfe
 8000a24:	d251      	bcs.n	8000aca <__addsf3+0x136>
 8000a26:	f1b1 4f00 	cmp.w	r1, #2147483648	; 0x80000000
 8000a2a:	eb40 50c2 	adc.w	r0, r0, r2, lsl #23
 8000a2e:	bf08      	it	eq
 8000a30:	f020 0001 	biceq.w	r0, r0, #1
 8000a34:	ea40 0003 	orr.w	r0, r0, r3
 8000a38:	4770      	bx	lr
 8000a3a:	0049      	lsls	r1, r1, #1
 8000a3c:	eb40 0000 	adc.w	r0, r0, r0
 8000a40:	3a01      	subs	r2, #1
 8000a42:	bf28      	it	cs
 8000a44:	f5b0 0f00 	cmpcs.w	r0, #8388608	; 0x800000
 8000a48:	d2ed      	bcs.n	8000a26 <__addsf3+0x92>
 8000a4a:	fab0 fc80 	clz	ip, r0
 8000a4e:	f1ac 0c08 	sub.w	ip, ip, #8
 8000a52:	ebb2 020c 	subs.w	r2, r2, ip
 8000a56:	fa00 f00c 	lsl.w	r0, r0, ip
 8000a5a:	bfaa      	itet	ge
 8000a5c:	eb00 50c2 	addge.w	r0, r0, r2, lsl #23
 8000a60:	4252      	neglt	r2, r2
 8000a62:	4318      	orrge	r0, r3
 8000a64:	bfbc      	itt	lt
 8000a66:	40d0      	lsrlt	r0, r2
 8000a68:	4318      	orrlt	r0, r3
 8000a6a:	4770      	bx	lr
 8000a6c:	f092 0f00 	teq	r2, #0
 8000a70:	f481 0100 	eor.w	r1, r1, #8388608	; 0x800000
 8000a74:	bf06      	itte	eq
 8000a76:	f480 0000 	eoreq.w	r0, r0, #8388608	; 0x800000
 8000a7a:	3201      	addeq	r2, #1
 8000a7c:	3b01      	subne	r3, #1
 8000a7e:	e7b5      	b.n	80009ec <__addsf3+0x58>
 8000a80:	ea4f 0341 	mov.w	r3, r1, lsl #1
 8000a84:	ea7f 6c22 	mvns.w	ip, r2, asr #24
 8000a88:	bf18      	it	ne
 8000a8a:	ea7f 6c23 	mvnsne.w	ip, r3, asr #24
 8000a8e:	d021      	beq.n	8000ad4 <__addsf3+0x140>
 8000a90:	ea92 0f03 	teq	r2, r3
 8000a94:	d004      	beq.n	8000aa0 <__addsf3+0x10c>
 8000a96:	f092 0f00 	teq	r2, #0
 8000a9a:	bf08      	it	eq
 8000a9c:	4608      	moveq	r0, r1
 8000a9e:	4770      	bx	lr
 8000aa0:	ea90 0f01 	teq	r0, r1
 8000aa4:	bf1c      	itt	ne
 8000aa6:	2000      	movne	r0, #0
 8000aa8:	4770      	bxne	lr
 8000aaa:	f012 4f7f 	tst.w	r2, #4278190080	; 0xff000000
 8000aae:	d104      	bne.n	8000aba <__addsf3+0x126>
 8000ab0:	0040      	lsls	r0, r0, #1
 8000ab2:	bf28      	it	cs
 8000ab4:	f040 4000 	orrcs.w	r0, r0, #2147483648	; 0x80000000
 8000ab8:	4770      	bx	lr
 8000aba:	f112 7200 	adds.w	r2, r2, #33554432	; 0x2000000
 8000abe:	bf3c      	itt	cc
 8000ac0:	f500 0000 	addcc.w	r0, r0, #8388608	; 0x800000
 8000ac4:	4770      	bxcc	lr
 8000ac6:	f000 4300 	and.w	r3, r0, #2147483648	; 0x80000000
 8000aca:	f043 40fe 	orr.w	r0, r3, #2130706432	; 0x7f000000
 8000ace:	f440 0000 	orr.w	r0, r0, #8388608	; 0x800000
 8000ad2:	4770      	bx	lr
 8000ad4:	ea7f 6222 	mvns.w	r2, r2, asr #24
 8000ad8:	bf16      	itet	ne
 8000ada:	4608      	movne	r0, r1
 8000adc:	ea7f 6323 	mvnseq.w	r3, r3, asr #24
 8000ae0:	4601      	movne	r1, r0
 8000ae2:	0242      	lsls	r2, r0, #9
 8000ae4:	bf06      	itte	eq
 8000ae6:	ea5f 2341 	movseq.w	r3, r1, lsl #9
 8000aea:	ea90 0f01 	teqeq	r0, r1
 8000aee:	f440 0080 	orrne.w	r0, r0, #4194304	; 0x400000
 8000af2:	4770      	bx	lr

08000af4 <__aeabi_ui2f>:
 8000af4:	f04f 0300 	mov.w	r3, #0
 8000af8:	e004      	b.n	8000b04 <__aeabi_i2f+0x8>
 8000afa:	bf00      	nop

08000afc <__aeabi_i2f>:
 8000afc:	f010 4300 	ands.w	r3, r0, #2147483648	; 0x80000000
 8000b00:	bf48      	it	mi
 8000b02:	4240      	negmi	r0, r0
 8000b04:	ea5f 0c00 	movs.w	ip, r0
 8000b08:	bf08      	it	eq
 8000b0a:	4770      	bxeq	lr
 8000b0c:	f043 4396 	orr.w	r3, r3, #1258291200	; 0x4b000000
 8000b10:	4601      	mov	r1, r0
 8000b12:	f04f 0000 	mov.w	r0, #0
 8000b16:	e01c      	b.n	8000b52 <__aeabi_l2f+0x2a>

08000b18 <__aeabi_ul2f>:
 8000b18:	ea50 0201 	orrs.w	r2, r0, r1
 8000b1c:	bf08      	it	eq
 8000b1e:	4770      	bxeq	lr
 8000b20:	f04f 0300 	mov.w	r3, #0
 8000b24:	e00a      	b.n	8000b3c <__aeabi_l2f+0x14>
 8000b26:	bf00      	nop

08000b28 <__aeabi_l2f>:
 8000b28:	ea50 0201 	orrs.w	r2, r0, r1
 8000b2c:	bf08      	it	eq
 8000b2e:	4770      	bxeq	lr
 8000b30:	f011 4300 	ands.w	r3, r1, #2147483648	; 0x80000000
 8000b34:	d502      	bpl.n	8000b3c <__aeabi_l2f+0x14>
 8000b36:	4240      	negs	r0, r0
 8000b38:	eb61 0141 	sbc.w	r1, r1, r1, lsl #1
 8000b3c:	ea5f 0c01 	movs.w	ip, r1
 8000b40:	bf02      	ittt	eq
 8000b42:	4684      	moveq	ip, r0
 8000b44:	4601      	moveq	r1, r0
 8000b46:	2000      	moveq	r0, #0
 8000b48:	f043 43b6 	orr.w	r3, r3, #1526726656	; 0x5b000000
 8000b4c:	bf08      	it	eq
 8000b4e:	f1a3 5380 	subeq.w	r3, r3, #268435456	; 0x10000000
 8000b52:	f5a3 0300 	sub.w	r3, r3, #8388608	; 0x800000
 8000b56:	fabc f28c 	clz	r2, ip
 8000b5a:	3a08      	subs	r2, #8
 8000b5c:	eba3 53c2 	sub.w	r3, r3, r2, lsl #23
 8000b60:	db10      	blt.n	8000b84 <__aeabi_l2f+0x5c>
 8000b62:	fa01 fc02 	lsl.w	ip, r1, r2
 8000b66:	4463      	add	r3, ip
 8000b68:	fa00 fc02 	lsl.w	ip, r0, r2
 8000b6c:	f1c2 0220 	rsb	r2, r2, #32
 8000b70:	f1bc 4f00 	cmp.w	ip, #2147483648	; 0x80000000
 8000b74:	fa20 f202 	lsr.w	r2, r0, r2
 8000b78:	eb43 0002 	adc.w	r0, r3, r2
 8000b7c:	bf08      	it	eq
 8000b7e:	f020 0001 	biceq.w	r0, r0, #1
 8000b82:	4770      	bx	lr
 8000b84:	f102 0220 	add.w	r2, r2, #32
 8000b88:	fa01 fc02 	lsl.w	ip, r1, r2
 8000b8c:	f1c2 0220 	rsb	r2, r2, #32
 8000b90:	ea50 004c 	orrs.w	r0, r0, ip, lsl #1
 8000b94:	fa21 f202 	lsr.w	r2, r1, r2
 8000b98:	eb43 0002 	adc.w	r0, r3, r2
 8000b9c:	bf08      	it	eq
 8000b9e:	ea20 70dc 	biceq.w	r0, r0, ip, lsr #31
 8000ba2:	4770      	bx	lr

08000ba4 <__aeabi_fmul>:
 8000ba4:	f04f 0cff 	mov.w	ip, #255	; 0xff
 8000ba8:	ea1c 52d0 	ands.w	r2, ip, r0, lsr #23
 8000bac:	bf1e      	ittt	ne
 8000bae:	ea1c 53d1 	andsne.w	r3, ip, r1, lsr #23
 8000bb2:	ea92 0f0c 	teqne	r2, ip
 8000bb6:	ea93 0f0c 	teqne	r3, ip
 8000bba:	d06f      	beq.n	8000c9c <__aeabi_fmul+0xf8>
 8000bbc:	441a      	add	r2, r3
 8000bbe:	ea80 0c01 	eor.w	ip, r0, r1
 8000bc2:	0240      	lsls	r0, r0, #9
 8000bc4:	bf18      	it	ne
 8000bc6:	ea5f 2141 	movsne.w	r1, r1, lsl #9
 8000bca:	d01e      	beq.n	8000c0a <__aeabi_fmul+0x66>
 8000bcc:	f04f 6300 	mov.w	r3, #134217728	; 0x8000000
 8000bd0:	ea43 1050 	orr.w	r0, r3, r0, lsr #5
 8000bd4:	ea43 1151 	orr.w	r1, r3, r1, lsr #5
 8000bd8:	fba0 3101 	umull	r3, r1, r0, r1
 8000bdc:	f00c 4000 	and.w	r0, ip, #2147483648	; 0x80000000
 8000be0:	f5b1 0f00 	cmp.w	r1, #8388608	; 0x800000
 8000be4:	bf3e      	ittt	cc
 8000be6:	0049      	lslcc	r1, r1, #1
 8000be8:	ea41 71d3 	orrcc.w	r1, r1, r3, lsr #31
 8000bec:	005b      	lslcc	r3, r3, #1
 8000bee:	ea40 0001 	orr.w	r0, r0, r1
 8000bf2:	f162 027f 	sbc.w	r2, r2, #127	; 0x7f
 8000bf6:	2afd      	cmp	r2, #253	; 0xfd
 8000bf8:	d81d      	bhi.n	8000c36 <__aeabi_fmul+0x92>
 8000bfa:	f1b3 4f00 	cmp.w	r3, #2147483648	; 0x80000000
 8000bfe:	eb40 50c2 	adc.w	r0, r0, r2, lsl #23
 8000c02:	bf08      	it	eq
 8000c04:	f020 0001 	biceq.w	r0, r0, #1
 8000c08:	4770      	bx	lr
 8000c0a:	f090 0f00 	teq	r0, #0
 8000c0e:	f00c 4c00 	and.w	ip, ip, #2147483648	; 0x80000000
 8000c12:	bf08      	it	eq
 8000c14:	0249      	lsleq	r1, r1, #9
 8000c16:	ea4c 2050 	orr.w	r0, ip, r0, lsr #9
 8000c1a:	ea40 2051 	orr.w	r0, r0, r1, lsr #9
 8000c1e:	3a7f      	subs	r2, #127	; 0x7f
 8000c20:	bfc2      	ittt	gt
 8000c22:	f1d2 03ff 	rsbsgt	r3, r2, #255	; 0xff
 8000c26:	ea40 50c2 	orrgt.w	r0, r0, r2, lsl #23
 8000c2a:	4770      	bxgt	lr
 8000c2c:	f440 0000 	orr.w	r0, r0, #8388608	; 0x800000
 8000c30:	f04f 0300 	mov.w	r3, #0
 8000c34:	3a01      	subs	r2, #1
 8000c36:	dc5d      	bgt.n	8000cf4 <__aeabi_fmul+0x150>
 8000c38:	f112 0f19 	cmn.w	r2, #25
 8000c3c:	bfdc      	itt	le
 8000c3e:	f000 4000 	andle.w	r0, r0, #2147483648	; 0x80000000
 8000c42:	4770      	bxle	lr
 8000c44:	f1c2 0200 	rsb	r2, r2, #0
 8000c48:	0041      	lsls	r1, r0, #1
 8000c4a:	fa21 f102 	lsr.w	r1, r1, r2
 8000c4e:	f1c2 0220 	rsb	r2, r2, #32
 8000c52:	fa00 fc02 	lsl.w	ip, r0, r2
 8000c56:	ea5f 0031 	movs.w	r0, r1, rrx
 8000c5a:	f140 0000 	adc.w	r0, r0, #0
 8000c5e:	ea53 034c 	orrs.w	r3, r3, ip, lsl #1
 8000c62:	bf08      	it	eq
 8000c64:	ea20 70dc 	biceq.w	r0, r0, ip, lsr #31
 8000c68:	4770      	bx	lr
 8000c6a:	f092 0f00 	teq	r2, #0
 8000c6e:	f000 4c00 	and.w	ip, r0, #2147483648	; 0x80000000
 8000c72:	bf02      	ittt	eq
 8000c74:	0040      	lsleq	r0, r0, #1
 8000c76:	f410 0f00 	tsteq.w	r0, #8388608	; 0x800000
 8000c7a:	3a01      	subeq	r2, #1
 8000c7c:	d0f9      	beq.n	8000c72 <__aeabi_fmul+0xce>
 8000c7e:	ea40 000c 	orr.w	r0, r0, ip
 8000c82:	f093 0f00 	teq	r3, #0
 8000c86:	f001 4c00 	and.w	ip, r1, #2147483648	; 0x80000000
 8000c8a:	bf02      	ittt	eq
 8000c8c:	0049      	lsleq	r1, r1, #1
 8000c8e:	f411 0f00 	tsteq.w	r1, #8388608	; 0x800000
 8000c92:	3b01      	subeq	r3, #1
 8000c94:	d0f9      	beq.n	8000c8a <__aeabi_fmul+0xe6>
 8000c96:	ea41 010c 	orr.w	r1, r1, ip
 8000c9a:	e78f      	b.n	8000bbc <__aeabi_fmul+0x18>
 8000c9c:	ea0c 53d1 	and.w	r3, ip, r1, lsr #23
 8000ca0:	ea92 0f0c 	teq	r2, ip
 8000ca4:	bf18      	it	ne
 8000ca6:	ea93 0f0c 	teqne	r3, ip
 8000caa:	d00a      	beq.n	8000cc2 <__aeabi_fmul+0x11e>
 8000cac:	f030 4c00 	bics.w	ip, r0, #2147483648	; 0x80000000
 8000cb0:	bf18      	it	ne
 8000cb2:	f031 4c00 	bicsne.w	ip, r1, #2147483648	; 0x80000000
 8000cb6:	d1d8      	bne.n	8000c6a <__aeabi_fmul+0xc6>
 8000cb8:	ea80 0001 	eor.w	r0, r0, r1
 8000cbc:	f000 4000 	and.w	r0, r0, #2147483648	; 0x80000000
 8000cc0:	4770      	bx	lr
 8000cc2:	f090 0f00 	teq	r0, #0
 8000cc6:	bf17      	itett	ne
 8000cc8:	f090 4f00 	teqne	r0, #2147483648	; 0x80000000
 8000ccc:	4608      	moveq	r0, r1
 8000cce:	f091 0f00 	teqne	r1, #0
 8000cd2:	f091 4f00 	teqne	r1, #2147483648	; 0x80000000
 8000cd6:	d014      	beq.n	8000d02 <__aeabi_fmul+0x15e>
 8000cd8:	ea92 0f0c 	teq	r2, ip
 8000cdc:	d101      	bne.n	8000ce2 <__aeabi_fmul+0x13e>
 8000cde:	0242      	lsls	r2, r0, #9
 8000ce0:	d10f      	bne.n	8000d02 <__aeabi_fmul+0x15e>
 8000ce2:	ea93 0f0c 	teq	r3, ip
 8000ce6:	d103      	bne.n	8000cf0 <__aeabi_fmul+0x14c>
 8000ce8:	024b      	lsls	r3, r1, #9
 8000cea:	bf18      	it	ne
 8000cec:	4608      	movne	r0, r1
 8000cee:	d108      	bne.n	8000d02 <__aeabi_fmul+0x15e>
 8000cf0:	ea80 0001 	eor.w	r0, r0, r1
 8000cf4:	f000 4000 	and.w	r0, r0, #2147483648	; 0x80000000
 8000cf8:	f040 40fe 	orr.w	r0, r0, #2130706432	; 0x7f000000
 8000cfc:	f440 0000 	orr.w	r0, r0, #8388608	; 0x800000
 8000d00:	4770      	bx	lr
 8000d02:	f040 40fe 	orr.w	r0, r0, #2130706432	; 0x7f000000
 8000d06:	f440 0040 	orr.w	r0, r0, #12582912	; 0xc00000
 8000d0a:	4770      	bx	lr

08000d0c <__aeabi_fdiv>:
 8000d0c:	f04f 0cff 	mov.w	ip, #255	; 0xff
 8000d10:	ea1c 52d0 	ands.w	r2, ip, r0, lsr #23
 8000d14:	bf1e      	ittt	ne
 8000d16:	ea1c 53d1 	andsne.w	r3, ip, r1, lsr #23
 8000d1a:	ea92 0f0c 	teqne	r2, ip
 8000d1e:	ea93 0f0c 	teqne	r3, ip
 8000d22:	d069      	beq.n	8000df8 <__aeabi_fdiv+0xec>
 8000d24:	eba2 0203 	sub.w	r2, r2, r3
 8000d28:	ea80 0c01 	eor.w	ip, r0, r1
 8000d2c:	0249      	lsls	r1, r1, #9
 8000d2e:	ea4f 2040 	mov.w	r0, r0, lsl #9
 8000d32:	d037      	beq.n	8000da4 <__aeabi_fdiv+0x98>
 8000d34:	f04f 5380 	mov.w	r3, #268435456	; 0x10000000
 8000d38:	ea43 1111 	orr.w	r1, r3, r1, lsr #4
 8000d3c:	ea43 1310 	orr.w	r3, r3, r0, lsr #4
 8000d40:	f00c 4000 	and.w	r0, ip, #2147483648	; 0x80000000
 8000d44:	428b      	cmp	r3, r1
 8000d46:	bf38      	it	cc
 8000d48:	005b      	lslcc	r3, r3, #1
 8000d4a:	f142 027d 	adc.w	r2, r2, #125	; 0x7d
 8000d4e:	f44f 0c00 	mov.w	ip, #8388608	; 0x800000
 8000d52:	428b      	cmp	r3, r1
 8000d54:	bf24      	itt	cs
 8000d56:	1a5b      	subcs	r3, r3, r1
 8000d58:	ea40 000c 	orrcs.w	r0, r0, ip
 8000d5c:	ebb3 0f51 	cmp.w	r3, r1, lsr #1
 8000d60:	bf24      	itt	cs
 8000d62:	eba3 0351 	subcs.w	r3, r3, r1, lsr #1
 8000d66:	ea40 005c 	orrcs.w	r0, r0, ip, lsr #1
 8000d6a:	ebb3 0f91 	cmp.w	r3, r1, lsr #2
 8000d6e:	bf24      	itt	cs
 8000d70:	eba3 0391 	subcs.w	r3, r3, r1, lsr #2
 8000d74:	ea40 009c 	orrcs.w	r0, r0, ip, lsr #2
 8000d78:	ebb3 0fd1 	cmp.w	r3, r1, lsr #3
 8000d7c:	bf24      	itt	cs
 8000d7e:	eba3 03d1 	subcs.w	r3, r3, r1, lsr #3
 8000d82:	ea40 00dc 	orrcs.w	r0, r0, ip, lsr #3
 8000d86:	011b      	lsls	r3, r3, #4
 8000d88:	bf18      	it	ne
 8000d8a:	ea5f 1c1c 	movsne.w	ip, ip, lsr #4
 8000d8e:	d1e0      	bne.n	8000d52 <__aeabi_fdiv+0x46>
 8000d90:	2afd      	cmp	r2, #253	; 0xfd
 8000d92:	f63f af50 	bhi.w	8000c36 <__aeabi_fmul+0x92>
 8000d96:	428b      	cmp	r3, r1
 8000d98:	eb40 50c2 	adc.w	r0, r0, r2, lsl #23
 8000d9c:	bf08      	it	eq
 8000d9e:	f020 0001 	biceq.w	r0, r0, #1
 8000da2:	4770      	bx	lr
 8000da4:	f00c 4c00 	and.w	ip, ip, #2147483648	; 0x80000000
 8000da8:	ea4c 2050 	orr.w	r0, ip, r0, lsr #9
 8000dac:	327f      	adds	r2, #127	; 0x7f
 8000dae:	bfc2      	ittt	gt
 8000db0:	f1d2 03ff 	rsbsgt	r3, r2, #255	; 0xff
 8000db4:	ea40 50c2 	orrgt.w	r0, r0, r2, lsl #23
 8000db8:	4770      	bxgt	lr
 8000dba:	f440 0000 	orr.w	r0, r0, #8388608	; 0x800000
 8000dbe:	f04f 0300 	mov.w	r3, #0
 8000dc2:	3a01      	subs	r2, #1
 8000dc4:	e737      	b.n	8000c36 <__aeabi_fmul+0x92>
 8000dc6:	f092 0f00 	teq	r2, #0
 8000dca:	f000 4c00 	and.w	ip, r0, #2147483648	; 0x80000000
 8000dce:	bf02      	ittt	eq
 8000dd0:	0040      	lsleq	r0, r0, #1
 8000dd2:	f410 0f00 	tsteq.w	r0, #8388608	; 0x800000
 8000dd6:	3a01      	subeq	r2, #1
 8000dd8:	d0f9      	beq.n	8000dce <__aeabi_fdiv+0xc2>
 8000dda:	ea40 000c 	orr.w	r0, r0, ip
 8000dde:	f093 0f00 	teq	r3, #0
 8000de2:	f001 4c00 	and.w	ip, r1, #2147483648	; 0x80000000
 8000de6:	bf02      	ittt	eq
 8000de8:	0049      	lsleq	r1, r1, #1
 8000dea:	f411 0f00 	tsteq.w	r1, #8388608	; 0x800000
 8000dee:	3b01      	subeq	r3, #1
 8000df0:	d0f9      	beq.n	8000de6 <__aeabi_fdiv+0xda>
 8000df2:	ea41 010c 	orr.w	r1, r1, ip
 8000df6:	e795      	b.n	8000d24 <__aeabi_fdiv+0x18>
 8000df8:	ea0c 53d1 	and.w	r3, ip, r1, lsr #23
 8000dfc:	ea92 0f0c 	teq	r2, ip
 8000e00:	d108      	bne.n	8000e14 <__aeabi_fdiv+0x108>
 8000e02:	0242      	lsls	r2, r0, #9
 8000e04:	f47f af7d 	bne.w	8000d02 <__aeabi_fmul+0x15e>
 8000e08:	ea93 0f0c 	teq	r3, ip
 8000e0c:	f47f af70 	bne.w	8000cf0 <__aeabi_fmul+0x14c>
 8000e10:	4608      	mov	r0, r1
 8000e12:	e776      	b.n	8000d02 <__aeabi_fmul+0x15e>
 8000e14:	ea93 0f0c 	teq	r3, ip
 8000e18:	d104      	bne.n	8000e24 <__aeabi_fdiv+0x118>
 8000e1a:	024b      	lsls	r3, r1, #9
 8000e1c:	f43f af4c 	beq.w	8000cb8 <__aeabi_fmul+0x114>
 8000e20:	4608      	mov	r0, r1
 8000e22:	e76e      	b.n	8000d02 <__aeabi_fmul+0x15e>
 8000e24:	f030 4c00 	bics.w	ip, r0, #2147483648	; 0x80000000
 8000e28:	bf18      	it	ne
 8000e2a:	f031 4c00 	bicsne.w	ip, r1, #2147483648	; 0x80000000
 8000e2e:	d1ca      	bne.n	8000dc6 <__aeabi_fdiv+0xba>
 8000e30:	f030 4200 	bics.w	r2, r0, #2147483648	; 0x80000000
 8000e34:	f47f af5c 	bne.w	8000cf0 <__aeabi_fmul+0x14c>
 8000e38:	f031 4300 	bics.w	r3, r1, #2147483648	; 0x80000000
 8000e3c:	f47f af3c 	bne.w	8000cb8 <__aeabi_fmul+0x114>
 8000e40:	e75f      	b.n	8000d02 <__aeabi_fmul+0x15e>
 8000e42:	bf00      	nop

08000e44 <__gesf2>:
 8000e44:	f04f 3cff 	mov.w	ip, #4294967295
 8000e48:	e006      	b.n	8000e58 <__cmpsf2+0x4>
 8000e4a:	bf00      	nop

08000e4c <__lesf2>:
 8000e4c:	f04f 0c01 	mov.w	ip, #1
 8000e50:	e002      	b.n	8000e58 <__cmpsf2+0x4>
 8000e52:	bf00      	nop

08000e54 <__cmpsf2>:
 8000e54:	f04f 0c01 	mov.w	ip, #1
 8000e58:	f84d cd04 	str.w	ip, [sp, #-4]!
 8000e5c:	ea4f 0240 	mov.w	r2, r0, lsl #1
 8000e60:	ea4f 0341 	mov.w	r3, r1, lsl #1
 8000e64:	ea7f 6c22 	mvns.w	ip, r2, asr #24
 8000e68:	bf18      	it	ne
 8000e6a:	ea7f 6c23 	mvnsne.w	ip, r3, asr #24
 8000e6e:	d011      	beq.n	8000e94 <__cmpsf2+0x40>
 8000e70:	b001      	add	sp, #4
 8000e72:	ea52 0c53 	orrs.w	ip, r2, r3, lsr #1
 8000e76:	bf18      	it	ne
 8000e78:	ea90 0f01 	teqne	r0, r1
 8000e7c:	bf58      	it	pl
 8000e7e:	ebb2 0003 	subspl.w	r0, r2, r3
 8000e82:	bf88      	it	hi
 8000e84:	17c8      	asrhi	r0, r1, #31
 8000e86:	bf38      	it	cc
 8000e88:	ea6f 70e1 	mvncc.w	r0, r1, asr #31
 8000e8c:	bf18      	it	ne
 8000e8e:	f040 0001 	orrne.w	r0, r0, #1
 8000e92:	4770      	bx	lr
 8000e94:	ea7f 6c22 	mvns.w	ip, r2, asr #24
 8000e98:	d102      	bne.n	8000ea0 <__cmpsf2+0x4c>
 8000e9a:	ea5f 2c40 	movs.w	ip, r0, lsl #9
 8000e9e:	d105      	bne.n	8000eac <__cmpsf2+0x58>
 8000ea0:	ea7f 6c23 	mvns.w	ip, r3, asr #24
 8000ea4:	d1e4      	bne.n	8000e70 <__cmpsf2+0x1c>
 8000ea6:	ea5f 2c41 	movs.w	ip, r1, lsl #9
 8000eaa:	d0e1      	beq.n	8000e70 <__cmpsf2+0x1c>
 8000eac:	f85d 0b04 	ldr.w	r0, [sp], #4
 8000eb0:	4770      	bx	lr
 8000eb2:	bf00      	nop

08000eb4 <__aeabi_cfrcmple>:
 8000eb4:	4684      	mov	ip, r0
 8000eb6:	4608      	mov	r0, r1
 8000eb8:	4661      	mov	r1, ip
 8000eba:	e7ff      	b.n	8000ebc <__aeabi_cfcmpeq>

08000ebc <__aeabi_cfcmpeq>:
 8000ebc:	b50f      	push	{r0, r1, r2, r3, lr}
 8000ebe:	f7ff ffc9 	bl	8000e54 <__cmpsf2>
 8000ec2:	2800      	cmp	r0, #0
 8000ec4:	bf48      	it	mi
 8000ec6:	f110 0f00 	cmnmi.w	r0, #0
 8000eca:	bd0f      	pop	{r0, r1, r2, r3, pc}

08000ecc <__aeabi_fcmpeq>:
 8000ecc:	f84d ed08 	str.w	lr, [sp, #-8]!
 8000ed0:	f7ff fff4 	bl	8000ebc <__aeabi_cfcmpeq>
 8000ed4:	bf0c      	ite	eq
 8000ed6:	2001      	moveq	r0, #1
 8000ed8:	2000      	movne	r0, #0
 8000eda:	f85d fb08 	ldr.w	pc, [sp], #8
 8000ede:	bf00      	nop

08000ee0 <__aeabi_fcmplt>:
 8000ee0:	f84d ed08 	str.w	lr, [sp, #-8]!
 8000ee4:	f7ff ffea 	bl	8000ebc <__aeabi_cfcmpeq>
 8000ee8:	bf34      	ite	cc
 8000eea:	2001      	movcc	r0, #1
 8000eec:	2000      	movcs	r0, #0
 8000eee:	f85d fb08 	ldr.w	pc, [sp], #8
 8000ef2:	bf00      	nop

08000ef4 <__aeabi_fcmple>:
 8000ef4:	f84d ed08 	str.w	lr, [sp, #-8]!
 8000ef8:	f7ff ffe0 	bl	8000ebc <__aeabi_cfcmpeq>
 8000efc:	bf94      	ite	ls
 8000efe:	2001      	movls	r0, #1
 8000f00:	2000      	movhi	r0, #0
 8000f02:	f85d fb08 	ldr.w	pc, [sp], #8
 8000f06:	bf00      	nop

08000f08 <__aeabi_fcmpge>:
 8000f08:	f84d ed08 	str.w	lr, [sp, #-8]!
 8000f0c:	f7ff ffd2 	bl	8000eb4 <__aeabi_cfrcmple>
 8000f10:	bf94      	ite	ls
 8000f12:	2001      	movls	r0, #1
 8000f14:	2000      	movhi	r0, #0
 8000f16:	f85d fb08 	ldr.w	pc, [sp], #8
 8000f1a:	bf00      	nop

08000f1c <__aeabi_fcmpgt>:
 8000f1c:	f84d ed08 	str.w	lr, [sp, #-8]!
 8000f20:	f7ff ffc8 	bl	8000eb4 <__aeabi_cfrcmple>
 8000f24:	bf34      	ite	cc
 8000f26:	2001      	movcc	r0, #1
 8000f28:	2000      	movcs	r0, #0
 8000f2a:	f85d fb08 	ldr.w	pc, [sp], #8
 8000f2e:	bf00      	nop

08000f30 <__aeabi_f2iz>:
 8000f30:	ea4f 0240 	mov.w	r2, r0, lsl #1
 8000f34:	f1b2 4ffe 	cmp.w	r2, #2130706432	; 0x7f000000
 8000f38:	d30f      	bcc.n	8000f5a <__aeabi_f2iz+0x2a>
 8000f3a:	f04f 039e 	mov.w	r3, #158	; 0x9e
 8000f3e:	ebb3 6212 	subs.w	r2, r3, r2, lsr #24
 8000f42:	d90d      	bls.n	8000f60 <__aeabi_f2iz+0x30>
 8000f44:	ea4f 2300 	mov.w	r3, r0, lsl #8
 8000f48:	f043 4300 	orr.w	r3, r3, #2147483648	; 0x80000000
 8000f4c:	f010 4f00 	tst.w	r0, #2147483648	; 0x80000000
 8000f50:	fa23 f002 	lsr.w	r0, r3, r2
 8000f54:	bf18      	it	ne
 8000f56:	4240      	negne	r0, r0
 8000f58:	4770      	bx	lr
 8000f5a:	f04f 0000 	mov.w	r0, #0
 8000f5e:	4770      	bx	lr
 8000f60:	f112 0f61 	cmn.w	r2, #97	; 0x61
 8000f64:	d101      	bne.n	8000f6a <__aeabi_f2iz+0x3a>
 8000f66:	0242      	lsls	r2, r0, #9
 8000f68:	d105      	bne.n	8000f76 <__aeabi_f2iz+0x46>
 8000f6a:	f010 4000 	ands.w	r0, r0, #2147483648	; 0x80000000
 8000f6e:	bf08      	it	eq
 8000f70:	f06f 4000 	mvneq.w	r0, #2147483648	; 0x80000000
 8000f74:	4770      	bx	lr
 8000f76:	f04f 0000 	mov.w	r0, #0
 8000f7a:	4770      	bx	lr

08000f7c <__aeabi_f2uiz>:
 8000f7c:	0042      	lsls	r2, r0, #1
 8000f7e:	d20e      	bcs.n	8000f9e <__aeabi_f2uiz+0x22>
 8000f80:	f1b2 4ffe 	cmp.w	r2, #2130706432	; 0x7f000000
 8000f84:	d30b      	bcc.n	8000f9e <__aeabi_f2uiz+0x22>
 8000f86:	f04f 039e 	mov.w	r3, #158	; 0x9e
 8000f8a:	ebb3 6212 	subs.w	r2, r3, r2, lsr #24
 8000f8e:	d409      	bmi.n	8000fa4 <__aeabi_f2uiz+0x28>
 8000f90:	ea4f 2300 	mov.w	r3, r0, lsl #8
 8000f94:	f043 4300 	orr.w	r3, r3, #2147483648	; 0x80000000
 8000f98:	fa23 f002 	lsr.w	r0, r3, r2
 8000f9c:	4770      	bx	lr
 8000f9e:	f04f 0000 	mov.w	r0, #0
 8000fa2:	4770      	bx	lr
 8000fa4:	f112 0f61 	cmn.w	r2, #97	; 0x61
 8000fa8:	d101      	bne.n	8000fae <__aeabi_f2uiz+0x32>
 8000faa:	0242      	lsls	r2, r0, #9
 8000fac:	d102      	bne.n	8000fb4 <__aeabi_f2uiz+0x38>
 8000fae:	f04f 30ff 	mov.w	r0, #4294967295
 8000fb2:	4770      	bx	lr
 8000fb4:	f04f 0000 	mov.w	r0, #0
 8000fb8:	4770      	bx	lr
 8000fba:	bf00      	nop

08000fbc <MCP4725_init>:
 8000fbc:	b590      	push	{r4, r7, lr}
 8000fbe:	b089      	sub	sp, #36	; 0x24
 8000fc0:	af00      	add	r7, sp, #0
 8000fc2:	60f8      	str	r0, [r7, #12]
 8000fc4:	60b9      	str	r1, [r7, #8]
 8000fc6:	603b      	str	r3, [r7, #0]
 8000fc8:	4613      	mov	r3, r2
 8000fca:	71fb      	strb	r3, [r7, #7]
 8000fcc:	79fb      	ldrb	r3, [r7, #7]
 8000fce:	005b      	lsls	r3, r3, #1
 8000fd0:	b2db      	uxtb	r3, r3
 8000fd2:	753b      	strb	r3, [r7, #20]
 8000fd4:	68bb      	ldr	r3, [r7, #8]
 8000fd6:	613b      	str	r3, [r7, #16]
 8000fd8:	f107 0310 	add.w	r3, r7, #16
 8000fdc:	6839      	ldr	r1, [r7, #0]
 8000fde:	4618      	mov	r0, r3
 8000fe0:	f000 f822 	bl	8001028 <MCP4725_setReferenceVoltage>
 8000fe4:	68fb      	ldr	r3, [r7, #12]
 8000fe6:	461c      	mov	r4, r3
 8000fe8:	f107 0310 	add.w	r3, r7, #16
 8000fec:	cb0f      	ldmia	r3, {r0, r1, r2, r3}
 8000fee:	e884 000f 	stmia.w	r4, {r0, r1, r2, r3}
 8000ff2:	68f8      	ldr	r0, [r7, #12]
 8000ff4:	3724      	adds	r7, #36	; 0x24
 8000ff6:	46bd      	mov	sp, r7
 8000ff8:	bd90      	pop	{r4, r7, pc}

08000ffa <MCP4725_isConnected>:
 8000ffa:	b580      	push	{r7, lr}
 8000ffc:	b082      	sub	sp, #8
 8000ffe:	af00      	add	r7, sp, #0
 8001000:	6078      	str	r0, [r7, #4]
 8001002:	687b      	ldr	r3, [r7, #4]
 8001004:	6818      	ldr	r0, [r3, #0]
 8001006:	687b      	ldr	r3, [r7, #4]
 8001008:	791b      	ldrb	r3, [r3, #4]
 800100a:	b299      	uxth	r1, r3
 800100c:	2364      	movs	r3, #100	; 0x64
 800100e:	2202      	movs	r2, #2
 8001010:	f002 f9b8 	bl	8003384 <HAL_I2C_IsDeviceReady>
 8001014:	4603      	mov	r3, r0
 8001016:	2b00      	cmp	r3, #0
 8001018:	bf0c      	ite	eq
 800101a:	2301      	moveq	r3, #1
 800101c:	2300      	movne	r3, #0
 800101e:	b2db      	uxtb	r3, r3
 8001020:	4618      	mov	r0, r3
 8001022:	3708      	adds	r7, #8
 8001024:	46bd      	mov	sp, r7
 8001026:	bd80      	pop	{r7, pc}

08001028 <MCP4725_setReferenceVoltage>:
 8001028:	b580      	push	{r7, lr}
 800102a:	b082      	sub	sp, #8
 800102c:	af00      	add	r7, sp, #0
 800102e:	6078      	str	r0, [r7, #4]
 8001030:	6039      	str	r1, [r7, #0]
 8001032:	f04f 0100 	mov.w	r1, #0
 8001036:	6838      	ldr	r0, [r7, #0]
 8001038:	f7ff ff48 	bl	8000ecc <__aeabi_fcmpeq>
 800103c:	4603      	mov	r3, r0
 800103e:	2b00      	cmp	r3, #0
 8001040:	d003      	beq.n	800104a <MCP4725_setReferenceVoltage+0x22>
 8001042:	687b      	ldr	r3, [r7, #4]
 8001044:	4a0c      	ldr	r2, [pc, #48]	; (8001078 <MCP4725_setReferenceVoltage+0x50>)
 8001046:	609a      	str	r2, [r3, #8]
 8001048:	e002      	b.n	8001050 <MCP4725_setReferenceVoltage+0x28>
 800104a:	687b      	ldr	r3, [r7, #4]
 800104c:	683a      	ldr	r2, [r7, #0]
 800104e:	609a      	str	r2, [r3, #8]
 8001050:	687b      	ldr	r3, [r7, #4]
 8001052:	689b      	ldr	r3, [r3, #8]
 8001054:	4619      	mov	r1, r3
 8001056:	f04f 408b 	mov.w	r0, #1166016512	; 0x45800000
 800105a:	f7ff fe57 	bl	8000d0c <__aeabi_fdiv>
 800105e:	4603      	mov	r3, r0
 8001060:	4618      	mov	r0, r3
 8001062:	f7ff ff8b 	bl	8000f7c <__aeabi_f2uiz>
 8001066:	4603      	mov	r3, r0
 8001068:	b29a      	uxth	r2, r3
 800106a:	687b      	ldr	r3, [r7, #4]
 800106c:	819a      	strh	r2, [r3, #12]
 800106e:	bf00      	nop
 8001070:	3708      	adds	r7, #8
 8001072:	46bd      	mov	sp, r7
 8001074:	bd80      	pop	{r7, pc}
 8001076:	bf00      	nop
 8001078:	40533333 	.word	0x40533333

0800107c <MCP4725_setValue>:
 800107c:	b580      	push	{r7, lr}
 800107e:	b082      	sub	sp, #8
 8001080:	af00      	add	r7, sp, #0
 8001082:	6078      	str	r0, [r7, #4]
 8001084:	4608      	mov	r0, r1
 8001086:	4611      	mov	r1, r2
 8001088:	461a      	mov	r2, r3
 800108a:	4603      	mov	r3, r0
 800108c:	807b      	strh	r3, [r7, #2]
 800108e:	460b      	mov	r3, r1
 8001090:	707b      	strb	r3, [r7, #1]
 8001092:	4613      	mov	r3, r2
 8001094:	703b      	strb	r3, [r7, #0]
 8001096:	783b      	ldrb	r3, [r7, #0]
 8001098:	787a      	ldrb	r2, [r7, #1]
 800109a:	8879      	ldrh	r1, [r7, #2]
 800109c:	6878      	ldr	r0, [r7, #4]
 800109e:	f000 f822 	bl	80010e6 <MCP4725_writeComand>
 80010a2:	4603      	mov	r3, r0
 80010a4:	4618      	mov	r0, r3
 80010a6:	3708      	adds	r7, #8
 80010a8:	46bd      	mov	sp, r7
 80010aa:	bd80      	pop	{r7, pc}

080010ac <MCP4725_getEepromBusyFlag>:
 80010ac:	b580      	push	{r7, lr}
 80010ae:	b084      	sub	sp, #16
 80010b0:	af00      	add	r7, sp, #0
 80010b2:	6078      	str	r0, [r7, #4]
 80010b4:	2101      	movs	r1, #1
 80010b6:	6878      	ldr	r0, [r7, #4]
 80010b8:	f000 f895 	bl	80011e6 <MCP4725_readRegister>
 80010bc:	4603      	mov	r3, r0
 80010be:	81fb      	strh	r3, [r7, #14]
 80010c0:	89fb      	ldrh	r3, [r7, #14]
 80010c2:	f64f 72ff 	movw	r2, #65535	; 0xffff
 80010c6:	4293      	cmp	r3, r2
 80010c8:	d008      	beq.n	80010dc <MCP4725_getEepromBusyFlag+0x30>
 80010ca:	89fb      	ldrh	r3, [r7, #14]
 80010cc:	f003 0380 	and.w	r3, r3, #128	; 0x80
 80010d0:	2b00      	cmp	r3, #0
 80010d2:	bf14      	ite	ne
 80010d4:	2301      	movne	r3, #1
 80010d6:	2300      	moveq	r3, #0
 80010d8:	b2db      	uxtb	r3, r3
 80010da:	e000      	b.n	80010de <MCP4725_getEepromBusyFlag+0x32>
 80010dc:	2300      	movs	r3, #0
 80010de:	4618      	mov	r0, r3
 80010e0:	3710      	adds	r7, #16
 80010e2:	46bd      	mov	sp, r7
 80010e4:	bd80      	pop	{r7, pc}

080010e6 <MCP4725_writeComand>:
 80010e6:	b580      	push	{r7, lr}
 80010e8:	b086      	sub	sp, #24
 80010ea:	af02      	add	r7, sp, #8
 80010ec:	6078      	str	r0, [r7, #4]
 80010ee:	4608      	mov	r0, r1
 80010f0:	4611      	mov	r1, r2
 80010f2:	461a      	mov	r2, r3
 80010f4:	4603      	mov	r3, r0
 80010f6:	807b      	strh	r3, [r7, #2]
 80010f8:	460b      	mov	r3, r1
 80010fa:	707b      	strb	r3, [r7, #1]
 80010fc:	4613      	mov	r3, r2
 80010fe:	703b      	strb	r3, [r7, #0]
 8001100:	787b      	ldrb	r3, [r7, #1]
 8001102:	2b60      	cmp	r3, #96	; 0x60
 8001104:	d028      	beq.n	8001158 <MCP4725_writeComand+0x72>
 8001106:	2b60      	cmp	r3, #96	; 0x60
 8001108:	dc4a      	bgt.n	80011a0 <MCP4725_writeComand+0xba>
 800110a:	2b00      	cmp	r3, #0
 800110c:	d002      	beq.n	8001114 <MCP4725_writeComand+0x2e>
 800110e:	2b40      	cmp	r3, #64	; 0x40
 8001110:	d022      	beq.n	8001158 <MCP4725_writeComand+0x72>
 8001112:	e045      	b.n	80011a0 <MCP4725_writeComand+0xba>
 8001114:	783b      	ldrb	r3, [r7, #0]
 8001116:	011b      	lsls	r3, r3, #4
 8001118:	b25a      	sxtb	r2, r3
 800111a:	f997 3001 	ldrsb.w	r3, [r7, #1]
 800111e:	4313      	orrs	r3, r2
 8001120:	b25a      	sxtb	r2, r3
 8001122:	887b      	ldrh	r3, [r7, #2]
 8001124:	0a1b      	lsrs	r3, r3, #8
 8001126:	b29b      	uxth	r3, r3
 8001128:	b25b      	sxtb	r3, r3
 800112a:	4313      	orrs	r3, r2
 800112c:	b25b      	sxtb	r3, r3
 800112e:	b2db      	uxtb	r3, r3
 8001130:	733b      	strb	r3, [r7, #12]
 8001132:	887b      	ldrh	r3, [r7, #2]
 8001134:	b2db      	uxtb	r3, r3
 8001136:	737b      	strb	r3, [r7, #13]
 8001138:	687b      	ldr	r3, [r7, #4]
 800113a:	6818      	ldr	r0, [r3, #0]
 800113c:	687b      	ldr	r3, [r7, #4]
 800113e:	791b      	ldrb	r3, [r3, #4]
 8001140:	b299      	uxth	r1, r3
 8001142:	f107 020c 	add.w	r2, r7, #12
 8001146:	f44f 737a 	mov.w	r3, #1000	; 0x3e8
 800114a:	9300      	str	r3, [sp, #0]
 800114c:	2302      	movs	r3, #2
 800114e:	f001 fdaf 	bl	8002cb0 <HAL_I2C_Master_Transmit>
 8001152:	4603      	mov	r3, r0
 8001154:	73fb      	strb	r3, [r7, #15]
 8001156:	e023      	b.n	80011a0 <MCP4725_writeComand+0xba>
 8001158:	887b      	ldrh	r3, [r7, #2]
 800115a:	011b      	lsls	r3, r3, #4
 800115c:	807b      	strh	r3, [r7, #2]
 800115e:	783b      	ldrb	r3, [r7, #0]
 8001160:	005b      	lsls	r3, r3, #1
 8001162:	b25a      	sxtb	r2, r3
 8001164:	f997 3001 	ldrsb.w	r3, [r7, #1]
 8001168:	4313      	orrs	r3, r2
 800116a:	b25b      	sxtb	r3, r3
 800116c:	b2db      	uxtb	r3, r3
 800116e:	733b      	strb	r3, [r7, #12]
 8001170:	887b      	ldrh	r3, [r7, #2]
 8001172:	0a1b      	lsrs	r3, r3, #8
 8001174:	b29b      	uxth	r3, r3
 8001176:	b2db      	uxtb	r3, r3
 8001178:	737b      	strb	r3, [r7, #13]
 800117a:	887b      	ldrh	r3, [r7, #2]
 800117c:	b2db      	uxtb	r3, r3
 800117e:	73bb      	strb	r3, [r7, #14]
 8001180:	687b      	ldr	r3, [r7, #4]
 8001182:	6818      	ldr	r0, [r3, #0]
 8001184:	687b      	ldr	r3, [r7, #4]
 8001186:	791b      	ldrb	r3, [r3, #4]
 8001188:	b299      	uxth	r1, r3
 800118a:	f107 020c 	add.w	r2, r7, #12
 800118e:	f44f 737a 	mov.w	r3, #1000	; 0x3e8
 8001192:	9300      	str	r3, [sp, #0]
 8001194:	2303      	movs	r3, #3
 8001196:	f001 fd8b 	bl	8002cb0 <HAL_I2C_Master_Transmit>
 800119a:	4603      	mov	r3, r0
 800119c:	73fb      	strb	r3, [r7, #15]
 800119e:	bf00      	nop
 80011a0:	7bfb      	ldrb	r3, [r7, #15]
 80011a2:	2b00      	cmp	r3, #0
 80011a4:	d001      	beq.n	80011aa <MCP4725_writeComand+0xc4>
 80011a6:	2300      	movs	r3, #0
 80011a8:	e019      	b.n	80011de <MCP4725_writeComand+0xf8>
 80011aa:	787b      	ldrb	r3, [r7, #1]
 80011ac:	2b60      	cmp	r3, #96	; 0x60
 80011ae:	d115      	bne.n	80011dc <MCP4725_writeComand+0xf6>
 80011b0:	6878      	ldr	r0, [r7, #4]
 80011b2:	f7ff ff7b 	bl	80010ac <MCP4725_getEepromBusyFlag>
 80011b6:	4603      	mov	r3, r0
 80011b8:	2b01      	cmp	r3, #1
 80011ba:	d101      	bne.n	80011c0 <MCP4725_writeComand+0xda>
 80011bc:	2301      	movs	r3, #1
 80011be:	e00e      	b.n	80011de <MCP4725_writeComand+0xf8>
 80011c0:	2019      	movs	r0, #25
 80011c2:	f001 f949 	bl	8002458 <HAL_Delay>
 80011c6:	6878      	ldr	r0, [r7, #4]
 80011c8:	f7ff ff70 	bl	80010ac <MCP4725_getEepromBusyFlag>
 80011cc:	4603      	mov	r3, r0
 80011ce:	2b01      	cmp	r3, #1
 80011d0:	d101      	bne.n	80011d6 <MCP4725_writeComand+0xf0>
 80011d2:	2301      	movs	r3, #1
 80011d4:	e003      	b.n	80011de <MCP4725_writeComand+0xf8>
 80011d6:	2019      	movs	r0, #25
 80011d8:	f001 f93e 	bl	8002458 <HAL_Delay>
 80011dc:	2301      	movs	r3, #1
 80011de:	4618      	mov	r0, r3
 80011e0:	3710      	adds	r7, #16
 80011e2:	46bd      	mov	sp, r7
 80011e4:	bd80      	pop	{r7, pc}

080011e6 <MCP4725_readRegister>:
 80011e6:	e92d 43f0 	stmdb	sp!, {r4, r5, r6, r7, r8, r9, lr}
 80011ea:	b089      	sub	sp, #36	; 0x24
 80011ec:	af02      	add	r7, sp, #8
 80011ee:	6078      	str	r0, [r7, #4]
 80011f0:	460b      	mov	r3, r1
 80011f2:	70fb      	strb	r3, [r7, #3]
 80011f4:	466b      	mov	r3, sp
 80011f6:	461e      	mov	r6, r3
 80011f8:	78fb      	ldrb	r3, [r7, #3]
 80011fa:	82bb      	strh	r3, [r7, #20]
 80011fc:	2300      	movs	r3, #0
 80011fe:	82fb      	strh	r3, [r7, #22]
 8001200:	78f9      	ldrb	r1, [r7, #3]
 8001202:	460b      	mov	r3, r1
 8001204:	3b01      	subs	r3, #1
 8001206:	613b      	str	r3, [r7, #16]
 8001208:	b2cb      	uxtb	r3, r1
 800120a:	2200      	movs	r2, #0
 800120c:	4698      	mov	r8, r3
 800120e:	4691      	mov	r9, r2
 8001210:	f04f 0200 	mov.w	r2, #0
 8001214:	f04f 0300 	mov.w	r3, #0
 8001218:	ea4f 03c9 	mov.w	r3, r9, lsl #3
 800121c:	ea43 7358 	orr.w	r3, r3, r8, lsr #29
 8001220:	ea4f 02c8 	mov.w	r2, r8, lsl #3
 8001224:	b2cb      	uxtb	r3, r1
 8001226:	2200      	movs	r2, #0
 8001228:	461c      	mov	r4, r3
 800122a:	4615      	mov	r5, r2
 800122c:	f04f 0200 	mov.w	r2, #0
 8001230:	f04f 0300 	mov.w	r3, #0
 8001234:	00eb      	lsls	r3, r5, #3
 8001236:	ea43 7354 	orr.w	r3, r3, r4, lsr #29
 800123a:	00e2      	lsls	r2, r4, #3
 800123c:	460b      	mov	r3, r1
 800123e:	3307      	adds	r3, #7
 8001240:	08db      	lsrs	r3, r3, #3
 8001242:	00db      	lsls	r3, r3, #3
 8001244:	ebad 0d03 	sub.w	sp, sp, r3
 8001248:	ab02      	add	r3, sp, #8
 800124a:	3300      	adds	r3, #0
 800124c:	60fb      	str	r3, [r7, #12]
 800124e:	687b      	ldr	r3, [r7, #4]
 8001250:	6818      	ldr	r0, [r3, #0]
 8001252:	687b      	ldr	r3, [r7, #4]
 8001254:	791b      	ldrb	r3, [r3, #4]
 8001256:	b299      	uxth	r1, r3
 8001258:	78fb      	ldrb	r3, [r7, #3]
 800125a:	b29b      	uxth	r3, r3
 800125c:	f44f 727a 	mov.w	r2, #1000	; 0x3e8
 8001260:	9200      	str	r2, [sp, #0]
 8001262:	68fa      	ldr	r2, [r7, #12]
 8001264:	f001 fe22 	bl	8002eac <HAL_I2C_Master_Receive>
 8001268:	4603      	mov	r3, r0
 800126a:	72fb      	strb	r3, [r7, #11]
 800126c:	7afb      	ldrb	r3, [r7, #11]
 800126e:	2b00      	cmp	r3, #0
 8001270:	d002      	beq.n	8001278 <MCP4725_readRegister+0x92>
 8001272:	f64f 73ff 	movw	r3, #65535	; 0xffff
 8001276:	e01f      	b.n	80012b8 <MCP4725_readRegister+0xd2>
 8001278:	78fb      	ldrb	r3, [r7, #3]
 800127a:	2b05      	cmp	r3, #5
 800127c:	d00a      	beq.n	8001294 <MCP4725_readRegister+0xae>
 800127e:	2b05      	cmp	r3, #5
 8001280:	dc19      	bgt.n	80012b6 <MCP4725_readRegister+0xd0>
 8001282:	2b01      	cmp	r3, #1
 8001284:	d002      	beq.n	800128c <MCP4725_readRegister+0xa6>
 8001286:	2b03      	cmp	r3, #3
 8001288:	d004      	beq.n	8001294 <MCP4725_readRegister+0xae>
 800128a:	e014      	b.n	80012b6 <MCP4725_readRegister+0xd0>
 800128c:	68fb      	ldr	r3, [r7, #12]
 800128e:	781b      	ldrb	r3, [r3, #0]
 8001290:	82fb      	strh	r3, [r7, #22]
 8001292:	e010      	b.n	80012b6 <MCP4725_readRegister+0xd0>
 8001294:	8abb      	ldrh	r3, [r7, #20]
 8001296:	3b02      	subs	r3, #2
 8001298:	68fa      	ldr	r2, [r7, #12]
 800129a:	5cd3      	ldrb	r3, [r2, r3]
 800129c:	82fb      	strh	r3, [r7, #22]
 800129e:	8afb      	ldrh	r3, [r7, #22]
 80012a0:	021b      	lsls	r3, r3, #8
 80012a2:	b21a      	sxth	r2, r3
 80012a4:	8abb      	ldrh	r3, [r7, #20]
 80012a6:	3b01      	subs	r3, #1
 80012a8:	68f9      	ldr	r1, [r7, #12]
 80012aa:	5ccb      	ldrb	r3, [r1, r3]
 80012ac:	b21b      	sxth	r3, r3
 80012ae:	4313      	orrs	r3, r2
 80012b0:	b21b      	sxth	r3, r3
 80012b2:	82fb      	strh	r3, [r7, #22]
 80012b4:	bf00      	nop
 80012b6:	8afb      	ldrh	r3, [r7, #22]
 80012b8:	46b5      	mov	sp, r6
 80012ba:	4618      	mov	r0, r3
 80012bc:	371c      	adds	r7, #28
 80012be:	46bd      	mov	sp, r7
 80012c0:	e8bd 83f0 	ldmia.w	sp!, {r4, r5, r6, r7, r8, r9, pc}

080012c4 <map>:
/* USER CODE END PFP */

/* Private user code ---------------------------------------------------------*/
/* USER CODE BEGIN 0 */

int map(int x, int in_min, int in_max, int out_min, int out_max) {
 80012c4:	b480      	push	{r7}
 80012c6:	b085      	sub	sp, #20
 80012c8:	af00      	add	r7, sp, #0
 80012ca:	60f8      	str	r0, [r7, #12]
 80012cc:	60b9      	str	r1, [r7, #8]
 80012ce:	607a      	str	r2, [r7, #4]
 80012d0:	603b      	str	r3, [r7, #0]
	return (x - in_min) * (out_max - out_min) / (in_max - in_min) + out_min;
 80012d2:	68fa      	ldr	r2, [r7, #12]
 80012d4:	68bb      	ldr	r3, [r7, #8]
 80012d6:	1ad3      	subs	r3, r2, r3
 80012d8:	69b9      	ldr	r1, [r7, #24]
 80012da:	683a      	ldr	r2, [r7, #0]
 80012dc:	1a8a      	subs	r2, r1, r2
 80012de:	fb03 f202 	mul.w	r2, r3, r2
 80012e2:	6879      	ldr	r1, [r7, #4]
 80012e4:	68bb      	ldr	r3, [r7, #8]
 80012e6:	1acb      	subs	r3, r1, r3
 80012e8:	fb92 f2f3 	sdiv	r2, r2, r3
 80012ec:	683b      	ldr	r3, [r7, #0]
 80012ee:	4413      	add	r3, r2
}
 80012f0:	4618      	mov	r0, r3
 80012f2:	3714      	adds	r7, #20
 80012f4:	46bd      	mov	sp, r7
 80012f6:	bc80      	pop	{r7}
 80012f8:	4770      	bx	lr
	...

080012fc <HAL_TIM_IC_CaptureCallback>:

void HAL_TIM_IC_CaptureCallback(TIM_HandleTypeDef *htim) {
 80012fc:	e92d 0fb0 	stmdb	sp!, {r4, r5, r7, r8, r9, sl, fp}
 8001300:	b095      	sub	sp, #84	; 0x54
 8001302:	af00      	add	r7, sp, #0
 8001304:	64f8      	str	r0, [r7, #76]	; 0x4c
	if (htim->Instance == TIM2) {
 8001306:	6cfb      	ldr	r3, [r7, #76]	; 0x4c
 8001308:	681b      	ldr	r3, [r3, #0]
 800130a:	f1b3 4f80 	cmp.w	r3, #1073741824	; 0x40000000
 800130e:	f040 8192 	bne.w	8001636 <HAL_TIM_IC_CaptureCallback+0x33a>
		switch (htim->Channel) {
 8001312:	6cfb      	ldr	r3, [r7, #76]	; 0x4c
 8001314:	7f1b      	ldrb	r3, [r3, #28]
 8001316:	3b01      	subs	r3, #1
 8001318:	2b07      	cmp	r3, #7
 800131a:	f200 818e 	bhi.w	800163a <HAL_TIM_IC_CaptureCallback+0x33e>
 800131e:	a201      	add	r2, pc, #4	; (adr r2, 8001324 <HAL_TIM_IC_CaptureCallback+0x28>)
 8001320:	f852 f023 	ldr.w	pc, [r2, r3, lsl #2]
 8001324:	08001345 	.word	0x08001345
 8001328:	080013f9 	.word	0x080013f9
 800132c:	0800163b 	.word	0x0800163b
 8001330:	080014a7 	.word	0x080014a7
 8001334:	0800163b 	.word	0x0800163b
 8001338:	0800163b 	.word	0x0800163b
 800133c:	0800163b 	.word	0x0800163b
 8001340:	08001555 	.word	0x08001555
		case HAL_TIM_ACTIVE_CHANNEL_1:
			// Kanal 1 iin ilemler
			if ((TIM2->CCER & TIM_CCER_CC1P) == 0) {
 8001344:	f04f 4380 	mov.w	r3, #1073741824	; 0x40000000
 8001348:	6a1b      	ldr	r3, [r3, #32]
 800134a:	f003 0302 	and.w	r3, r3, #2
 800134e:	2b00      	cmp	r3, #0
 8001350:	d113      	bne.n	800137a <HAL_TIM_IC_CaptureCallback+0x7e>
				ch1_rising = TIM2->CCR1; // yukselen kenar degerini kaydet
 8001352:	f04f 4380 	mov.w	r3, #1073741824	; 0x40000000
 8001356:	6b5b      	ldr	r3, [r3, #52]	; 0x34
 8001358:	2200      	movs	r2, #0
 800135a:	643b      	str	r3, [r7, #64]	; 0x40
 800135c:	647a      	str	r2, [r7, #68]	; 0x44
 800135e:	4b8b      	ldr	r3, [pc, #556]	; (800158c <HAL_TIM_IC_CaptureCallback+0x290>)
 8001360:	e9d7 1210 	ldrd	r1, r2, [r7, #64]	; 0x40
 8001364:	e9c3 1200 	strd	r1, r2, [r3]
				TIM2->CCER |= TIM_CCER_CC1P; // polariteyi dsen kenar olarak degistir
 8001368:	f04f 4380 	mov.w	r3, #1073741824	; 0x40000000
 800136c:	6a1b      	ldr	r3, [r3, #32]
 800136e:	f04f 4280 	mov.w	r2, #1073741824	; 0x40000000
 8001372:	f043 0302 	orr.w	r3, r3, #2
 8001376:	6213      	str	r3, [r2, #32]
				if (pre_ch1 < 2010 && pre_ch1 > 990) {
					ch1 = pre_ch1;
				}
				TIM2->CCER &= ~TIM_CCER_CC1P; // polariteyi yukselen kenar olarak ayarla
			}
			break;
 8001378:	e160      	b.n	800163c <HAL_TIM_IC_CaptureCallback+0x340>
				ch1_falling = TIM2->CCR1;
 800137a:	f04f 4380 	mov.w	r3, #1073741824	; 0x40000000
 800137e:	6b5b      	ldr	r3, [r3, #52]	; 0x34
 8001380:	2200      	movs	r2, #0
 8001382:	63bb      	str	r3, [r7, #56]	; 0x38
 8001384:	63fa      	str	r2, [r7, #60]	; 0x3c
 8001386:	4b82      	ldr	r3, [pc, #520]	; (8001590 <HAL_TIM_IC_CaptureCallback+0x294>)
 8001388:	e9d7 120e 	ldrd	r1, r2, [r7, #56]	; 0x38
 800138c:	e9c3 1200 	strd	r1, r2, [r3]
				pre_ch1 = ch1_falling - ch1_rising; // dusen kenar degerini kaydet ve yukselen kenar degerinden cikar
 8001390:	4b7f      	ldr	r3, [pc, #508]	; (8001590 <HAL_TIM_IC_CaptureCallback+0x294>)
 8001392:	e9d3 0100 	ldrd	r0, r1, [r3]
 8001396:	4b7d      	ldr	r3, [pc, #500]	; (800158c <HAL_TIM_IC_CaptureCallback+0x290>)
 8001398:	e9d3 2300 	ldrd	r2, r3, [r3]
 800139c:	1a84      	subs	r4, r0, r2
 800139e:	633c      	str	r4, [r7, #48]	; 0x30
 80013a0:	eb61 0303 	sbc.w	r3, r1, r3
 80013a4:	637b      	str	r3, [r7, #52]	; 0x34
 80013a6:	4b7b      	ldr	r3, [pc, #492]	; (8001594 <HAL_TIM_IC_CaptureCallback+0x298>)
 80013a8:	e9d7 120c 	ldrd	r1, r2, [r7, #48]	; 0x30
 80013ac:	e9c3 1200 	strd	r1, r2, [r3]
				if (pre_ch1 < 0) {
 80013b0:	4b78      	ldr	r3, [pc, #480]	; (8001594 <HAL_TIM_IC_CaptureCallback+0x298>)
 80013b2:	e9d3 2300 	ldrd	r2, r3, [r3]
				if (pre_ch1 < 2010 && pre_ch1 > 990) {
 80013b6:	4b77      	ldr	r3, [pc, #476]	; (8001594 <HAL_TIM_IC_CaptureCallback+0x298>)
 80013b8:	e9d3 2300 	ldrd	r2, r3, [r3]
 80013bc:	f240 71da 	movw	r1, #2010	; 0x7da
 80013c0:	428a      	cmp	r2, r1
 80013c2:	f173 0300 	sbcs.w	r3, r3, #0
 80013c6:	d20e      	bcs.n	80013e6 <HAL_TIM_IC_CaptureCallback+0xea>
 80013c8:	4b72      	ldr	r3, [pc, #456]	; (8001594 <HAL_TIM_IC_CaptureCallback+0x298>)
 80013ca:	e9d3 2300 	ldrd	r2, r3, [r3]
 80013ce:	f240 31df 	movw	r1, #991	; 0x3df
 80013d2:	428a      	cmp	r2, r1
 80013d4:	f173 0300 	sbcs.w	r3, r3, #0
 80013d8:	d305      	bcc.n	80013e6 <HAL_TIM_IC_CaptureCallback+0xea>
					ch1 = pre_ch1;
 80013da:	4b6e      	ldr	r3, [pc, #440]	; (8001594 <HAL_TIM_IC_CaptureCallback+0x298>)
 80013dc:	e9d3 2300 	ldrd	r2, r3, [r3]
 80013e0:	496d      	ldr	r1, [pc, #436]	; (8001598 <HAL_TIM_IC_CaptureCallback+0x29c>)
 80013e2:	e9c1 2300 	strd	r2, r3, [r1]
				TIM2->CCER &= ~TIM_CCER_CC1P; // polariteyi yukselen kenar olarak ayarla
 80013e6:	f04f 4380 	mov.w	r3, #1073741824	; 0x40000000
 80013ea:	6a1b      	ldr	r3, [r3, #32]
 80013ec:	f04f 4280 	mov.w	r2, #1073741824	; 0x40000000
 80013f0:	f023 0302 	bic.w	r3, r3, #2
 80013f4:	6213      	str	r3, [r2, #32]
			break;
 80013f6:	e121      	b.n	800163c <HAL_TIM_IC_CaptureCallback+0x340>
		case HAL_TIM_ACTIVE_CHANNEL_2:
			// Kanal 2 iin ilemler
			if ((TIM2->CCER & TIM_CCER_CC2P) == 0) {
 80013f8:	f04f 4380 	mov.w	r3, #1073741824	; 0x40000000
 80013fc:	6a1b      	ldr	r3, [r3, #32]
 80013fe:	f003 0320 	and.w	r3, r3, #32
 8001402:	2b00      	cmp	r3, #0
 8001404:	d113      	bne.n	800142e <HAL_TIM_IC_CaptureCallback+0x132>
				ch2_rising = TIM2->CCR2; // yukselen kenar degerini kaydet
 8001406:	f04f 4380 	mov.w	r3, #1073741824	; 0x40000000
 800140a:	6b9b      	ldr	r3, [r3, #56]	; 0x38
 800140c:	2200      	movs	r2, #0
 800140e:	62bb      	str	r3, [r7, #40]	; 0x28
 8001410:	62fa      	str	r2, [r7, #44]	; 0x2c
 8001412:	4b62      	ldr	r3, [pc, #392]	; (800159c <HAL_TIM_IC_CaptureCallback+0x2a0>)
 8001414:	e9d7 120a 	ldrd	r1, r2, [r7, #40]	; 0x28
 8001418:	e9c3 1200 	strd	r1, r2, [r3]
				TIM2->CCER |= TIM_CCER_CC2P; // polariteyi dsen kenar olarak degistir
 800141c:	f04f 4380 	mov.w	r3, #1073741824	; 0x40000000
 8001420:	6a1b      	ldr	r3, [r3, #32]
 8001422:	f04f 4280 	mov.w	r2, #1073741824	; 0x40000000
 8001426:	f043 0320 	orr.w	r3, r3, #32
 800142a:	6213      	str	r3, [r2, #32]
					ch2 = pre_ch2;
				}
				TIM2->CCER &= ~TIM_CCER_CC2P; // polariteyi yukselen kenar olarak ayarla
			}

			break;
 800142c:	e106      	b.n	800163c <HAL_TIM_IC_CaptureCallback+0x340>
				ch2_falling = TIM2->CCR2;
 800142e:	f04f 4380 	mov.w	r3, #1073741824	; 0x40000000
 8001432:	6b9b      	ldr	r3, [r3, #56]	; 0x38
 8001434:	2200      	movs	r2, #0
 8001436:	623b      	str	r3, [r7, #32]
 8001438:	627a      	str	r2, [r7, #36]	; 0x24
 800143a:	4b59      	ldr	r3, [pc, #356]	; (80015a0 <HAL_TIM_IC_CaptureCallback+0x2a4>)
 800143c:	e9d7 1208 	ldrd	r1, r2, [r7, #32]
 8001440:	e9c3 1200 	strd	r1, r2, [r3]
				pre_ch2 = ch2_falling - ch2_rising; // dusen kenar degerini kaydet ve yukselen kenar degerinden cikar
 8001444:	4b56      	ldr	r3, [pc, #344]	; (80015a0 <HAL_TIM_IC_CaptureCallback+0x2a4>)
 8001446:	e9d3 0100 	ldrd	r0, r1, [r3]
 800144a:	4b54      	ldr	r3, [pc, #336]	; (800159c <HAL_TIM_IC_CaptureCallback+0x2a0>)
 800144c:	e9d3 2300 	ldrd	r2, r3, [r3]
 8001450:	ebb0 0a02 	subs.w	sl, r0, r2
 8001454:	eb61 0b03 	sbc.w	fp, r1, r3
 8001458:	4b52      	ldr	r3, [pc, #328]	; (80015a4 <HAL_TIM_IC_CaptureCallback+0x2a8>)
 800145a:	e9c3 ab00 	strd	sl, fp, [r3]
				if (pre_ch2 < 0) {
 800145e:	4b51      	ldr	r3, [pc, #324]	; (80015a4 <HAL_TIM_IC_CaptureCallback+0x2a8>)
 8001460:	e9d3 2300 	ldrd	r2, r3, [r3]
				if (pre_ch2 < 2010 && pre_ch2 > 990) {
 8001464:	4b4f      	ldr	r3, [pc, #316]	; (80015a4 <HAL_TIM_IC_CaptureCallback+0x2a8>)
 8001466:	e9d3 2300 	ldrd	r2, r3, [r3]
 800146a:	f240 71da 	movw	r1, #2010	; 0x7da
 800146e:	428a      	cmp	r2, r1
 8001470:	f173 0300 	sbcs.w	r3, r3, #0
 8001474:	d20e      	bcs.n	8001494 <HAL_TIM_IC_CaptureCallback+0x198>
 8001476:	4b4b      	ldr	r3, [pc, #300]	; (80015a4 <HAL_TIM_IC_CaptureCallback+0x2a8>)
 8001478:	e9d3 2300 	ldrd	r2, r3, [r3]
 800147c:	f240 31df 	movw	r1, #991	; 0x3df
 8001480:	428a      	cmp	r2, r1
 8001482:	f173 0300 	sbcs.w	r3, r3, #0
 8001486:	d305      	bcc.n	8001494 <HAL_TIM_IC_CaptureCallback+0x198>
					ch2 = pre_ch2;
 8001488:	4b46      	ldr	r3, [pc, #280]	; (80015a4 <HAL_TIM_IC_CaptureCallback+0x2a8>)
 800148a:	e9d3 2300 	ldrd	r2, r3, [r3]
 800148e:	4946      	ldr	r1, [pc, #280]	; (80015a8 <HAL_TIM_IC_CaptureCallback+0x2ac>)
 8001490:	e9c1 2300 	strd	r2, r3, [r1]
				TIM2->CCER &= ~TIM_CCER_CC2P; // polariteyi yukselen kenar olarak ayarla
 8001494:	f04f 4380 	mov.w	r3, #1073741824	; 0x40000000
 8001498:	6a1b      	ldr	r3, [r3, #32]
 800149a:	f04f 4280 	mov.w	r2, #1073741824	; 0x40000000
 800149e:	f023 0320 	bic.w	r3, r3, #32
 80014a2:	6213      	str	r3, [r2, #32]
			break;
 80014a4:	e0ca      	b.n	800163c <HAL_TIM_IC_CaptureCallback+0x340>
		case HAL_TIM_ACTIVE_CHANNEL_3:
			// Kanal 3 iin ilemler
			if ((TIM2->CCER & TIM_CCER_CC3P) == 0) {
 80014a6:	f04f 4380 	mov.w	r3, #1073741824	; 0x40000000
 80014aa:	6a1b      	ldr	r3, [r3, #32]
 80014ac:	f403 7300 	and.w	r3, r3, #512	; 0x200
 80014b0:	2b00      	cmp	r3, #0
 80014b2:	d113      	bne.n	80014dc <HAL_TIM_IC_CaptureCallback+0x1e0>
				ch3_rising = TIM2->CCR3; // yukselen kenar degerini kaydet
 80014b4:	f04f 4380 	mov.w	r3, #1073741824	; 0x40000000
 80014b8:	6bdb      	ldr	r3, [r3, #60]	; 0x3c
 80014ba:	2200      	movs	r2, #0
 80014bc:	61bb      	str	r3, [r7, #24]
 80014be:	61fa      	str	r2, [r7, #28]
 80014c0:	4b3a      	ldr	r3, [pc, #232]	; (80015ac <HAL_TIM_IC_CaptureCallback+0x2b0>)
 80014c2:	e9d7 1206 	ldrd	r1, r2, [r7, #24]
 80014c6:	e9c3 1200 	strd	r1, r2, [r3]
				TIM2->CCER |= TIM_CCER_CC3P; // polariteyi dsen kenar olarak degistir
 80014ca:	f04f 4380 	mov.w	r3, #1073741824	; 0x40000000
 80014ce:	6a1b      	ldr	r3, [r3, #32]
 80014d0:	f04f 4280 	mov.w	r2, #1073741824	; 0x40000000
 80014d4:	f443 7300 	orr.w	r3, r3, #512	; 0x200
 80014d8:	6213      	str	r3, [r2, #32]
					ch3 = pre_ch3;
				}
				TIM2->CCER &= ~TIM_CCER_CC3P; // polariteyi yukselen kenar olarak ayarla
			}

			break;
 80014da:	e0af      	b.n	800163c <HAL_TIM_IC_CaptureCallback+0x340>
				ch3_falling = TIM2->CCR3;
 80014dc:	f04f 4380 	mov.w	r3, #1073741824	; 0x40000000
 80014e0:	6bdb      	ldr	r3, [r3, #60]	; 0x3c
 80014e2:	2200      	movs	r2, #0
 80014e4:	613b      	str	r3, [r7, #16]
 80014e6:	617a      	str	r2, [r7, #20]
 80014e8:	4b31      	ldr	r3, [pc, #196]	; (80015b0 <HAL_TIM_IC_CaptureCallback+0x2b4>)
 80014ea:	e9d7 1204 	ldrd	r1, r2, [r7, #16]
 80014ee:	e9c3 1200 	strd	r1, r2, [r3]
				pre_ch3 = ch3_falling - ch3_rising; // dusen kenar degerini kaydet ve yukselen kenar degerinden cikar
 80014f2:	4b2f      	ldr	r3, [pc, #188]	; (80015b0 <HAL_TIM_IC_CaptureCallback+0x2b4>)
 80014f4:	e9d3 0100 	ldrd	r0, r1, [r3]
 80014f8:	4b2c      	ldr	r3, [pc, #176]	; (80015ac <HAL_TIM_IC_CaptureCallback+0x2b0>)
 80014fa:	e9d3 2300 	ldrd	r2, r3, [r3]
 80014fe:	ebb0 0802 	subs.w	r8, r0, r2
 8001502:	eb61 0903 	sbc.w	r9, r1, r3
 8001506:	4b2b      	ldr	r3, [pc, #172]	; (80015b4 <HAL_TIM_IC_CaptureCallback+0x2b8>)
 8001508:	e9c3 8900 	strd	r8, r9, [r3]
				if (pre_ch3 < 0) {
 800150c:	4b29      	ldr	r3, [pc, #164]	; (80015b4 <HAL_TIM_IC_CaptureCallback+0x2b8>)
 800150e:	e9d3 2300 	ldrd	r2, r3, [r3]
				if (pre_ch3 < 2010 && pre_ch3 > 990) {
 8001512:	4b28      	ldr	r3, [pc, #160]	; (80015b4 <HAL_TIM_IC_CaptureCallback+0x2b8>)
 8001514:	e9d3 2300 	ldrd	r2, r3, [r3]
 8001518:	f240 71da 	movw	r1, #2010	; 0x7da
 800151c:	428a      	cmp	r2, r1
 800151e:	f173 0300 	sbcs.w	r3, r3, #0
 8001522:	d20e      	bcs.n	8001542 <HAL_TIM_IC_CaptureCallback+0x246>
 8001524:	4b23      	ldr	r3, [pc, #140]	; (80015b4 <HAL_TIM_IC_CaptureCallback+0x2b8>)
 8001526:	e9d3 2300 	ldrd	r2, r3, [r3]
 800152a:	f240 31df 	movw	r1, #991	; 0x3df
 800152e:	428a      	cmp	r2, r1
 8001530:	f173 0300 	sbcs.w	r3, r3, #0
 8001534:	d305      	bcc.n	8001542 <HAL_TIM_IC_CaptureCallback+0x246>
					ch3 = pre_ch3;
 8001536:	4b1f      	ldr	r3, [pc, #124]	; (80015b4 <HAL_TIM_IC_CaptureCallback+0x2b8>)
 8001538:	e9d3 2300 	ldrd	r2, r3, [r3]
 800153c:	491e      	ldr	r1, [pc, #120]	; (80015b8 <HAL_TIM_IC_CaptureCallback+0x2bc>)
 800153e:	e9c1 2300 	strd	r2, r3, [r1]
				TIM2->CCER &= ~TIM_CCER_CC3P; // polariteyi yukselen kenar olarak ayarla
 8001542:	f04f 4380 	mov.w	r3, #1073741824	; 0x40000000
 8001546:	6a1b      	ldr	r3, [r3, #32]
 8001548:	f04f 4280 	mov.w	r2, #1073741824	; 0x40000000
 800154c:	f423 7300 	bic.w	r3, r3, #512	; 0x200
 8001550:	6213      	str	r3, [r2, #32]
			break;
 8001552:	e073      	b.n	800163c <HAL_TIM_IC_CaptureCallback+0x340>
		case HAL_TIM_ACTIVE_CHANNEL_4:
			// Kanal 4 iin ilemler
			if ((TIM2->CCER & TIM_CCER_CC4P) == 0) {
 8001554:	f04f 4380 	mov.w	r3, #1073741824	; 0x40000000
 8001558:	6a1b      	ldr	r3, [r3, #32]
 800155a:	f403 5300 	and.w	r3, r3, #8192	; 0x2000
 800155e:	2b00      	cmp	r3, #0
 8001560:	d12e      	bne.n	80015c0 <HAL_TIM_IC_CaptureCallback+0x2c4>
				ch4_rising = TIM2->CCR4; // yukselen kenar degerini kaydet
 8001562:	f04f 4380 	mov.w	r3, #1073741824	; 0x40000000
 8001566:	6c1b      	ldr	r3, [r3, #64]	; 0x40
 8001568:	2200      	movs	r2, #0
 800156a:	60bb      	str	r3, [r7, #8]
 800156c:	60fa      	str	r2, [r7, #12]
 800156e:	4b13      	ldr	r3, [pc, #76]	; (80015bc <HAL_TIM_IC_CaptureCallback+0x2c0>)
 8001570:	e9d7 1202 	ldrd	r1, r2, [r7, #8]
 8001574:	e9c3 1200 	strd	r1, r2, [r3]
				TIM2->CCER |= TIM_CCER_CC4P; // polariteyi dsen kenar olarak degistir
 8001578:	f04f 4380 	mov.w	r3, #1073741824	; 0x40000000
 800157c:	6a1b      	ldr	r3, [r3, #32]
 800157e:	f04f 4280 	mov.w	r2, #1073741824	; 0x40000000
 8001582:	f443 5300 	orr.w	r3, r3, #8192	; 0x2000
 8001586:	6213      	str	r3, [r2, #32]
					ch4 = pre_ch4;
				}
				TIM2->CCER &= ~TIM_CCER_CC4P; // polariteyi yukselen kenar olarak ayarla
			}

			break;
 8001588:	e058      	b.n	800163c <HAL_TIM_IC_CaptureCallback+0x340>
 800158a:	bf00      	nop
 800158c:	20000168 	.word	0x20000168
 8001590:	20000170 	.word	0x20000170
 8001594:	20000180 	.word	0x20000180
 8001598:	20000178 	.word	0x20000178
 800159c:	20000188 	.word	0x20000188
 80015a0:	20000190 	.word	0x20000190
 80015a4:	200001a0 	.word	0x200001a0
 80015a8:	20000198 	.word	0x20000198
 80015ac:	200001a8 	.word	0x200001a8
 80015b0:	200001b0 	.word	0x200001b0
 80015b4:	200001c0 	.word	0x200001c0
 80015b8:	200001b8 	.word	0x200001b8
 80015bc:	200001c8 	.word	0x200001c8
				ch4_falling = TIM2->CCR4;
 80015c0:	f04f 4380 	mov.w	r3, #1073741824	; 0x40000000
 80015c4:	6c1b      	ldr	r3, [r3, #64]	; 0x40
 80015c6:	2200      	movs	r2, #0
 80015c8:	603b      	str	r3, [r7, #0]
 80015ca:	607a      	str	r2, [r7, #4]
 80015cc:	4b1e      	ldr	r3, [pc, #120]	; (8001648 <HAL_TIM_IC_CaptureCallback+0x34c>)
 80015ce:	e9d7 1200 	ldrd	r1, r2, [r7]
 80015d2:	e9c3 1200 	strd	r1, r2, [r3]
				pre_ch4 = ch4_falling - ch4_rising; // dusen kenar degerini kaydet ve yukselen kenar degerinden cikar
 80015d6:	4b1c      	ldr	r3, [pc, #112]	; (8001648 <HAL_TIM_IC_CaptureCallback+0x34c>)
 80015d8:	e9d3 0100 	ldrd	r0, r1, [r3]
 80015dc:	4b1b      	ldr	r3, [pc, #108]	; (800164c <HAL_TIM_IC_CaptureCallback+0x350>)
 80015de:	e9d3 2300 	ldrd	r2, r3, [r3]
 80015e2:	1a84      	subs	r4, r0, r2
 80015e4:	eb61 0503 	sbc.w	r5, r1, r3
 80015e8:	4b19      	ldr	r3, [pc, #100]	; (8001650 <HAL_TIM_IC_CaptureCallback+0x354>)
 80015ea:	e9c3 4500 	strd	r4, r5, [r3]
				if (pre_ch4 < 0) {
 80015ee:	4b18      	ldr	r3, [pc, #96]	; (8001650 <HAL_TIM_IC_CaptureCallback+0x354>)
 80015f0:	e9d3 2300 	ldrd	r2, r3, [r3]
				if (pre_ch4 < 2010 && pre_ch4 > 990) {
 80015f4:	4b16      	ldr	r3, [pc, #88]	; (8001650 <HAL_TIM_IC_CaptureCallback+0x354>)
 80015f6:	e9d3 2300 	ldrd	r2, r3, [r3]
 80015fa:	f240 71da 	movw	r1, #2010	; 0x7da
 80015fe:	428a      	cmp	r2, r1
 8001600:	f173 0300 	sbcs.w	r3, r3, #0
 8001604:	d20e      	bcs.n	8001624 <HAL_TIM_IC_CaptureCallback+0x328>
 8001606:	4b12      	ldr	r3, [pc, #72]	; (8001650 <HAL_TIM_IC_CaptureCallback+0x354>)
 8001608:	e9d3 2300 	ldrd	r2, r3, [r3]
 800160c:	f240 31df 	movw	r1, #991	; 0x3df
 8001610:	428a      	cmp	r2, r1
 8001612:	f173 0300 	sbcs.w	r3, r3, #0
 8001616:	d305      	bcc.n	8001624 <HAL_TIM_IC_CaptureCallback+0x328>
					ch4 = pre_ch4;
 8001618:	4b0d      	ldr	r3, [pc, #52]	; (8001650 <HAL_TIM_IC_CaptureCallback+0x354>)
 800161a:	e9d3 2300 	ldrd	r2, r3, [r3]
 800161e:	490d      	ldr	r1, [pc, #52]	; (8001654 <HAL_TIM_IC_CaptureCallback+0x358>)
 8001620:	e9c1 2300 	strd	r2, r3, [r1]
				TIM2->CCER &= ~TIM_CCER_CC4P; // polariteyi yukselen kenar olarak ayarla
 8001624:	f04f 4380 	mov.w	r3, #1073741824	; 0x40000000
 8001628:	6a1b      	ldr	r3, [r3, #32]
 800162a:	f04f 4280 	mov.w	r2, #1073741824	; 0x40000000
 800162e:	f423 5300 	bic.w	r3, r3, #8192	; 0x2000
 8001632:	6213      	str	r3, [r2, #32]
			break;
 8001634:	e002      	b.n	800163c <HAL_TIM_IC_CaptureCallback+0x340>
		default:
			break;
		}
	}
 8001636:	bf00      	nop
 8001638:	e000      	b.n	800163c <HAL_TIM_IC_CaptureCallback+0x340>
			break;
 800163a:	bf00      	nop
}
 800163c:	bf00      	nop
 800163e:	3754      	adds	r7, #84	; 0x54
 8001640:	46bd      	mov	sp, r7
 8001642:	e8bd 0fb0 	ldmia.w	sp!, {r4, r5, r7, r8, r9, sl, fp}
 8001646:	4770      	bx	lr
 8001648:	200001d0 	.word	0x200001d0
 800164c:	200001c8 	.word	0x200001c8
 8001650:	200001e0 	.word	0x200001e0
 8001654:	200001d8 	.word	0x200001d8

08001658 <main>:
/**
  * @brief  The application entry point.
  * @retval int
  */
int main(void)
{
 8001658:	b5b0      	push	{r4, r5, r7, lr}
 800165a:	b086      	sub	sp, #24
 800165c:	af02      	add	r7, sp, #8
  /* USER CODE END 1 */

  /* MCU Configuration--------------------------------------------------------*/

  /* Reset of all peripherals, Initializes the Flash interface and the Systick. */
  HAL_Init();
 800165e:	f000 fe99 	bl	8002394 <HAL_Init>
  /* USER CODE BEGIN Init */

  /* USER CODE END Init */

  /* Configure the system clock */
  SystemClock_Config();
 8001662:	f000 faa3 	bl	8001bac <SystemClock_Config>
  /* USER CODE BEGIN SysInit */

  /* USER CODE END SysInit */

  /* Initialize all configured peripherals */
  MX_GPIO_Init();
 8001666:	f000 fc81 	bl	8001f6c <MX_GPIO_Init>
  MX_TIM1_Init();
 800166a:	f000 fb41 	bl	8001cf0 <MX_TIM1_Init>
  MX_TIM2_Init();
 800166e:	f000 fbed 	bl	8001e4c <MX_TIM2_Init>
  MX_I2C1_Init();
 8001672:	f000 fae1 	bl	8001c38 <MX_I2C1_Init>
  MX_I2C2_Init();
 8001676:	f000 fb0d 	bl	8001c94 <MX_I2C2_Init>
  /* USER CODE BEGIN 2 */
    LeftMCP4725 = MCP4725_init(&hi2c1, MCP4725A0_ADDR_A00, 4.57);
 800167a:	4ca3      	ldr	r4, [pc, #652]	; (8001908 <main+0x2b0>)
 800167c:	4638      	mov	r0, r7
 800167e:	4ba3      	ldr	r3, [pc, #652]	; (800190c <main+0x2b4>)
 8001680:	2260      	movs	r2, #96	; 0x60
 8001682:	49a3      	ldr	r1, [pc, #652]	; (8001910 <main+0x2b8>)
 8001684:	f7ff fc9a 	bl	8000fbc <MCP4725_init>
 8001688:	463b      	mov	r3, r7
 800168a:	cb0f      	ldmia	r3, {r0, r1, r2, r3}
 800168c:	e884 000f 	stmia.w	r4, {r0, r1, r2, r3}
    RightMCP4725 = MCP4725_init(&hi2c1, MCP4725A0_ADDR_A01, 4.23);
 8001690:	4ca0      	ldr	r4, [pc, #640]	; (8001914 <main+0x2bc>)
 8001692:	4638      	mov	r0, r7
 8001694:	4ba0      	ldr	r3, [pc, #640]	; (8001918 <main+0x2c0>)
 8001696:	2261      	movs	r2, #97	; 0x61
 8001698:	499d      	ldr	r1, [pc, #628]	; (8001910 <main+0x2b8>)
 800169a:	f7ff fc8f 	bl	8000fbc <MCP4725_init>
 800169e:	463b      	mov	r3, r7
 80016a0:	cb0f      	ldmia	r3, {r0, r1, r2, r3}
 80016a2:	e884 000f 	stmia.w	r4, {r0, r1, r2, r3}

	HAL_TIM_IC_Start_IT(&htim2, TIM_CHANNEL_1);
 80016a6:	2100      	movs	r1, #0
 80016a8:	489c      	ldr	r0, [pc, #624]	; (800191c <main+0x2c4>)
 80016aa:	f003 f8bd 	bl	8004828 <HAL_TIM_IC_Start_IT>
	HAL_TIM_IC_Start_IT(&htim2, TIM_CHANNEL_2);
 80016ae:	2104      	movs	r1, #4
 80016b0:	489a      	ldr	r0, [pc, #616]	; (800191c <main+0x2c4>)
 80016b2:	f003 f8b9 	bl	8004828 <HAL_TIM_IC_Start_IT>
	HAL_TIM_IC_Start_IT(&htim2, TIM_CHANNEL_3);
 80016b6:	2108      	movs	r1, #8
 80016b8:	4898      	ldr	r0, [pc, #608]	; (800191c <main+0x2c4>)
 80016ba:	f003 f8b5 	bl	8004828 <HAL_TIM_IC_Start_IT>
	HAL_TIM_IC_Start_IT(&htim2, TIM_CHANNEL_4);
 80016be:	210c      	movs	r1, #12
 80016c0:	4896      	ldr	r0, [pc, #600]	; (800191c <main+0x2c4>)
 80016c2:	f003 f8b1 	bl	8004828 <HAL_TIM_IC_Start_IT>
	HAL_TIM_PWM_Start(&htim1, TIM_CHANNEL_1);
 80016c6:	2100      	movs	r1, #0
 80016c8:	4895      	ldr	r0, [pc, #596]	; (8001920 <main+0x2c8>)
 80016ca:	f002 ffb3 	bl	8004634 <HAL_TIM_PWM_Start>
	HAL_TIM_PWM_Start(&htim1, TIM_CHANNEL_2);
 80016ce:	2104      	movs	r1, #4
 80016d0:	4893      	ldr	r0, [pc, #588]	; (8001920 <main+0x2c8>)
 80016d2:	f002 ffaf 	bl	8004634 <HAL_TIM_PWM_Start>

	if (!MCP4725_isConnected(&LeftMCP4725) || !MCP4725_isConnected(&RightMCP4725)) {
 80016d6:	488c      	ldr	r0, [pc, #560]	; (8001908 <main+0x2b0>)
 80016d8:	f7ff fc8f 	bl	8000ffa <MCP4725_isConnected>
 80016dc:	4603      	mov	r3, r0
 80016de:	2b00      	cmp	r3, #0
 80016e0:	d005      	beq.n	80016ee <main+0x96>
 80016e2:	488c      	ldr	r0, [pc, #560]	; (8001914 <main+0x2bc>)
 80016e4:	f7ff fc89 	bl	8000ffa <MCP4725_isConnected>
 80016e8:	4603      	mov	r3, r0
 80016ea:	2b00      	cmp	r3, #0
 80016ec:	d108      	bne.n	8001700 <main+0xa8>
		HAL_GPIO_TogglePin(GPIOC, GPIO_PIN_13);
 80016ee:	f44f 5100 	mov.w	r1, #8192	; 0x2000
 80016f2:	488c      	ldr	r0, [pc, #560]	; (8001924 <main+0x2cc>)
 80016f4:	f001 f97e 	bl	80029f4 <HAL_GPIO_TogglePin>
		HAL_Delay(500);
 80016f8:	f44f 70fa 	mov.w	r0, #500	; 0x1f4
 80016fc:	f000 feac 	bl	8002458 <HAL_Delay>
  /* USER CODE BEGIN WHILE */
	while (1) {
    /* USER CODE END WHILE */

    /* USER CODE BEGIN 3 */
		if (ch3<=1500) {
 8001700:	4b89      	ldr	r3, [pc, #548]	; (8001928 <main+0x2d0>)
 8001702:	e9d3 2300 	ldrd	r2, r3, [r3]
 8001706:	f240 51dd 	movw	r1, #1501	; 0x5dd
 800170a:	428a      	cmp	r2, r1
 800170c:	f173 0300 	sbcs.w	r3, r3, #0
 8001710:	d212      	bcs.n	8001738 <main+0xe0>
			maxpoint = 1900;
 8001712:	4b86      	ldr	r3, [pc, #536]	; (800192c <main+0x2d4>)
 8001714:	f240 726c 	movw	r2, #1900	; 0x76c
 8001718:	601a      	str	r2, [r3, #0]
			midpoint = 1500;
 800171a:	4b85      	ldr	r3, [pc, #532]	; (8001930 <main+0x2d8>)
 800171c:	f240 52dc 	movw	r2, #1500	; 0x5dc
 8001720:	601a      	str	r2, [r3, #0]
			minpoint = 1100;
 8001722:	4b84      	ldr	r3, [pc, #528]	; (8001934 <main+0x2dc>)
 8001724:	f240 424c 	movw	r2, #1100	; 0x44c
 8001728:	601a      	str	r2, [r3, #0]
			deadband_scale=16;
 800172a:	4b83      	ldr	r3, [pc, #524]	; (8001938 <main+0x2e0>)
 800172c:	2210      	movs	r2, #16
 800172e:	601a      	str	r2, [r3, #0]
			motor_startup_deadband = 100;
 8001730:	4b82      	ldr	r3, [pc, #520]	; (800193c <main+0x2e4>)
 8001732:	2264      	movs	r2, #100	; 0x64
 8001734:	601a      	str	r2, [r3, #0]
 8001736:	e011      	b.n	800175c <main+0x104>
		} else {
			maxpoint = 1900;
 8001738:	4b7c      	ldr	r3, [pc, #496]	; (800192c <main+0x2d4>)
 800173a:	f240 726c 	movw	r2, #1900	; 0x76c
 800173e:	601a      	str	r2, [r3, #0]
			midpoint = 1700;
 8001740:	4b7b      	ldr	r3, [pc, #492]	; (8001930 <main+0x2d8>)
 8001742:	f240 62a4 	movw	r2, #1700	; 0x6a4
 8001746:	601a      	str	r2, [r3, #0]
			minpoint = 1500;
 8001748:	4b7a      	ldr	r3, [pc, #488]	; (8001934 <main+0x2dc>)
 800174a:	f240 52dc 	movw	r2, #1500	; 0x5dc
 800174e:	601a      	str	r2, [r3, #0]
			deadband_scale=32;
 8001750:	4b79      	ldr	r3, [pc, #484]	; (8001938 <main+0x2e0>)
 8001752:	2220      	movs	r2, #32
 8001754:	601a      	str	r2, [r3, #0]
			motor_startup_deadband = 100;
 8001756:	4b79      	ldr	r3, [pc, #484]	; (800193c <main+0x2e4>)
 8001758:	2264      	movs	r2, #100	; 0x64
 800175a:	601a      	str	r2, [r3, #0]
		}

		ch1_smooth -= ch1_smooth / 20.0;
 800175c:	4b78      	ldr	r3, [pc, #480]	; (8001940 <main+0x2e8>)
 800175e:	681b      	ldr	r3, [r3, #0]
 8001760:	4618      	mov	r0, r3
 8001762:	f7fe fe57 	bl	8000414 <__aeabi_f2d>
 8001766:	f04f 0200 	mov.w	r2, #0
 800176a:	4b76      	ldr	r3, [pc, #472]	; (8001944 <main+0x2ec>)
 800176c:	f7fe ffd4 	bl	8000718 <__aeabi_ddiv>
 8001770:	4602      	mov	r2, r0
 8001772:	460b      	mov	r3, r1
 8001774:	4614      	mov	r4, r2
 8001776:	461d      	mov	r5, r3
 8001778:	4b71      	ldr	r3, [pc, #452]	; (8001940 <main+0x2e8>)
 800177a:	681b      	ldr	r3, [r3, #0]
 800177c:	4618      	mov	r0, r3
 800177e:	f7fe fe49 	bl	8000414 <__aeabi_f2d>
 8001782:	4622      	mov	r2, r4
 8001784:	462b      	mov	r3, r5
 8001786:	f7fe fce5 	bl	8000154 <__aeabi_dsub>
 800178a:	4602      	mov	r2, r0
 800178c:	460b      	mov	r3, r1
 800178e:	4610      	mov	r0, r2
 8001790:	4619      	mov	r1, r3
 8001792:	f7ff f8a9 	bl	80008e8 <__aeabi_d2f>
 8001796:	4603      	mov	r3, r0
 8001798:	4a69      	ldr	r2, [pc, #420]	; (8001940 <main+0x2e8>)
 800179a:	6013      	str	r3, [r2, #0]
		ch1_smooth += ch1 / 20.0;
 800179c:	4b6a      	ldr	r3, [pc, #424]	; (8001948 <main+0x2f0>)
 800179e:	e9d3 2300 	ldrd	r2, r3, [r3]
 80017a2:	4610      	mov	r0, r2
 80017a4:	4619      	mov	r1, r3
 80017a6:	f7fe fe57 	bl	8000458 <__aeabi_ul2d>
 80017aa:	f04f 0200 	mov.w	r2, #0
 80017ae:	4b65      	ldr	r3, [pc, #404]	; (8001944 <main+0x2ec>)
 80017b0:	f7fe ffb2 	bl	8000718 <__aeabi_ddiv>
 80017b4:	4602      	mov	r2, r0
 80017b6:	460b      	mov	r3, r1
 80017b8:	4614      	mov	r4, r2
 80017ba:	461d      	mov	r5, r3
 80017bc:	4b60      	ldr	r3, [pc, #384]	; (8001940 <main+0x2e8>)
 80017be:	681b      	ldr	r3, [r3, #0]
 80017c0:	4618      	mov	r0, r3
 80017c2:	f7fe fe27 	bl	8000414 <__aeabi_f2d>
 80017c6:	4602      	mov	r2, r0
 80017c8:	460b      	mov	r3, r1
 80017ca:	4620      	mov	r0, r4
 80017cc:	4629      	mov	r1, r5
 80017ce:	f7fe fcc3 	bl	8000158 <__adddf3>
 80017d2:	4602      	mov	r2, r0
 80017d4:	460b      	mov	r3, r1
 80017d6:	4610      	mov	r0, r2
 80017d8:	4619      	mov	r1, r3
 80017da:	f7ff f885 	bl	80008e8 <__aeabi_d2f>
 80017de:	4603      	mov	r3, r0
 80017e0:	4a57      	ldr	r2, [pc, #348]	; (8001940 <main+0x2e8>)
 80017e2:	6013      	str	r3, [r2, #0]

		ch2_smooth -= ch2_smooth / 20.0;
 80017e4:	4b59      	ldr	r3, [pc, #356]	; (800194c <main+0x2f4>)
 80017e6:	681b      	ldr	r3, [r3, #0]
 80017e8:	4618      	mov	r0, r3
 80017ea:	f7fe fe13 	bl	8000414 <__aeabi_f2d>
 80017ee:	f04f 0200 	mov.w	r2, #0
 80017f2:	4b54      	ldr	r3, [pc, #336]	; (8001944 <main+0x2ec>)
 80017f4:	f7fe ff90 	bl	8000718 <__aeabi_ddiv>
 80017f8:	4602      	mov	r2, r0
 80017fa:	460b      	mov	r3, r1
 80017fc:	4614      	mov	r4, r2
 80017fe:	461d      	mov	r5, r3
 8001800:	4b52      	ldr	r3, [pc, #328]	; (800194c <main+0x2f4>)
 8001802:	681b      	ldr	r3, [r3, #0]
 8001804:	4618      	mov	r0, r3
 8001806:	f7fe fe05 	bl	8000414 <__aeabi_f2d>
 800180a:	4622      	mov	r2, r4
 800180c:	462b      	mov	r3, r5
 800180e:	f7fe fca1 	bl	8000154 <__aeabi_dsub>
 8001812:	4602      	mov	r2, r0
 8001814:	460b      	mov	r3, r1
 8001816:	4610      	mov	r0, r2
 8001818:	4619      	mov	r1, r3
 800181a:	f7ff f865 	bl	80008e8 <__aeabi_d2f>
 800181e:	4603      	mov	r3, r0
 8001820:	4a4a      	ldr	r2, [pc, #296]	; (800194c <main+0x2f4>)
 8001822:	6013      	str	r3, [r2, #0]
		ch2_smooth += ch2 / 20.0;
 8001824:	4b4a      	ldr	r3, [pc, #296]	; (8001950 <main+0x2f8>)
 8001826:	e9d3 2300 	ldrd	r2, r3, [r3]
 800182a:	4610      	mov	r0, r2
 800182c:	4619      	mov	r1, r3
 800182e:	f7fe fe13 	bl	8000458 <__aeabi_ul2d>
 8001832:	f04f 0200 	mov.w	r2, #0
 8001836:	4b43      	ldr	r3, [pc, #268]	; (8001944 <main+0x2ec>)
 8001838:	f7fe ff6e 	bl	8000718 <__aeabi_ddiv>
 800183c:	4602      	mov	r2, r0
 800183e:	460b      	mov	r3, r1
 8001840:	4614      	mov	r4, r2
 8001842:	461d      	mov	r5, r3
 8001844:	4b41      	ldr	r3, [pc, #260]	; (800194c <main+0x2f4>)
 8001846:	681b      	ldr	r3, [r3, #0]
 8001848:	4618      	mov	r0, r3
 800184a:	f7fe fde3 	bl	8000414 <__aeabi_f2d>
 800184e:	4602      	mov	r2, r0
 8001850:	460b      	mov	r3, r1
 8001852:	4620      	mov	r0, r4
 8001854:	4629      	mov	r1, r5
 8001856:	f7fe fc7f 	bl	8000158 <__adddf3>
 800185a:	4602      	mov	r2, r0
 800185c:	460b      	mov	r3, r1
 800185e:	4610      	mov	r0, r2
 8001860:	4619      	mov	r1, r3
 8001862:	f7ff f841 	bl	80008e8 <__aeabi_d2f>
 8001866:	4603      	mov	r3, r0
 8001868:	4a38      	ldr	r2, [pc, #224]	; (800194c <main+0x2f4>)
 800186a:	6013      	str	r3, [r2, #0]

		left_output = (ch2_smooth + (ch1_smooth - 1500));
 800186c:	4b34      	ldr	r3, [pc, #208]	; (8001940 <main+0x2e8>)
 800186e:	681b      	ldr	r3, [r3, #0]
 8001870:	4938      	ldr	r1, [pc, #224]	; (8001954 <main+0x2fc>)
 8001872:	4618      	mov	r0, r3
 8001874:	f7ff f88c 	bl	8000990 <__aeabi_fsub>
 8001878:	4603      	mov	r3, r0
 800187a:	461a      	mov	r2, r3
 800187c:	4b33      	ldr	r3, [pc, #204]	; (800194c <main+0x2f4>)
 800187e:	681b      	ldr	r3, [r3, #0]
 8001880:	4619      	mov	r1, r3
 8001882:	4610      	mov	r0, r2
 8001884:	f7ff f886 	bl	8000994 <__addsf3>
 8001888:	4603      	mov	r3, r0
 800188a:	4618      	mov	r0, r3
 800188c:	f7ff fb50 	bl	8000f30 <__aeabi_f2iz>
 8001890:	4603      	mov	r3, r0
 8001892:	4a31      	ldr	r2, [pc, #196]	; (8001958 <main+0x300>)
 8001894:	6013      	str	r3, [r2, #0]
		if (left_output < midpoint - (deadband_scale / 4))
 8001896:	4b28      	ldr	r3, [pc, #160]	; (8001938 <main+0x2e0>)
 8001898:	681b      	ldr	r3, [r3, #0]
 800189a:	2b00      	cmp	r3, #0
 800189c:	da00      	bge.n	80018a0 <main+0x248>
 800189e:	3303      	adds	r3, #3
 80018a0:	109b      	asrs	r3, r3, #2
 80018a2:	425b      	negs	r3, r3
 80018a4:	461a      	mov	r2, r3
 80018a6:	4b22      	ldr	r3, [pc, #136]	; (8001930 <main+0x2d8>)
 80018a8:	681b      	ldr	r3, [r3, #0]
 80018aa:	441a      	add	r2, r3
 80018ac:	4b2a      	ldr	r3, [pc, #168]	; (8001958 <main+0x300>)
 80018ae:	681b      	ldr	r3, [r3, #0]
 80018b0:	429a      	cmp	r2, r3
 80018b2:	dd05      	ble.n	80018c0 <main+0x268>
			HAL_GPIO_WritePin(GPIOA, left_motor_direction_Pin, SET);
 80018b4:	2201      	movs	r2, #1
 80018b6:	2120      	movs	r1, #32
 80018b8:	4828      	ldr	r0, [pc, #160]	; (800195c <main+0x304>)
 80018ba:	f001 f883 	bl	80029c4 <HAL_GPIO_WritePin>
 80018be:	e004      	b.n	80018ca <main+0x272>
		else
			HAL_GPIO_WritePin(GPIOA, left_motor_direction_Pin, RESET);
 80018c0:	2200      	movs	r2, #0
 80018c2:	2120      	movs	r1, #32
 80018c4:	4825      	ldr	r0, [pc, #148]	; (800195c <main+0x304>)
 80018c6:	f001 f87d 	bl	80029c4 <HAL_GPIO_WritePin>

		if (abs(left_output - midpoint) < deadband_scale)
 80018ca:	4b23      	ldr	r3, [pc, #140]	; (8001958 <main+0x300>)
 80018cc:	681a      	ldr	r2, [r3, #0]
 80018ce:	4b18      	ldr	r3, [pc, #96]	; (8001930 <main+0x2d8>)
 80018d0:	681b      	ldr	r3, [r3, #0]
 80018d2:	1ad3      	subs	r3, r2, r3
 80018d4:	ea83 72e3 	eor.w	r2, r3, r3, asr #31
 80018d8:	eba2 72e3 	sub.w	r2, r2, r3, asr #31
 80018dc:	4b16      	ldr	r3, [pc, #88]	; (8001938 <main+0x2e0>)
 80018de:	681b      	ldr	r3, [r3, #0]
 80018e0:	429a      	cmp	r2, r3
 80018e2:	da03      	bge.n	80018ec <main+0x294>
			left_output = midpoint;  //orta lbant  (abs() -> mutlak deer)
 80018e4:	4b12      	ldr	r3, [pc, #72]	; (8001930 <main+0x2d8>)
 80018e6:	681b      	ldr	r3, [r3, #0]
 80018e8:	4a1b      	ldr	r2, [pc, #108]	; (8001958 <main+0x300>)
 80018ea:	6013      	str	r3, [r2, #0]
		if (left_output > maxpoint - deadband_scale)
 80018ec:	4b0f      	ldr	r3, [pc, #60]	; (800192c <main+0x2d4>)
 80018ee:	681a      	ldr	r2, [r3, #0]
 80018f0:	4b11      	ldr	r3, [pc, #68]	; (8001938 <main+0x2e0>)
 80018f2:	681b      	ldr	r3, [r3, #0]
 80018f4:	1ad2      	subs	r2, r2, r3
 80018f6:	4b18      	ldr	r3, [pc, #96]	; (8001958 <main+0x300>)
 80018f8:	681b      	ldr	r3, [r3, #0]
 80018fa:	429a      	cmp	r2, r3
 80018fc:	da30      	bge.n	8001960 <main+0x308>
			left_output = maxpoint;       //max 500
 80018fe:	4b0b      	ldr	r3, [pc, #44]	; (800192c <main+0x2d4>)
 8001900:	681b      	ldr	r3, [r3, #0]
 8001902:	4a15      	ldr	r2, [pc, #84]	; (8001958 <main+0x300>)
 8001904:	6013      	str	r3, [r2, #0]
 8001906:	e038      	b.n	800197a <main+0x322>
 8001908:	20000214 	.word	0x20000214
 800190c:	40923d71 	.word	0x40923d71
 8001910:	2000002c 	.word	0x2000002c
 8001914:	20000224 	.word	0x20000224
 8001918:	40875c29 	.word	0x40875c29
 800191c:	2000011c 	.word	0x2000011c
 8001920:	200000d4 	.word	0x200000d4
 8001924:	40011000 	.word	0x40011000
 8001928:	200001b8 	.word	0x200001b8
 800192c:	200001ec 	.word	0x200001ec
 8001930:	200001f0 	.word	0x200001f0
 8001934:	200001f4 	.word	0x200001f4
 8001938:	200001e8 	.word	0x200001e8
 800193c:	200001f8 	.word	0x200001f8
 8001940:	20000204 	.word	0x20000204
 8001944:	40340000 	.word	0x40340000
 8001948:	20000178 	.word	0x20000178
 800194c:	20000208 	.word	0x20000208
 8001950:	20000198 	.word	0x20000198
 8001954:	44bb8000 	.word	0x44bb8000
 8001958:	200001fc 	.word	0x200001fc
 800195c:	40010800 	.word	0x40010800
		else if (left_output < minpoint + deadband_scale)
 8001960:	4b83      	ldr	r3, [pc, #524]	; (8001b70 <main+0x518>)
 8001962:	681a      	ldr	r2, [r3, #0]
 8001964:	4b83      	ldr	r3, [pc, #524]	; (8001b74 <main+0x51c>)
 8001966:	681b      	ldr	r3, [r3, #0]
 8001968:	441a      	add	r2, r3
 800196a:	4b83      	ldr	r3, [pc, #524]	; (8001b78 <main+0x520>)
 800196c:	681b      	ldr	r3, [r3, #0]
 800196e:	429a      	cmp	r2, r3
 8001970:	dd03      	ble.n	800197a <main+0x322>
			left_output = minpoint;  //min -500
 8001972:	4b7f      	ldr	r3, [pc, #508]	; (8001b70 <main+0x518>)
 8001974:	681b      	ldr	r3, [r3, #0]
 8001976:	4a80      	ldr	r2, [pc, #512]	; (8001b78 <main+0x520>)
 8001978:	6013      	str	r3, [r2, #0]

		right_output = (ch2_smooth - (ch1_smooth - 1500));
 800197a:	4b80      	ldr	r3, [pc, #512]	; (8001b7c <main+0x524>)
 800197c:	681c      	ldr	r4, [r3, #0]
 800197e:	4b80      	ldr	r3, [pc, #512]	; (8001b80 <main+0x528>)
 8001980:	681b      	ldr	r3, [r3, #0]
 8001982:	4980      	ldr	r1, [pc, #512]	; (8001b84 <main+0x52c>)
 8001984:	4618      	mov	r0, r3
 8001986:	f7ff f803 	bl	8000990 <__aeabi_fsub>
 800198a:	4603      	mov	r3, r0
 800198c:	4619      	mov	r1, r3
 800198e:	4620      	mov	r0, r4
 8001990:	f7fe fffe 	bl	8000990 <__aeabi_fsub>
 8001994:	4603      	mov	r3, r0
 8001996:	4618      	mov	r0, r3
 8001998:	f7ff faca 	bl	8000f30 <__aeabi_f2iz>
 800199c:	4603      	mov	r3, r0
 800199e:	4a7a      	ldr	r2, [pc, #488]	; (8001b88 <main+0x530>)
 80019a0:	6013      	str	r3, [r2, #0]
		if (right_output < midpoint - (deadband_scale / 4))
 80019a2:	4b74      	ldr	r3, [pc, #464]	; (8001b74 <main+0x51c>)
 80019a4:	681b      	ldr	r3, [r3, #0]
 80019a6:	2b00      	cmp	r3, #0
 80019a8:	da00      	bge.n	80019ac <main+0x354>
 80019aa:	3303      	adds	r3, #3
 80019ac:	109b      	asrs	r3, r3, #2
 80019ae:	425b      	negs	r3, r3
 80019b0:	461a      	mov	r2, r3
 80019b2:	4b76      	ldr	r3, [pc, #472]	; (8001b8c <main+0x534>)
 80019b4:	681b      	ldr	r3, [r3, #0]
 80019b6:	441a      	add	r2, r3
 80019b8:	4b73      	ldr	r3, [pc, #460]	; (8001b88 <main+0x530>)
 80019ba:	681b      	ldr	r3, [r3, #0]
 80019bc:	429a      	cmp	r2, r3
 80019be:	dd05      	ble.n	80019cc <main+0x374>
			HAL_GPIO_WritePin(GPIOA, right_motor_direction_Pin, SET);
 80019c0:	2201      	movs	r2, #1
 80019c2:	2110      	movs	r1, #16
 80019c4:	4872      	ldr	r0, [pc, #456]	; (8001b90 <main+0x538>)
 80019c6:	f000 fffd 	bl	80029c4 <HAL_GPIO_WritePin>
 80019ca:	e004      	b.n	80019d6 <main+0x37e>
		else
			HAL_GPIO_WritePin(GPIOA, right_motor_direction_Pin, RESET);
 80019cc:	2200      	movs	r2, #0
 80019ce:	2110      	movs	r1, #16
 80019d0:	486f      	ldr	r0, [pc, #444]	; (8001b90 <main+0x538>)
 80019d2:	f000 fff7 	bl	80029c4 <HAL_GPIO_WritePin>

		if (abs(right_output - midpoint) < deadband_scale)
 80019d6:	4b6c      	ldr	r3, [pc, #432]	; (8001b88 <main+0x530>)
 80019d8:	681a      	ldr	r2, [r3, #0]
 80019da:	4b6c      	ldr	r3, [pc, #432]	; (8001b8c <main+0x534>)
 80019dc:	681b      	ldr	r3, [r3, #0]
 80019de:	1ad3      	subs	r3, r2, r3
 80019e0:	ea83 72e3 	eor.w	r2, r3, r3, asr #31
 80019e4:	eba2 72e3 	sub.w	r2, r2, r3, asr #31
 80019e8:	4b62      	ldr	r3, [pc, #392]	; (8001b74 <main+0x51c>)
 80019ea:	681b      	ldr	r3, [r3, #0]
 80019ec:	429a      	cmp	r2, r3
 80019ee:	da03      	bge.n	80019f8 <main+0x3a0>
			right_output = midpoint;  //orta lbant  (abs() -> mutlak deer)
 80019f0:	4b66      	ldr	r3, [pc, #408]	; (8001b8c <main+0x534>)
 80019f2:	681b      	ldr	r3, [r3, #0]
 80019f4:	4a64      	ldr	r2, [pc, #400]	; (8001b88 <main+0x530>)
 80019f6:	6013      	str	r3, [r2, #0]
		if (right_output > maxpoint - deadband_scale)
 80019f8:	4b66      	ldr	r3, [pc, #408]	; (8001b94 <main+0x53c>)
 80019fa:	681a      	ldr	r2, [r3, #0]
 80019fc:	4b5d      	ldr	r3, [pc, #372]	; (8001b74 <main+0x51c>)
 80019fe:	681b      	ldr	r3, [r3, #0]
 8001a00:	1ad2      	subs	r2, r2, r3
 8001a02:	4b61      	ldr	r3, [pc, #388]	; (8001b88 <main+0x530>)
 8001a04:	681b      	ldr	r3, [r3, #0]
 8001a06:	429a      	cmp	r2, r3
 8001a08:	da04      	bge.n	8001a14 <main+0x3bc>
			right_output = maxpoint;       //max 500
 8001a0a:	4b62      	ldr	r3, [pc, #392]	; (8001b94 <main+0x53c>)
 8001a0c:	681b      	ldr	r3, [r3, #0]
 8001a0e:	4a5e      	ldr	r2, [pc, #376]	; (8001b88 <main+0x530>)
 8001a10:	6013      	str	r3, [r2, #0]
 8001a12:	e00c      	b.n	8001a2e <main+0x3d6>
		else if (right_output < minpoint + deadband_scale)
 8001a14:	4b56      	ldr	r3, [pc, #344]	; (8001b70 <main+0x518>)
 8001a16:	681a      	ldr	r2, [r3, #0]
 8001a18:	4b56      	ldr	r3, [pc, #344]	; (8001b74 <main+0x51c>)
 8001a1a:	681b      	ldr	r3, [r3, #0]
 8001a1c:	441a      	add	r2, r3
 8001a1e:	4b5a      	ldr	r3, [pc, #360]	; (8001b88 <main+0x530>)
 8001a20:	681b      	ldr	r3, [r3, #0]
 8001a22:	429a      	cmp	r2, r3
 8001a24:	dd03      	ble.n	8001a2e <main+0x3d6>
			right_output = minpoint;  //min -500
 8001a26:	4b52      	ldr	r3, [pc, #328]	; (8001b70 <main+0x518>)
 8001a28:	681b      	ldr	r3, [r3, #0]
 8001a2a:	4a57      	ldr	r2, [pc, #348]	; (8001b88 <main+0x530>)
 8001a2c:	6013      	str	r3, [r2, #0]

		if (left_output == midpoint && right_output == midpoint)
 8001a2e:	4b52      	ldr	r3, [pc, #328]	; (8001b78 <main+0x520>)
 8001a30:	681a      	ldr	r2, [r3, #0]
 8001a32:	4b56      	ldr	r3, [pc, #344]	; (8001b8c <main+0x534>)
 8001a34:	681b      	ldr	r3, [r3, #0]
 8001a36:	429a      	cmp	r2, r3
 8001a38:	d10b      	bne.n	8001a52 <main+0x3fa>
 8001a3a:	4b53      	ldr	r3, [pc, #332]	; (8001b88 <main+0x530>)
 8001a3c:	681a      	ldr	r2, [r3, #0]
 8001a3e:	4b53      	ldr	r3, [pc, #332]	; (8001b8c <main+0x534>)
 8001a40:	681b      	ldr	r3, [r3, #0]
 8001a42:	429a      	cmp	r2, r3
 8001a44:	d105      	bne.n	8001a52 <main+0x3fa>
			HAL_GPIO_WritePin(GPIOA, handbrake_Pin, SET);
 8001a46:	2201      	movs	r2, #1
 8001a48:	2140      	movs	r1, #64	; 0x40
 8001a4a:	4851      	ldr	r0, [pc, #324]	; (8001b90 <main+0x538>)
 8001a4c:	f000 ffba 	bl	80029c4 <HAL_GPIO_WritePin>
 8001a50:	e004      	b.n	8001a5c <main+0x404>
		else
			HAL_GPIO_WritePin(GPIOA, handbrake_Pin, RESET);
 8001a52:	2200      	movs	r2, #0
 8001a54:	2140      	movs	r1, #64	; 0x40
 8001a56:	484e      	ldr	r0, [pc, #312]	; (8001b90 <main+0x538>)
 8001a58:	f000 ffb4 	bl	80029c4 <HAL_GPIO_WritePin>
		if(ch4>=1500)
 8001a5c:	4b4e      	ldr	r3, [pc, #312]	; (8001b98 <main+0x540>)
 8001a5e:	e9d3 2300 	ldrd	r2, r3, [r3]
 8001a62:	f240 51dc 	movw	r1, #1500	; 0x5dc
 8001a66:	428a      	cmp	r2, r1
 8001a68:	f173 0300 	sbcs.w	r3, r3, #0
 8001a6c:	d304      	bcc.n	8001a78 <main+0x420>
		{
			HAL_GPIO_WritePin(GPIOA, handbrake_Pin, SET);
 8001a6e:	2201      	movs	r2, #1
 8001a70:	2140      	movs	r1, #64	; 0x40
 8001a72:	4847      	ldr	r0, [pc, #284]	; (8001b90 <main+0x538>)
 8001a74:	f000 ffa6 	bl	80029c4 <HAL_GPIO_WritePin>
		}

		if (left_output >= midpoint)
 8001a78:	4b3f      	ldr	r3, [pc, #252]	; (8001b78 <main+0x520>)
 8001a7a:	681a      	ldr	r2, [r3, #0]
 8001a7c:	4b43      	ldr	r3, [pc, #268]	; (8001b8c <main+0x534>)
 8001a7e:	681b      	ldr	r3, [r3, #0]
 8001a80:	429a      	cmp	r2, r3
 8001a82:	db0f      	blt.n	8001aa4 <main+0x44c>
			left_motor_pwm = map(left_output, midpoint, maxpoint, 0, 1000);
 8001a84:	4b3c      	ldr	r3, [pc, #240]	; (8001b78 <main+0x520>)
 8001a86:	6818      	ldr	r0, [r3, #0]
 8001a88:	4b40      	ldr	r3, [pc, #256]	; (8001b8c <main+0x534>)
 8001a8a:	6819      	ldr	r1, [r3, #0]
 8001a8c:	4b41      	ldr	r3, [pc, #260]	; (8001b94 <main+0x53c>)
 8001a8e:	681a      	ldr	r2, [r3, #0]
 8001a90:	f44f 737a 	mov.w	r3, #1000	; 0x3e8
 8001a94:	9300      	str	r3, [sp, #0]
 8001a96:	2300      	movs	r3, #0
 8001a98:	f7ff fc14 	bl	80012c4 <map>
 8001a9c:	4603      	mov	r3, r0
 8001a9e:	4a3f      	ldr	r2, [pc, #252]	; (8001b9c <main+0x544>)
 8001aa0:	6013      	str	r3, [r2, #0]
 8001aa2:	e013      	b.n	8001acc <main+0x474>
		else
			left_motor_pwm = abs(
					map(left_output, minpoint, midpoint, 0, 1000) - 1000);
 8001aa4:	4b34      	ldr	r3, [pc, #208]	; (8001b78 <main+0x520>)
 8001aa6:	6818      	ldr	r0, [r3, #0]
 8001aa8:	4b31      	ldr	r3, [pc, #196]	; (8001b70 <main+0x518>)
 8001aaa:	6819      	ldr	r1, [r3, #0]
 8001aac:	4b37      	ldr	r3, [pc, #220]	; (8001b8c <main+0x534>)
 8001aae:	681a      	ldr	r2, [r3, #0]
 8001ab0:	f44f 737a 	mov.w	r3, #1000	; 0x3e8
 8001ab4:	9300      	str	r3, [sp, #0]
 8001ab6:	2300      	movs	r3, #0
 8001ab8:	f7ff fc04 	bl	80012c4 <map>
 8001abc:	4603      	mov	r3, r0
 8001abe:	f5a3 737a 	sub.w	r3, r3, #1000	; 0x3e8
			left_motor_pwm = abs(
 8001ac2:	2b00      	cmp	r3, #0
 8001ac4:	bfb8      	it	lt
 8001ac6:	425b      	neglt	r3, r3
 8001ac8:	4a34      	ldr	r2, [pc, #208]	; (8001b9c <main+0x544>)
 8001aca:	6013      	str	r3, [r2, #0]

		if (right_output >= midpoint)
 8001acc:	4b2e      	ldr	r3, [pc, #184]	; (8001b88 <main+0x530>)
 8001ace:	681a      	ldr	r2, [r3, #0]
 8001ad0:	4b2e      	ldr	r3, [pc, #184]	; (8001b8c <main+0x534>)
 8001ad2:	681b      	ldr	r3, [r3, #0]
 8001ad4:	429a      	cmp	r2, r3
 8001ad6:	db0f      	blt.n	8001af8 <main+0x4a0>
			right_motor_pwm = map(right_output, midpoint, maxpoint,0, 1000);
 8001ad8:	4b2b      	ldr	r3, [pc, #172]	; (8001b88 <main+0x530>)
 8001ada:	6818      	ldr	r0, [r3, #0]
 8001adc:	4b2b      	ldr	r3, [pc, #172]	; (8001b8c <main+0x534>)
 8001ade:	6819      	ldr	r1, [r3, #0]
 8001ae0:	4b2c      	ldr	r3, [pc, #176]	; (8001b94 <main+0x53c>)
 8001ae2:	681a      	ldr	r2, [r3, #0]
 8001ae4:	f44f 737a 	mov.w	r3, #1000	; 0x3e8
 8001ae8:	9300      	str	r3, [sp, #0]
 8001aea:	2300      	movs	r3, #0
 8001aec:	f7ff fbea 	bl	80012c4 <map>
 8001af0:	4603      	mov	r3, r0
 8001af2:	4a2b      	ldr	r2, [pc, #172]	; (8001ba0 <main+0x548>)
 8001af4:	6013      	str	r3, [r2, #0]
 8001af6:	e013      	b.n	8001b20 <main+0x4c8>
		else
			right_motor_pwm = abs(
					map(right_output, minpoint, midpoint, 0, 1000) - 1000);
 8001af8:	4b23      	ldr	r3, [pc, #140]	; (8001b88 <main+0x530>)
 8001afa:	6818      	ldr	r0, [r3, #0]
 8001afc:	4b1c      	ldr	r3, [pc, #112]	; (8001b70 <main+0x518>)
 8001afe:	6819      	ldr	r1, [r3, #0]
 8001b00:	4b22      	ldr	r3, [pc, #136]	; (8001b8c <main+0x534>)
 8001b02:	681a      	ldr	r2, [r3, #0]
 8001b04:	f44f 737a 	mov.w	r3, #1000	; 0x3e8
 8001b08:	9300      	str	r3, [sp, #0]
 8001b0a:	2300      	movs	r3, #0
 8001b0c:	f7ff fbda 	bl	80012c4 <map>
 8001b10:	4603      	mov	r3, r0
 8001b12:	f5a3 737a 	sub.w	r3, r3, #1000	; 0x3e8
			right_motor_pwm = abs(
 8001b16:	2b00      	cmp	r3, #0
 8001b18:	bfb8      	it	lt
 8001b1a:	425b      	neglt	r3, r3
 8001b1c:	4a20      	ldr	r2, [pc, #128]	; (8001ba0 <main+0x548>)
 8001b1e:	6013      	str	r3, [r2, #0]


		//i2c ile balatlm srcnn bufferndan output verilecek
		MCP4725_setValue(&LeftMCP4725, (uint16_t) (map(left_motor_pwm, 0, 1000, 0, 4095)), MCP4725_FAST_MODE, MCP4725_POWER_DOWN_OFF);
 8001b20:	4b1e      	ldr	r3, [pc, #120]	; (8001b9c <main+0x544>)
 8001b22:	6818      	ldr	r0, [r3, #0]
 8001b24:	f640 73ff 	movw	r3, #4095	; 0xfff
 8001b28:	9300      	str	r3, [sp, #0]
 8001b2a:	2300      	movs	r3, #0
 8001b2c:	f44f 727a 	mov.w	r2, #1000	; 0x3e8
 8001b30:	2100      	movs	r1, #0
 8001b32:	f7ff fbc7 	bl	80012c4 <map>
 8001b36:	4603      	mov	r3, r0
 8001b38:	b299      	uxth	r1, r3
 8001b3a:	2300      	movs	r3, #0
 8001b3c:	2200      	movs	r2, #0
 8001b3e:	4819      	ldr	r0, [pc, #100]	; (8001ba4 <main+0x54c>)
 8001b40:	f7ff fa9c 	bl	800107c <MCP4725_setValue>
		MCP4725_setValue(&RightMCP4725, (uint16_t) (map(right_motor_pwm, 0, 1000, 0, 4095)), MCP4725_FAST_MODE, MCP4725_POWER_DOWN_OFF);
 8001b44:	4b16      	ldr	r3, [pc, #88]	; (8001ba0 <main+0x548>)
 8001b46:	6818      	ldr	r0, [r3, #0]
 8001b48:	f640 73ff 	movw	r3, #4095	; 0xfff
 8001b4c:	9300      	str	r3, [sp, #0]
 8001b4e:	2300      	movs	r3, #0
 8001b50:	f44f 727a 	mov.w	r2, #1000	; 0x3e8
 8001b54:	2100      	movs	r1, #0
 8001b56:	f7ff fbb5 	bl	80012c4 <map>
 8001b5a:	4603      	mov	r3, r0
 8001b5c:	b299      	uxth	r1, r3
 8001b5e:	2300      	movs	r3, #0
 8001b60:	2200      	movs	r2, #0
 8001b62:	4811      	ldr	r0, [pc, #68]	; (8001ba8 <main+0x550>)
 8001b64:	f7ff fa8a 	bl	800107c <MCP4725_setValue>

		//__HAL_TIM_SET_COMPARE(&htim1, TIM_CHANNEL_1, left_motor_pwm);
		//__HAL_TIM_SET_COMPARE(&htim1, TIM_CHANNEL_2, right_motor_pwm);

		HAL_Delay(20);
 8001b68:	2014      	movs	r0, #20
 8001b6a:	f000 fc75 	bl	8002458 <HAL_Delay>
		if (ch3<=1500) {
 8001b6e:	e5c7      	b.n	8001700 <main+0xa8>
 8001b70:	200001f4 	.word	0x200001f4
 8001b74:	200001e8 	.word	0x200001e8
 8001b78:	200001fc 	.word	0x200001fc
 8001b7c:	20000208 	.word	0x20000208
 8001b80:	20000204 	.word	0x20000204
 8001b84:	44bb8000 	.word	0x44bb8000
 8001b88:	20000200 	.word	0x20000200
 8001b8c:	200001f0 	.word	0x200001f0
 8001b90:	40010800 	.word	0x40010800
 8001b94:	200001ec 	.word	0x200001ec
 8001b98:	200001d8 	.word	0x200001d8
 8001b9c:	2000020c 	.word	0x2000020c
 8001ba0:	20000210 	.word	0x20000210
 8001ba4:	20000214 	.word	0x20000214
 8001ba8:	20000224 	.word	0x20000224

08001bac <SystemClock_Config>:
/**
  * @brief System Clock Configuration
  * @retval None
  */
void SystemClock_Config(void)
{
 8001bac:	b580      	push	{r7, lr}
 8001bae:	b090      	sub	sp, #64	; 0x40
 8001bb0:	af00      	add	r7, sp, #0
  RCC_OscInitTypeDef RCC_OscInitStruct = {0};
 8001bb2:	f107 0318 	add.w	r3, r7, #24
 8001bb6:	2228      	movs	r2, #40	; 0x28
 8001bb8:	2100      	movs	r1, #0
 8001bba:	4618      	mov	r0, r3
 8001bbc:	f003 ff2a 	bl	8005a14 <memset>
  RCC_ClkInitTypeDef RCC_ClkInitStruct = {0};
 8001bc0:	1d3b      	adds	r3, r7, #4
 8001bc2:	2200      	movs	r2, #0
 8001bc4:	601a      	str	r2, [r3, #0]
 8001bc6:	605a      	str	r2, [r3, #4]
 8001bc8:	609a      	str	r2, [r3, #8]
 8001bca:	60da      	str	r2, [r3, #12]
 8001bcc:	611a      	str	r2, [r3, #16]

  /** Initializes the RCC Oscillators according to the specified parameters
  * in the RCC_OscInitTypeDef structure.
  */
  RCC_OscInitStruct.OscillatorType = RCC_OSCILLATORTYPE_HSE;
 8001bce:	2301      	movs	r3, #1
 8001bd0:	61bb      	str	r3, [r7, #24]
  RCC_OscInitStruct.HSEState = RCC_HSE_ON;
 8001bd2:	f44f 3380 	mov.w	r3, #65536	; 0x10000
 8001bd6:	61fb      	str	r3, [r7, #28]
  RCC_OscInitStruct.HSEPredivValue = RCC_HSE_PREDIV_DIV1;
 8001bd8:	2300      	movs	r3, #0
 8001bda:	623b      	str	r3, [r7, #32]
  RCC_OscInitStruct.HSIState = RCC_HSI_ON;
 8001bdc:	2301      	movs	r3, #1
 8001bde:	62bb      	str	r3, [r7, #40]	; 0x28
  RCC_OscInitStruct.PLL.PLLState = RCC_PLL_ON;
 8001be0:	2302      	movs	r3, #2
 8001be2:	637b      	str	r3, [r7, #52]	; 0x34
  RCC_OscInitStruct.PLL.PLLSource = RCC_PLLSOURCE_HSE;
 8001be4:	f44f 3380 	mov.w	r3, #65536	; 0x10000
 8001be8:	63bb      	str	r3, [r7, #56]	; 0x38
  RCC_OscInitStruct.PLL.PLLMUL = RCC_PLL_MUL9;
 8001bea:	f44f 13e0 	mov.w	r3, #1835008	; 0x1c0000
 8001bee:	63fb      	str	r3, [r7, #60]	; 0x3c
  if (HAL_RCC_OscConfig(&RCC_OscInitStruct) != HAL_OK)
 8001bf0:	f107 0318 	add.w	r3, r7, #24
 8001bf4:	4618      	mov	r0, r3
 8001bf6:	f002 f879 	bl	8003cec <HAL_RCC_OscConfig>
 8001bfa:	4603      	mov	r3, r0
 8001bfc:	2b00      	cmp	r3, #0
 8001bfe:	d001      	beq.n	8001c04 <SystemClock_Config+0x58>
  {
    Error_Handler();
 8001c00:	f000 fa20 	bl	8002044 <Error_Handler>
  }

  /** Initializes the CPU, AHB and APB buses clocks
  */
  RCC_ClkInitStruct.ClockType = RCC_CLOCKTYPE_HCLK|RCC_CLOCKTYPE_SYSCLK
 8001c04:	230f      	movs	r3, #15
 8001c06:	607b      	str	r3, [r7, #4]
                              |RCC_CLOCKTYPE_PCLK1|RCC_CLOCKTYPE_PCLK2;
  RCC_ClkInitStruct.SYSCLKSource = RCC_SYSCLKSOURCE_PLLCLK;
 8001c08:	2302      	movs	r3, #2
 8001c0a:	60bb      	str	r3, [r7, #8]
  RCC_ClkInitStruct.AHBCLKDivider = RCC_SYSCLK_DIV1;
 8001c0c:	2300      	movs	r3, #0
 8001c0e:	60fb      	str	r3, [r7, #12]
  RCC_ClkInitStruct.APB1CLKDivider = RCC_HCLK_DIV2;
 8001c10:	f44f 6380 	mov.w	r3, #1024	; 0x400
 8001c14:	613b      	str	r3, [r7, #16]
  RCC_ClkInitStruct.APB2CLKDivider = RCC_HCLK_DIV1;
 8001c16:	2300      	movs	r3, #0
 8001c18:	617b      	str	r3, [r7, #20]

  if (HAL_RCC_ClockConfig(&RCC_ClkInitStruct, FLASH_LATENCY_2) != HAL_OK)
 8001c1a:	1d3b      	adds	r3, r7, #4
 8001c1c:	2102      	movs	r1, #2
 8001c1e:	4618      	mov	r0, r3
 8001c20:	f002 fae6 	bl	80041f0 <HAL_RCC_ClockConfig>
 8001c24:	4603      	mov	r3, r0
 8001c26:	2b00      	cmp	r3, #0
 8001c28:	d001      	beq.n	8001c2e <SystemClock_Config+0x82>
  {
    Error_Handler();
 8001c2a:	f000 fa0b 	bl	8002044 <Error_Handler>
  }
}
 8001c2e:	bf00      	nop
 8001c30:	3740      	adds	r7, #64	; 0x40
 8001c32:	46bd      	mov	sp, r7
 8001c34:	bd80      	pop	{r7, pc}
	...

08001c38 <MX_I2C1_Init>:
  * @brief I2C1 Initialization Function
  * @param None
  * @retval None
  */
static void MX_I2C1_Init(void)
{
 8001c38:	b580      	push	{r7, lr}
 8001c3a:	af00      	add	r7, sp, #0
  /* USER CODE END I2C1_Init 0 */

  /* USER CODE BEGIN I2C1_Init 1 */

  /* USER CODE END I2C1_Init 1 */
  hi2c1.Instance = I2C1;
 8001c3c:	4b12      	ldr	r3, [pc, #72]	; (8001c88 <MX_I2C1_Init+0x50>)
 8001c3e:	4a13      	ldr	r2, [pc, #76]	; (8001c8c <MX_I2C1_Init+0x54>)
 8001c40:	601a      	str	r2, [r3, #0]
  hi2c1.Init.ClockSpeed = 100000;
 8001c42:	4b11      	ldr	r3, [pc, #68]	; (8001c88 <MX_I2C1_Init+0x50>)
 8001c44:	4a12      	ldr	r2, [pc, #72]	; (8001c90 <MX_I2C1_Init+0x58>)
 8001c46:	605a      	str	r2, [r3, #4]
  hi2c1.Init.DutyCycle = I2C_DUTYCYCLE_2;
 8001c48:	4b0f      	ldr	r3, [pc, #60]	; (8001c88 <MX_I2C1_Init+0x50>)
 8001c4a:	2200      	movs	r2, #0
 8001c4c:	609a      	str	r2, [r3, #8]
  hi2c1.Init.OwnAddress1 = 0;
 8001c4e:	4b0e      	ldr	r3, [pc, #56]	; (8001c88 <MX_I2C1_Init+0x50>)
 8001c50:	2200      	movs	r2, #0
 8001c52:	60da      	str	r2, [r3, #12]
  hi2c1.Init.AddressingMode = I2C_ADDRESSINGMODE_7BIT;
 8001c54:	4b0c      	ldr	r3, [pc, #48]	; (8001c88 <MX_I2C1_Init+0x50>)
 8001c56:	f44f 4280 	mov.w	r2, #16384	; 0x4000
 8001c5a:	611a      	str	r2, [r3, #16]
  hi2c1.Init.DualAddressMode = I2C_DUALADDRESS_DISABLE;
 8001c5c:	4b0a      	ldr	r3, [pc, #40]	; (8001c88 <MX_I2C1_Init+0x50>)
 8001c5e:	2200      	movs	r2, #0
 8001c60:	615a      	str	r2, [r3, #20]
  hi2c1.Init.OwnAddress2 = 0;
 8001c62:	4b09      	ldr	r3, [pc, #36]	; (8001c88 <MX_I2C1_Init+0x50>)
 8001c64:	2200      	movs	r2, #0
 8001c66:	619a      	str	r2, [r3, #24]
  hi2c1.Init.GeneralCallMode = I2C_GENERALCALL_DISABLE;
 8001c68:	4b07      	ldr	r3, [pc, #28]	; (8001c88 <MX_I2C1_Init+0x50>)
 8001c6a:	2200      	movs	r2, #0
 8001c6c:	61da      	str	r2, [r3, #28]
  hi2c1.Init.NoStretchMode = I2C_NOSTRETCH_DISABLE;
 8001c6e:	4b06      	ldr	r3, [pc, #24]	; (8001c88 <MX_I2C1_Init+0x50>)
 8001c70:	2200      	movs	r2, #0
 8001c72:	621a      	str	r2, [r3, #32]
  if (HAL_I2C_Init(&hi2c1) != HAL_OK)
 8001c74:	4804      	ldr	r0, [pc, #16]	; (8001c88 <MX_I2C1_Init+0x50>)
 8001c76:	f000 fed7 	bl	8002a28 <HAL_I2C_Init>
 8001c7a:	4603      	mov	r3, r0
 8001c7c:	2b00      	cmp	r3, #0
 8001c7e:	d001      	beq.n	8001c84 <MX_I2C1_Init+0x4c>
  {
    Error_Handler();
 8001c80:	f000 f9e0 	bl	8002044 <Error_Handler>
  }
  /* USER CODE BEGIN I2C1_Init 2 */

  /* USER CODE END I2C1_Init 2 */

}
 8001c84:	bf00      	nop
 8001c86:	bd80      	pop	{r7, pc}
 8001c88:	2000002c 	.word	0x2000002c
 8001c8c:	40005400 	.word	0x40005400
 8001c90:	000186a0 	.word	0x000186a0

08001c94 <MX_I2C2_Init>:
  * @brief I2C2 Initialization Function
  * @param None
  * @retval None
  */
static void MX_I2C2_Init(void)
{
 8001c94:	b580      	push	{r7, lr}
 8001c96:	af00      	add	r7, sp, #0
  /* USER CODE END I2C2_Init 0 */

  /* USER CODE BEGIN I2C2_Init 1 */

  /* USER CODE END I2C2_Init 1 */
  hi2c2.Instance = I2C2;
 8001c98:	4b12      	ldr	r3, [pc, #72]	; (8001ce4 <MX_I2C2_Init+0x50>)
 8001c9a:	4a13      	ldr	r2, [pc, #76]	; (8001ce8 <MX_I2C2_Init+0x54>)
 8001c9c:	601a      	str	r2, [r3, #0]
  hi2c2.Init.ClockSpeed = 100000;
 8001c9e:	4b11      	ldr	r3, [pc, #68]	; (8001ce4 <MX_I2C2_Init+0x50>)
 8001ca0:	4a12      	ldr	r2, [pc, #72]	; (8001cec <MX_I2C2_Init+0x58>)
 8001ca2:	605a      	str	r2, [r3, #4]
  hi2c2.Init.DutyCycle = I2C_DUTYCYCLE_2;
 8001ca4:	4b0f      	ldr	r3, [pc, #60]	; (8001ce4 <MX_I2C2_Init+0x50>)
 8001ca6:	2200      	movs	r2, #0
 8001ca8:	609a      	str	r2, [r3, #8]
  hi2c2.Init.OwnAddress1 = 0;
 8001caa:	4b0e      	ldr	r3, [pc, #56]	; (8001ce4 <MX_I2C2_Init+0x50>)
 8001cac:	2200      	movs	r2, #0
 8001cae:	60da      	str	r2, [r3, #12]
  hi2c2.Init.AddressingMode = I2C_ADDRESSINGMODE_7BIT;
 8001cb0:	4b0c      	ldr	r3, [pc, #48]	; (8001ce4 <MX_I2C2_Init+0x50>)
 8001cb2:	f44f 4280 	mov.w	r2, #16384	; 0x4000
 8001cb6:	611a      	str	r2, [r3, #16]
  hi2c2.Init.DualAddressMode = I2C_DUALADDRESS_DISABLE;
 8001cb8:	4b0a      	ldr	r3, [pc, #40]	; (8001ce4 <MX_I2C2_Init+0x50>)
 8001cba:	2200      	movs	r2, #0
 8001cbc:	615a      	str	r2, [r3, #20]
  hi2c2.Init.OwnAddress2 = 0;
 8001cbe:	4b09      	ldr	r3, [pc, #36]	; (8001ce4 <MX_I2C2_Init+0x50>)
 8001cc0:	2200      	movs	r2, #0
 8001cc2:	619a      	str	r2, [r3, #24]
  hi2c2.Init.GeneralCallMode = I2C_GENERALCALL_DISABLE;
 8001cc4:	4b07      	ldr	r3, [pc, #28]	; (8001ce4 <MX_I2C2_Init+0x50>)
 8001cc6:	2200      	movs	r2, #0
 8001cc8:	61da      	str	r2, [r3, #28]
  hi2c2.Init.NoStretchMode = I2C_NOSTRETCH_DISABLE;
 8001cca:	4b06      	ldr	r3, [pc, #24]	; (8001ce4 <MX_I2C2_Init+0x50>)
 8001ccc:	2200      	movs	r2, #0
 8001cce:	621a      	str	r2, [r3, #32]
  if (HAL_I2C_Init(&hi2c2) != HAL_OK)
 8001cd0:	4804      	ldr	r0, [pc, #16]	; (8001ce4 <MX_I2C2_Init+0x50>)
 8001cd2:	f000 fea9 	bl	8002a28 <HAL_I2C_Init>
 8001cd6:	4603      	mov	r3, r0
 8001cd8:	2b00      	cmp	r3, #0
 8001cda:	d001      	beq.n	8001ce0 <MX_I2C2_Init+0x4c>
  {
    Error_Handler();
 8001cdc:	f000 f9b2 	bl	8002044 <Error_Handler>
  }
  /* USER CODE BEGIN I2C2_Init 2 */

  /* USER CODE END I2C2_Init 2 */

}
 8001ce0:	bf00      	nop
 8001ce2:	bd80      	pop	{r7, pc}
 8001ce4:	20000080 	.word	0x20000080
 8001ce8:	40005800 	.word	0x40005800
 8001cec:	000186a0 	.word	0x000186a0

08001cf0 <MX_TIM1_Init>:
  * @brief TIM1 Initialization Function
  * @param None
  * @retval None
  */
static void MX_TIM1_Init(void)
{
 8001cf0:	b580      	push	{r7, lr}
 8001cf2:	b096      	sub	sp, #88	; 0x58
 8001cf4:	af00      	add	r7, sp, #0

  /* USER CODE BEGIN TIM1_Init 0 */

  /* USER CODE END TIM1_Init 0 */

  TIM_ClockConfigTypeDef sClockSourceConfig = {0};
 8001cf6:	f107 0348 	add.w	r3, r7, #72	; 0x48
 8001cfa:	2200      	movs	r2, #0
 8001cfc:	601a      	str	r2, [r3, #0]
 8001cfe:	605a      	str	r2, [r3, #4]
 8001d00:	609a      	str	r2, [r3, #8]
 8001d02:	60da      	str	r2, [r3, #12]
  TIM_MasterConfigTypeDef sMasterConfig = {0};
 8001d04:	f107 0340 	add.w	r3, r7, #64	; 0x40
 8001d08:	2200      	movs	r2, #0
 8001d0a:	601a      	str	r2, [r3, #0]
 8001d0c:	605a      	str	r2, [r3, #4]
  TIM_OC_InitTypeDef sConfigOC = {0};
 8001d0e:	f107 0324 	add.w	r3, r7, #36	; 0x24
 8001d12:	2200      	movs	r2, #0
 8001d14:	601a      	str	r2, [r3, #0]
 8001d16:	605a      	str	r2, [r3, #4]
 8001d18:	609a      	str	r2, [r3, #8]
 8001d1a:	60da      	str	r2, [r3, #12]
 8001d1c:	611a      	str	r2, [r3, #16]
 8001d1e:	615a      	str	r2, [r3, #20]
 8001d20:	619a      	str	r2, [r3, #24]
  TIM_BreakDeadTimeConfigTypeDef sBreakDeadTimeConfig = {0};
 8001d22:	1d3b      	adds	r3, r7, #4
 8001d24:	2220      	movs	r2, #32
 8001d26:	2100      	movs	r1, #0
 8001d28:	4618      	mov	r0, r3
 8001d2a:	f003 fe73 	bl	8005a14 <memset>

  /* USER CODE BEGIN TIM1_Init 1 */

  /* USER CODE END TIM1_Init 1 */
  htim1.Instance = TIM1;
 8001d2e:	4b45      	ldr	r3, [pc, #276]	; (8001e44 <MX_TIM1_Init+0x154>)
 8001d30:	4a45      	ldr	r2, [pc, #276]	; (8001e48 <MX_TIM1_Init+0x158>)
 8001d32:	601a      	str	r2, [r3, #0]
  htim1.Init.Prescaler = 576-1;
 8001d34:	4b43      	ldr	r3, [pc, #268]	; (8001e44 <MX_TIM1_Init+0x154>)
 8001d36:	f240 223f 	movw	r2, #575	; 0x23f
 8001d3a:	605a      	str	r2, [r3, #4]
  htim1.Init.CounterMode = TIM_COUNTERMODE_UP;
 8001d3c:	4b41      	ldr	r3, [pc, #260]	; (8001e44 <MX_TIM1_Init+0x154>)
 8001d3e:	2200      	movs	r2, #0
 8001d40:	609a      	str	r2, [r3, #8]
  htim1.Init.Period = 1000-1;
 8001d42:	4b40      	ldr	r3, [pc, #256]	; (8001e44 <MX_TIM1_Init+0x154>)
 8001d44:	f240 32e7 	movw	r2, #999	; 0x3e7
 8001d48:	60da      	str	r2, [r3, #12]
  htim1.Init.ClockDivision = TIM_CLOCKDIVISION_DIV1;
 8001d4a:	4b3e      	ldr	r3, [pc, #248]	; (8001e44 <MX_TIM1_Init+0x154>)
 8001d4c:	2200      	movs	r2, #0
 8001d4e:	611a      	str	r2, [r3, #16]
  htim1.Init.RepetitionCounter = 0;
 8001d50:	4b3c      	ldr	r3, [pc, #240]	; (8001e44 <MX_TIM1_Init+0x154>)
 8001d52:	2200      	movs	r2, #0
 8001d54:	615a      	str	r2, [r3, #20]
  htim1.Init.AutoReloadPreload = TIM_AUTORELOAD_PRELOAD_DISABLE;
 8001d56:	4b3b      	ldr	r3, [pc, #236]	; (8001e44 <MX_TIM1_Init+0x154>)
 8001d58:	2200      	movs	r2, #0
 8001d5a:	619a      	str	r2, [r3, #24]
  if (HAL_TIM_Base_Init(&htim1) != HAL_OK)
 8001d5c:	4839      	ldr	r0, [pc, #228]	; (8001e44 <MX_TIM1_Init+0x154>)
 8001d5e:	f002 fbc1 	bl	80044e4 <HAL_TIM_Base_Init>
 8001d62:	4603      	mov	r3, r0
 8001d64:	2b00      	cmp	r3, #0
 8001d66:	d001      	beq.n	8001d6c <MX_TIM1_Init+0x7c>
  {
    Error_Handler();
 8001d68:	f000 f96c 	bl	8002044 <Error_Handler>
  }
  sClockSourceConfig.ClockSource = TIM_CLOCKSOURCE_INTERNAL;
 8001d6c:	f44f 5380 	mov.w	r3, #4096	; 0x1000
 8001d70:	64bb      	str	r3, [r7, #72]	; 0x48
  if (HAL_TIM_ConfigClockSource(&htim1, &sClockSourceConfig) != HAL_OK)
 8001d72:	f107 0348 	add.w	r3, r7, #72	; 0x48
 8001d76:	4619      	mov	r1, r3
 8001d78:	4832      	ldr	r0, [pc, #200]	; (8001e44 <MX_TIM1_Init+0x154>)
 8001d7a:	f003 f8c7 	bl	8004f0c <HAL_TIM_ConfigClockSource>
 8001d7e:	4603      	mov	r3, r0
 8001d80:	2b00      	cmp	r3, #0
 8001d82:	d001      	beq.n	8001d88 <MX_TIM1_Init+0x98>
  {
    Error_Handler();
 8001d84:	f000 f95e 	bl	8002044 <Error_Handler>
  }
  if (HAL_TIM_PWM_Init(&htim1) != HAL_OK)
 8001d88:	482e      	ldr	r0, [pc, #184]	; (8001e44 <MX_TIM1_Init+0x154>)
 8001d8a:	f002 fbfa 	bl	8004582 <HAL_TIM_PWM_Init>
 8001d8e:	4603      	mov	r3, r0
 8001d90:	2b00      	cmp	r3, #0
 8001d92:	d001      	beq.n	8001d98 <MX_TIM1_Init+0xa8>
  {
    Error_Handler();
 8001d94:	f000 f956 	bl	8002044 <Error_Handler>
  }
  sMasterConfig.MasterOutputTrigger = TIM_TRGO_RESET;
 8001d98:	2300      	movs	r3, #0
 8001d9a:	643b      	str	r3, [r7, #64]	; 0x40
  sMasterConfig.MasterSlaveMode = TIM_MASTERSLAVEMODE_DISABLE;
 8001d9c:	2300      	movs	r3, #0
 8001d9e:	647b      	str	r3, [r7, #68]	; 0x44
  if (HAL_TIMEx_MasterConfigSynchronization(&htim1, &sMasterConfig) != HAL_OK)
 8001da0:	f107 0340 	add.w	r3, r7, #64	; 0x40
 8001da4:	4619      	mov	r1, r3
 8001da6:	4827      	ldr	r0, [pc, #156]	; (8001e44 <MX_TIM1_Init+0x154>)
 8001da8:	f003 fd4e 	bl	8005848 <HAL_TIMEx_MasterConfigSynchronization>
 8001dac:	4603      	mov	r3, r0
 8001dae:	2b00      	cmp	r3, #0
 8001db0:	d001      	beq.n	8001db6 <MX_TIM1_Init+0xc6>
  {
    Error_Handler();
 8001db2:	f000 f947 	bl	8002044 <Error_Handler>
  }
  sConfigOC.OCMode = TIM_OCMODE_PWM1;
 8001db6:	2360      	movs	r3, #96	; 0x60
 8001db8:	627b      	str	r3, [r7, #36]	; 0x24
  sConfigOC.Pulse = 0;
 8001dba:	2300      	movs	r3, #0
 8001dbc:	62bb      	str	r3, [r7, #40]	; 0x28
  sConfigOC.OCPolarity = TIM_OCPOLARITY_HIGH;
 8001dbe:	2300      	movs	r3, #0
 8001dc0:	62fb      	str	r3, [r7, #44]	; 0x2c
  sConfigOC.OCNPolarity = TIM_OCNPOLARITY_HIGH;
 8001dc2:	2300      	movs	r3, #0
 8001dc4:	633b      	str	r3, [r7, #48]	; 0x30
  sConfigOC.OCFastMode = TIM_OCFAST_DISABLE;
 8001dc6:	2300      	movs	r3, #0
 8001dc8:	637b      	str	r3, [r7, #52]	; 0x34
  sConfigOC.OCIdleState = TIM_OCIDLESTATE_RESET;
 8001dca:	2300      	movs	r3, #0
 8001dcc:	63bb      	str	r3, [r7, #56]	; 0x38
  sConfigOC.OCNIdleState = TIM_OCNIDLESTATE_RESET;
 8001dce:	2300      	movs	r3, #0
 8001dd0:	63fb      	str	r3, [r7, #60]	; 0x3c
  if (HAL_TIM_PWM_ConfigChannel(&htim1, &sConfigOC, TIM_CHANNEL_1) != HAL_OK)
 8001dd2:	f107 0324 	add.w	r3, r7, #36	; 0x24
 8001dd6:	2200      	movs	r2, #0
 8001dd8:	4619      	mov	r1, r3
 8001dda:	481a      	ldr	r0, [pc, #104]	; (8001e44 <MX_TIM1_Init+0x154>)
 8001ddc:	f002 ffd4 	bl	8004d88 <HAL_TIM_PWM_ConfigChannel>
 8001de0:	4603      	mov	r3, r0
 8001de2:	2b00      	cmp	r3, #0
 8001de4:	d001      	beq.n	8001dea <MX_TIM1_Init+0xfa>
  {
    Error_Handler();
 8001de6:	f000 f92d 	bl	8002044 <Error_Handler>
  }
  if (HAL_TIM_PWM_ConfigChannel(&htim1, &sConfigOC, TIM_CHANNEL_2) != HAL_OK)
 8001dea:	f107 0324 	add.w	r3, r7, #36	; 0x24
 8001dee:	2204      	movs	r2, #4
 8001df0:	4619      	mov	r1, r3
 8001df2:	4814      	ldr	r0, [pc, #80]	; (8001e44 <MX_TIM1_Init+0x154>)
 8001df4:	f002 ffc8 	bl	8004d88 <HAL_TIM_PWM_ConfigChannel>
 8001df8:	4603      	mov	r3, r0
 8001dfa:	2b00      	cmp	r3, #0
 8001dfc:	d001      	beq.n	8001e02 <MX_TIM1_Init+0x112>
  {
    Error_Handler();
 8001dfe:	f000 f921 	bl	8002044 <Error_Handler>
  }
  sBreakDeadTimeConfig.OffStateRunMode = TIM_OSSR_DISABLE;
 8001e02:	2300      	movs	r3, #0
 8001e04:	607b      	str	r3, [r7, #4]
  sBreakDeadTimeConfig.OffStateIDLEMode = TIM_OSSI_DISABLE;
 8001e06:	2300      	movs	r3, #0
 8001e08:	60bb      	str	r3, [r7, #8]
  sBreakDeadTimeConfig.LockLevel = TIM_LOCKLEVEL_OFF;
 8001e0a:	2300      	movs	r3, #0
 8001e0c:	60fb      	str	r3, [r7, #12]
  sBreakDeadTimeConfig.DeadTime = 0;
 8001e0e:	2300      	movs	r3, #0
 8001e10:	613b      	str	r3, [r7, #16]
  sBreakDeadTimeConfig.BreakState = TIM_BREAK_DISABLE;
 8001e12:	2300      	movs	r3, #0
 8001e14:	617b      	str	r3, [r7, #20]
  sBreakDeadTimeConfig.BreakPolarity = TIM_BREAKPOLARITY_HIGH;
 8001e16:	f44f 5300 	mov.w	r3, #8192	; 0x2000
 8001e1a:	61bb      	str	r3, [r7, #24]
  sBreakDeadTimeConfig.AutomaticOutput = TIM_AUTOMATICOUTPUT_DISABLE;
 8001e1c:	2300      	movs	r3, #0
 8001e1e:	623b      	str	r3, [r7, #32]
  if (HAL_TIMEx_ConfigBreakDeadTime(&htim1, &sBreakDeadTimeConfig) != HAL_OK)
 8001e20:	1d3b      	adds	r3, r7, #4
 8001e22:	4619      	mov	r1, r3
 8001e24:	4807      	ldr	r0, [pc, #28]	; (8001e44 <MX_TIM1_Init+0x154>)
 8001e26:	f003 fd6d 	bl	8005904 <HAL_TIMEx_ConfigBreakDeadTime>
 8001e2a:	4603      	mov	r3, r0
 8001e2c:	2b00      	cmp	r3, #0
 8001e2e:	d001      	beq.n	8001e34 <MX_TIM1_Init+0x144>
  {
    Error_Handler();
 8001e30:	f000 f908 	bl	8002044 <Error_Handler>
  }
  /* USER CODE BEGIN TIM1_Init 2 */

  /* USER CODE END TIM1_Init 2 */
  HAL_TIM_MspPostInit(&htim1);
 8001e34:	4803      	ldr	r0, [pc, #12]	; (8001e44 <MX_TIM1_Init+0x154>)
 8001e36:	f000 f9f3 	bl	8002220 <HAL_TIM_MspPostInit>

}
 8001e3a:	bf00      	nop
 8001e3c:	3758      	adds	r7, #88	; 0x58
 8001e3e:	46bd      	mov	sp, r7
 8001e40:	bd80      	pop	{r7, pc}
 8001e42:	bf00      	nop
 8001e44:	200000d4 	.word	0x200000d4
 8001e48:	40012c00 	.word	0x40012c00

08001e4c <MX_TIM2_Init>:
  * @brief TIM2 Initialization Function
  * @param None
  * @retval None
  */
static void MX_TIM2_Init(void)
{
 8001e4c:	b580      	push	{r7, lr}
 8001e4e:	b08a      	sub	sp, #40	; 0x28
 8001e50:	af00      	add	r7, sp, #0

  /* USER CODE BEGIN TIM2_Init 0 */

  /* USER CODE END TIM2_Init 0 */

  TIM_ClockConfigTypeDef sClockSourceConfig = {0};
 8001e52:	f107 0318 	add.w	r3, r7, #24
 8001e56:	2200      	movs	r2, #0
 8001e58:	601a      	str	r2, [r3, #0]
 8001e5a:	605a      	str	r2, [r3, #4]
 8001e5c:	609a      	str	r2, [r3, #8]
 8001e5e:	60da      	str	r2, [r3, #12]
  TIM_MasterConfigTypeDef sMasterConfig = {0};
 8001e60:	f107 0310 	add.w	r3, r7, #16
 8001e64:	2200      	movs	r2, #0
 8001e66:	601a      	str	r2, [r3, #0]
 8001e68:	605a      	str	r2, [r3, #4]
  TIM_IC_InitTypeDef sConfigIC = {0};
 8001e6a:	463b      	mov	r3, r7
 8001e6c:	2200      	movs	r2, #0
 8001e6e:	601a      	str	r2, [r3, #0]
 8001e70:	605a      	str	r2, [r3, #4]
 8001e72:	609a      	str	r2, [r3, #8]
 8001e74:	60da      	str	r2, [r3, #12]

  /* USER CODE BEGIN TIM2_Init 1 */

  /* USER CODE END TIM2_Init 1 */
  htim2.Instance = TIM2;
 8001e76:	4b3c      	ldr	r3, [pc, #240]	; (8001f68 <MX_TIM2_Init+0x11c>)
 8001e78:	f04f 4280 	mov.w	r2, #1073741824	; 0x40000000
 8001e7c:	601a      	str	r2, [r3, #0]
  htim2.Init.Prescaler = 72-1;
 8001e7e:	4b3a      	ldr	r3, [pc, #232]	; (8001f68 <MX_TIM2_Init+0x11c>)
 8001e80:	2247      	movs	r2, #71	; 0x47
 8001e82:	605a      	str	r2, [r3, #4]
  htim2.Init.CounterMode = TIM_COUNTERMODE_UP;
 8001e84:	4b38      	ldr	r3, [pc, #224]	; (8001f68 <MX_TIM2_Init+0x11c>)
 8001e86:	2200      	movs	r2, #0
 8001e88:	609a      	str	r2, [r3, #8]
  htim2.Init.Period = 0xFFFF;
 8001e8a:	4b37      	ldr	r3, [pc, #220]	; (8001f68 <MX_TIM2_Init+0x11c>)
 8001e8c:	f64f 72ff 	movw	r2, #65535	; 0xffff
 8001e90:	60da      	str	r2, [r3, #12]
  htim2.Init.ClockDivision = TIM_CLOCKDIVISION_DIV1;
 8001e92:	4b35      	ldr	r3, [pc, #212]	; (8001f68 <MX_TIM2_Init+0x11c>)
 8001e94:	2200      	movs	r2, #0
 8001e96:	611a      	str	r2, [r3, #16]
  htim2.Init.AutoReloadPreload = TIM_AUTORELOAD_PRELOAD_DISABLE;
 8001e98:	4b33      	ldr	r3, [pc, #204]	; (8001f68 <MX_TIM2_Init+0x11c>)
 8001e9a:	2200      	movs	r2, #0
 8001e9c:	619a      	str	r2, [r3, #24]
  if (HAL_TIM_Base_Init(&htim2) != HAL_OK)
 8001e9e:	4832      	ldr	r0, [pc, #200]	; (8001f68 <MX_TIM2_Init+0x11c>)
 8001ea0:	f002 fb20 	bl	80044e4 <HAL_TIM_Base_Init>
 8001ea4:	4603      	mov	r3, r0
 8001ea6:	2b00      	cmp	r3, #0
 8001ea8:	d001      	beq.n	8001eae <MX_TIM2_Init+0x62>
  {
    Error_Handler();
 8001eaa:	f000 f8cb 	bl	8002044 <Error_Handler>
  }
  sClockSourceConfig.ClockSource = TIM_CLOCKSOURCE_INTERNAL;
 8001eae:	f44f 5380 	mov.w	r3, #4096	; 0x1000
 8001eb2:	61bb      	str	r3, [r7, #24]
  if (HAL_TIM_ConfigClockSource(&htim2, &sClockSourceConfig) != HAL_OK)
 8001eb4:	f107 0318 	add.w	r3, r7, #24
 8001eb8:	4619      	mov	r1, r3
 8001eba:	482b      	ldr	r0, [pc, #172]	; (8001f68 <MX_TIM2_Init+0x11c>)
 8001ebc:	f003 f826 	bl	8004f0c <HAL_TIM_ConfigClockSource>
 8001ec0:	4603      	mov	r3, r0
 8001ec2:	2b00      	cmp	r3, #0
 8001ec4:	d001      	beq.n	8001eca <MX_TIM2_Init+0x7e>
  {
    Error_Handler();
 8001ec6:	f000 f8bd 	bl	8002044 <Error_Handler>
  }
  if (HAL_TIM_IC_Init(&htim2) != HAL_OK)
 8001eca:	4827      	ldr	r0, [pc, #156]	; (8001f68 <MX_TIM2_Init+0x11c>)
 8001ecc:	f002 fc54 	bl	8004778 <HAL_TIM_IC_Init>
 8001ed0:	4603      	mov	r3, r0
 8001ed2:	2b00      	cmp	r3, #0
 8001ed4:	d001      	beq.n	8001eda <MX_TIM2_Init+0x8e>
  {
    Error_Handler();
 8001ed6:	f000 f8b5 	bl	8002044 <Error_Handler>
  }
  sMasterConfig.MasterOutputTrigger = TIM_TRGO_RESET;
 8001eda:	2300      	movs	r3, #0
 8001edc:	613b      	str	r3, [r7, #16]
  sMasterConfig.MasterSlaveMode = TIM_MASTERSLAVEMODE_DISABLE;
 8001ede:	2300      	movs	r3, #0
 8001ee0:	617b      	str	r3, [r7, #20]
  if (HAL_TIMEx_MasterConfigSynchronization(&htim2, &sMasterConfig) != HAL_OK)
 8001ee2:	f107 0310 	add.w	r3, r7, #16
 8001ee6:	4619      	mov	r1, r3
 8001ee8:	481f      	ldr	r0, [pc, #124]	; (8001f68 <MX_TIM2_Init+0x11c>)
 8001eea:	f003 fcad 	bl	8005848 <HAL_TIMEx_MasterConfigSynchronization>
 8001eee:	4603      	mov	r3, r0
 8001ef0:	2b00      	cmp	r3, #0
 8001ef2:	d001      	beq.n	8001ef8 <MX_TIM2_Init+0xac>
  {
    Error_Handler();
 8001ef4:	f000 f8a6 	bl	8002044 <Error_Handler>
  }
  sConfigIC.ICPolarity = TIM_INPUTCHANNELPOLARITY_RISING;
 8001ef8:	2300      	movs	r3, #0
 8001efa:	603b      	str	r3, [r7, #0]
  sConfigIC.ICSelection = TIM_ICSELECTION_DIRECTTI;
 8001efc:	2301      	movs	r3, #1
 8001efe:	607b      	str	r3, [r7, #4]
  sConfigIC.ICPrescaler = TIM_ICPSC_DIV1;
 8001f00:	2300      	movs	r3, #0
 8001f02:	60bb      	str	r3, [r7, #8]
  sConfigIC.ICFilter = 0;
 8001f04:	2300      	movs	r3, #0
 8001f06:	60fb      	str	r3, [r7, #12]
  if (HAL_TIM_IC_ConfigChannel(&htim2, &sConfigIC, TIM_CHANNEL_1) != HAL_OK)
 8001f08:	463b      	mov	r3, r7
 8001f0a:	2200      	movs	r2, #0
 8001f0c:	4619      	mov	r1, r3
 8001f0e:	4816      	ldr	r0, [pc, #88]	; (8001f68 <MX_TIM2_Init+0x11c>)
 8001f10:	f002 fe9e 	bl	8004c50 <HAL_TIM_IC_ConfigChannel>
 8001f14:	4603      	mov	r3, r0
 8001f16:	2b00      	cmp	r3, #0
 8001f18:	d001      	beq.n	8001f1e <MX_TIM2_Init+0xd2>
  {
    Error_Handler();
 8001f1a:	f000 f893 	bl	8002044 <Error_Handler>
  }
  if (HAL_TIM_IC_ConfigChannel(&htim2, &sConfigIC, TIM_CHANNEL_2) != HAL_OK)
 8001f1e:	463b      	mov	r3, r7
 8001f20:	2204      	movs	r2, #4
 8001f22:	4619      	mov	r1, r3
 8001f24:	4810      	ldr	r0, [pc, #64]	; (8001f68 <MX_TIM2_Init+0x11c>)
 8001f26:	f002 fe93 	bl	8004c50 <HAL_TIM_IC_ConfigChannel>
 8001f2a:	4603      	mov	r3, r0
 8001f2c:	2b00      	cmp	r3, #0
 8001f2e:	d001      	beq.n	8001f34 <MX_TIM2_Init+0xe8>
  {
    Error_Handler();
 8001f30:	f000 f888 	bl	8002044 <Error_Handler>
  }
  if (HAL_TIM_IC_ConfigChannel(&htim2, &sConfigIC, TIM_CHANNEL_3) != HAL_OK)
 8001f34:	463b      	mov	r3, r7
 8001f36:	2208      	movs	r2, #8
 8001f38:	4619      	mov	r1, r3
 8001f3a:	480b      	ldr	r0, [pc, #44]	; (8001f68 <MX_TIM2_Init+0x11c>)
 8001f3c:	f002 fe88 	bl	8004c50 <HAL_TIM_IC_ConfigChannel>
 8001f40:	4603      	mov	r3, r0
 8001f42:	2b00      	cmp	r3, #0
 8001f44:	d001      	beq.n	8001f4a <MX_TIM2_Init+0xfe>
  {
    Error_Handler();
 8001f46:	f000 f87d 	bl	8002044 <Error_Handler>
  }
  if (HAL_TIM_IC_ConfigChannel(&htim2, &sConfigIC, TIM_CHANNEL_4) != HAL_OK)
 8001f4a:	463b      	mov	r3, r7
 8001f4c:	220c      	movs	r2, #12
 8001f4e:	4619      	mov	r1, r3
 8001f50:	4805      	ldr	r0, [pc, #20]	; (8001f68 <MX_TIM2_Init+0x11c>)
 8001f52:	f002 fe7d 	bl	8004c50 <HAL_TIM_IC_ConfigChannel>
 8001f56:	4603      	mov	r3, r0
 8001f58:	2b00      	cmp	r3, #0
 8001f5a:	d001      	beq.n	8001f60 <MX_TIM2_Init+0x114>
  {
    Error_Handler();
 8001f5c:	f000 f872 	bl	8002044 <Error_Handler>
  }
  /* USER CODE BEGIN TIM2_Init 2 */

  /* USER CODE END TIM2_Init 2 */

}
 8001f60:	bf00      	nop
 8001f62:	3728      	adds	r7, #40	; 0x28
 8001f64:	46bd      	mov	sp, r7
 8001f66:	bd80      	pop	{r7, pc}
 8001f68:	2000011c 	.word	0x2000011c

08001f6c <MX_GPIO_Init>:
  * @brief GPIO Initialization Function
  * @param None
  * @retval None
  */
static void MX_GPIO_Init(void)
{
 8001f6c:	b580      	push	{r7, lr}
 8001f6e:	b088      	sub	sp, #32
 8001f70:	af00      	add	r7, sp, #0
  GPIO_InitTypeDef GPIO_InitStruct = {0};
 8001f72:	f107 0310 	add.w	r3, r7, #16
 8001f76:	2200      	movs	r2, #0
 8001f78:	601a      	str	r2, [r3, #0]
 8001f7a:	605a      	str	r2, [r3, #4]
 8001f7c:	609a      	str	r2, [r3, #8]
 8001f7e:	60da      	str	r2, [r3, #12]
/* USER CODE BEGIN MX_GPIO_Init_1 */
/* USER CODE END MX_GPIO_Init_1 */

  /* GPIO Ports Clock Enable */
  __HAL_RCC_GPIOC_CLK_ENABLE();
 8001f80:	4b2d      	ldr	r3, [pc, #180]	; (8002038 <MX_GPIO_Init+0xcc>)
 8001f82:	699b      	ldr	r3, [r3, #24]
 8001f84:	4a2c      	ldr	r2, [pc, #176]	; (8002038 <MX_GPIO_Init+0xcc>)
 8001f86:	f043 0310 	orr.w	r3, r3, #16
 8001f8a:	6193      	str	r3, [r2, #24]
 8001f8c:	4b2a      	ldr	r3, [pc, #168]	; (8002038 <MX_GPIO_Init+0xcc>)
 8001f8e:	699b      	ldr	r3, [r3, #24]
 8001f90:	f003 0310 	and.w	r3, r3, #16
 8001f94:	60fb      	str	r3, [r7, #12]
 8001f96:	68fb      	ldr	r3, [r7, #12]
  __HAL_RCC_GPIOD_CLK_ENABLE();
 8001f98:	4b27      	ldr	r3, [pc, #156]	; (8002038 <MX_GPIO_Init+0xcc>)
 8001f9a:	699b      	ldr	r3, [r3, #24]
 8001f9c:	4a26      	ldr	r2, [pc, #152]	; (8002038 <MX_GPIO_Init+0xcc>)
 8001f9e:	f043 0320 	orr.w	r3, r3, #32
 8001fa2:	6193      	str	r3, [r2, #24]
 8001fa4:	4b24      	ldr	r3, [pc, #144]	; (8002038 <MX_GPIO_Init+0xcc>)
 8001fa6:	699b      	ldr	r3, [r3, #24]
 8001fa8:	f003 0320 	and.w	r3, r3, #32
 8001fac:	60bb      	str	r3, [r7, #8]
 8001fae:	68bb      	ldr	r3, [r7, #8]
  __HAL_RCC_GPIOA_CLK_ENABLE();
 8001fb0:	4b21      	ldr	r3, [pc, #132]	; (8002038 <MX_GPIO_Init+0xcc>)
 8001fb2:	699b      	ldr	r3, [r3, #24]
 8001fb4:	4a20      	ldr	r2, [pc, #128]	; (8002038 <MX_GPIO_Init+0xcc>)
 8001fb6:	f043 0304 	orr.w	r3, r3, #4
 8001fba:	6193      	str	r3, [r2, #24]
 8001fbc:	4b1e      	ldr	r3, [pc, #120]	; (8002038 <MX_GPIO_Init+0xcc>)
 8001fbe:	699b      	ldr	r3, [r3, #24]
 8001fc0:	f003 0304 	and.w	r3, r3, #4
 8001fc4:	607b      	str	r3, [r7, #4]
 8001fc6:	687b      	ldr	r3, [r7, #4]
  __HAL_RCC_GPIOB_CLK_ENABLE();
 8001fc8:	4b1b      	ldr	r3, [pc, #108]	; (8002038 <MX_GPIO_Init+0xcc>)
 8001fca:	699b      	ldr	r3, [r3, #24]
 8001fcc:	4a1a      	ldr	r2, [pc, #104]	; (8002038 <MX_GPIO_Init+0xcc>)
 8001fce:	f043 0308 	orr.w	r3, r3, #8
 8001fd2:	6193      	str	r3, [r2, #24]
 8001fd4:	4b18      	ldr	r3, [pc, #96]	; (8002038 <MX_GPIO_Init+0xcc>)
 8001fd6:	699b      	ldr	r3, [r3, #24]
 8001fd8:	f003 0308 	and.w	r3, r3, #8
 8001fdc:	603b      	str	r3, [r7, #0]
 8001fde:	683b      	ldr	r3, [r7, #0]

  /*Configure GPIO pin Output Level */
  HAL_GPIO_WritePin(GPIOC, GPIO_PIN_13, GPIO_PIN_RESET);
 8001fe0:	2200      	movs	r2, #0
 8001fe2:	f44f 5100 	mov.w	r1, #8192	; 0x2000
 8001fe6:	4815      	ldr	r0, [pc, #84]	; (800203c <MX_GPIO_Init+0xd0>)
 8001fe8:	f000 fcec 	bl	80029c4 <HAL_GPIO_WritePin>

  /*Configure GPIO pin Output Level */
  HAL_GPIO_WritePin(GPIOA, right_motor_direction_Pin|left_motor_direction_Pin|handbrake_Pin|shifter_Pin, GPIO_PIN_RESET);
 8001fec:	2200      	movs	r2, #0
 8001fee:	21f0      	movs	r1, #240	; 0xf0
 8001ff0:	4813      	ldr	r0, [pc, #76]	; (8002040 <MX_GPIO_Init+0xd4>)
 8001ff2:	f000 fce7 	bl	80029c4 <HAL_GPIO_WritePin>

  /*Configure GPIO pin : PC13 */
  GPIO_InitStruct.Pin = GPIO_PIN_13;
 8001ff6:	f44f 5300 	mov.w	r3, #8192	; 0x2000
 8001ffa:	613b      	str	r3, [r7, #16]
  GPIO_InitStruct.Mode = GPIO_MODE_OUTPUT_PP;
 8001ffc:	2301      	movs	r3, #1
 8001ffe:	617b      	str	r3, [r7, #20]
  GPIO_InitStruct.Pull = GPIO_NOPULL;
 8002000:	2300      	movs	r3, #0
 8002002:	61bb      	str	r3, [r7, #24]
  GPIO_InitStruct.Speed = GPIO_SPEED_FREQ_LOW;
 8002004:	2302      	movs	r3, #2
 8002006:	61fb      	str	r3, [r7, #28]
  HAL_GPIO_Init(GPIOC, &GPIO_InitStruct);
 8002008:	f107 0310 	add.w	r3, r7, #16
 800200c:	4619      	mov	r1, r3
 800200e:	480b      	ldr	r0, [pc, #44]	; (800203c <MX_GPIO_Init+0xd0>)
 8002010:	f000 fb54 	bl	80026bc <HAL_GPIO_Init>

  /*Configure GPIO pins : right_motor_direction_Pin left_motor_direction_Pin handbrake_Pin shifter_Pin */
  GPIO_InitStruct.Pin = right_motor_direction_Pin|left_motor_direction_Pin|handbrake_Pin|shifter_Pin;
 8002014:	23f0      	movs	r3, #240	; 0xf0
 8002016:	613b      	str	r3, [r7, #16]
  GPIO_InitStruct.Mode = GPIO_MODE_OUTPUT_PP;
 8002018:	2301      	movs	r3, #1
 800201a:	617b      	str	r3, [r7, #20]
  GPIO_InitStruct.Pull = GPIO_NOPULL;
 800201c:	2300      	movs	r3, #0
 800201e:	61bb      	str	r3, [r7, #24]
  GPIO_InitStruct.Speed = GPIO_SPEED_FREQ_LOW;
 8002020:	2302      	movs	r3, #2
 8002022:	61fb      	str	r3, [r7, #28]
  HAL_GPIO_Init(GPIOA, &GPIO_InitStruct);
 8002024:	f107 0310 	add.w	r3, r7, #16
 8002028:	4619      	mov	r1, r3
 800202a:	4805      	ldr	r0, [pc, #20]	; (8002040 <MX_GPIO_Init+0xd4>)
 800202c:	f000 fb46 	bl	80026bc <HAL_GPIO_Init>

/* USER CODE BEGIN MX_GPIO_Init_2 */
/* USER CODE END MX_GPIO_Init_2 */
}
 8002030:	bf00      	nop
 8002032:	3720      	adds	r7, #32
 8002034:	46bd      	mov	sp, r7
 8002036:	bd80      	pop	{r7, pc}
 8002038:	40021000 	.word	0x40021000
 800203c:	40011000 	.word	0x40011000
 8002040:	40010800 	.word	0x40010800

08002044 <Error_Handler>:
/**
  * @brief  This function is executed in case of error occurrence.
  * @retval None
  */
void Error_Handler(void)
{
 8002044:	b480      	push	{r7}
 8002046:	af00      	add	r7, sp, #0
  \details Disables IRQ interrupts by setting the I-bit in the CPSR.
           Can only be executed in Privileged modes.
 */
__STATIC_FORCEINLINE void __disable_irq(void)
{
  __ASM volatile ("cpsid i" : : : "memory");
 8002048:	b672      	cpsid	i
}
 800204a:	bf00      	nop
  /* USER CODE BEGIN Error_Handler_Debug */
	/* User can add his own implementation to report the HAL error return state */
	__disable_irq();
	while (1) {
 800204c:	e7fe      	b.n	800204c <Error_Handler+0x8>
	...

08002050 <HAL_MspInit>:
 8002050:	b480      	push	{r7}
 8002052:	b085      	sub	sp, #20
 8002054:	af00      	add	r7, sp, #0
 8002056:	4b15      	ldr	r3, [pc, #84]	; (80020ac <HAL_MspInit+0x5c>)
 8002058:	699b      	ldr	r3, [r3, #24]
 800205a:	4a14      	ldr	r2, [pc, #80]	; (80020ac <HAL_MspInit+0x5c>)
 800205c:	f043 0301 	orr.w	r3, r3, #1
 8002060:	6193      	str	r3, [r2, #24]
 8002062:	4b12      	ldr	r3, [pc, #72]	; (80020ac <HAL_MspInit+0x5c>)
 8002064:	699b      	ldr	r3, [r3, #24]
 8002066:	f003 0301 	and.w	r3, r3, #1
 800206a:	60bb      	str	r3, [r7, #8]
 800206c:	68bb      	ldr	r3, [r7, #8]
 800206e:	4b0f      	ldr	r3, [pc, #60]	; (80020ac <HAL_MspInit+0x5c>)
 8002070:	69db      	ldr	r3, [r3, #28]
 8002072:	4a0e      	ldr	r2, [pc, #56]	; (80020ac <HAL_MspInit+0x5c>)
 8002074:	f043 5380 	orr.w	r3, r3, #268435456	; 0x10000000
 8002078:	61d3      	str	r3, [r2, #28]
 800207a:	4b0c      	ldr	r3, [pc, #48]	; (80020ac <HAL_MspInit+0x5c>)
 800207c:	69db      	ldr	r3, [r3, #28]
 800207e:	f003 5380 	and.w	r3, r3, #268435456	; 0x10000000
 8002082:	607b      	str	r3, [r7, #4]
 8002084:	687b      	ldr	r3, [r7, #4]
 8002086:	4b0a      	ldr	r3, [pc, #40]	; (80020b0 <HAL_MspInit+0x60>)
 8002088:	685b      	ldr	r3, [r3, #4]
 800208a:	60fb      	str	r3, [r7, #12]
 800208c:	68fb      	ldr	r3, [r7, #12]
 800208e:	f023 63e0 	bic.w	r3, r3, #117440512	; 0x7000000
 8002092:	60fb      	str	r3, [r7, #12]
 8002094:	68fb      	ldr	r3, [r7, #12]
 8002096:	f043 7300 	orr.w	r3, r3, #33554432	; 0x2000000
 800209a:	60fb      	str	r3, [r7, #12]
 800209c:	4a04      	ldr	r2, [pc, #16]	; (80020b0 <HAL_MspInit+0x60>)
 800209e:	68fb      	ldr	r3, [r7, #12]
 80020a0:	6053      	str	r3, [r2, #4]
 80020a2:	bf00      	nop
 80020a4:	3714      	adds	r7, #20
 80020a6:	46bd      	mov	sp, r7
 80020a8:	bc80      	pop	{r7}
 80020aa:	4770      	bx	lr
 80020ac:	40021000 	.word	0x40021000
 80020b0:	40010000 	.word	0x40010000

080020b4 <HAL_I2C_MspInit>:
 80020b4:	b580      	push	{r7, lr}
 80020b6:	b088      	sub	sp, #32
 80020b8:	af00      	add	r7, sp, #0
 80020ba:	6078      	str	r0, [r7, #4]
 80020bc:	f107 0310 	add.w	r3, r7, #16
 80020c0:	2200      	movs	r2, #0
 80020c2:	601a      	str	r2, [r3, #0]
 80020c4:	605a      	str	r2, [r3, #4]
 80020c6:	609a      	str	r2, [r3, #8]
 80020c8:	60da      	str	r2, [r3, #12]
 80020ca:	687b      	ldr	r3, [r7, #4]
 80020cc:	681b      	ldr	r3, [r3, #0]
 80020ce:	4a15      	ldr	r2, [pc, #84]	; (8002124 <HAL_I2C_MspInit+0x70>)
 80020d0:	4293      	cmp	r3, r2
 80020d2:	d123      	bne.n	800211c <HAL_I2C_MspInit+0x68>
 80020d4:	4b14      	ldr	r3, [pc, #80]	; (8002128 <HAL_I2C_MspInit+0x74>)
 80020d6:	699b      	ldr	r3, [r3, #24]
 80020d8:	4a13      	ldr	r2, [pc, #76]	; (8002128 <HAL_I2C_MspInit+0x74>)
 80020da:	f043 0308 	orr.w	r3, r3, #8
 80020de:	6193      	str	r3, [r2, #24]
 80020e0:	4b11      	ldr	r3, [pc, #68]	; (8002128 <HAL_I2C_MspInit+0x74>)
 80020e2:	699b      	ldr	r3, [r3, #24]
 80020e4:	f003 0308 	and.w	r3, r3, #8
 80020e8:	60fb      	str	r3, [r7, #12]
 80020ea:	68fb      	ldr	r3, [r7, #12]
 80020ec:	23c0      	movs	r3, #192	; 0xc0
 80020ee:	613b      	str	r3, [r7, #16]
 80020f0:	2312      	movs	r3, #18
 80020f2:	617b      	str	r3, [r7, #20]
 80020f4:	2303      	movs	r3, #3
 80020f6:	61fb      	str	r3, [r7, #28]
 80020f8:	f107 0310 	add.w	r3, r7, #16
 80020fc:	4619      	mov	r1, r3
 80020fe:	480b      	ldr	r0, [pc, #44]	; (800212c <HAL_I2C_MspInit+0x78>)
 8002100:	f000 fadc 	bl	80026bc <HAL_GPIO_Init>
 8002104:	4b08      	ldr	r3, [pc, #32]	; (8002128 <HAL_I2C_MspInit+0x74>)
 8002106:	69db      	ldr	r3, [r3, #28]
 8002108:	4a07      	ldr	r2, [pc, #28]	; (8002128 <HAL_I2C_MspInit+0x74>)
 800210a:	f443 1300 	orr.w	r3, r3, #2097152	; 0x200000
 800210e:	61d3      	str	r3, [r2, #28]
 8002110:	4b05      	ldr	r3, [pc, #20]	; (8002128 <HAL_I2C_MspInit+0x74>)
 8002112:	69db      	ldr	r3, [r3, #28]
 8002114:	f403 1300 	and.w	r3, r3, #2097152	; 0x200000
 8002118:	60bb      	str	r3, [r7, #8]
 800211a:	68bb      	ldr	r3, [r7, #8]
 800211c:	bf00      	nop
 800211e:	3720      	adds	r7, #32
 8002120:	46bd      	mov	sp, r7
 8002122:	bd80      	pop	{r7, pc}
 8002124:	40005400 	.word	0x40005400
 8002128:	40021000 	.word	0x40021000
 800212c:	40010c00 	.word	0x40010c00

08002130 <HAL_TIM_Base_MspInit>:
 8002130:	b580      	push	{r7, lr}
 8002132:	b08a      	sub	sp, #40	; 0x28
 8002134:	af00      	add	r7, sp, #0
 8002136:	6078      	str	r0, [r7, #4]
 8002138:	f107 0318 	add.w	r3, r7, #24
 800213c:	2200      	movs	r2, #0
 800213e:	601a      	str	r2, [r3, #0]
 8002140:	605a      	str	r2, [r3, #4]
 8002142:	609a      	str	r2, [r3, #8]
 8002144:	60da      	str	r2, [r3, #12]
 8002146:	687b      	ldr	r3, [r7, #4]
 8002148:	681b      	ldr	r3, [r3, #0]
 800214a:	4a32      	ldr	r2, [pc, #200]	; (8002214 <HAL_TIM_Base_MspInit+0xe4>)
 800214c:	4293      	cmp	r3, r2
 800214e:	d12c      	bne.n	80021aa <HAL_TIM_Base_MspInit+0x7a>
 8002150:	4b31      	ldr	r3, [pc, #196]	; (8002218 <HAL_TIM_Base_MspInit+0xe8>)
 8002152:	699b      	ldr	r3, [r3, #24]
 8002154:	4a30      	ldr	r2, [pc, #192]	; (8002218 <HAL_TIM_Base_MspInit+0xe8>)
 8002156:	f443 6300 	orr.w	r3, r3, #2048	; 0x800
 800215a:	6193      	str	r3, [r2, #24]
 800215c:	4b2e      	ldr	r3, [pc, #184]	; (8002218 <HAL_TIM_Base_MspInit+0xe8>)
 800215e:	699b      	ldr	r3, [r3, #24]
 8002160:	f403 6300 	and.w	r3, r3, #2048	; 0x800
 8002164:	617b      	str	r3, [r7, #20]
 8002166:	697b      	ldr	r3, [r7, #20]
 8002168:	2200      	movs	r2, #0
 800216a:	2100      	movs	r1, #0
 800216c:	2018      	movs	r0, #24
 800216e:	f000 fa6e 	bl	800264e <HAL_NVIC_SetPriority>
 8002172:	2018      	movs	r0, #24
 8002174:	f000 fa87 	bl	8002686 <HAL_NVIC_EnableIRQ>
 8002178:	2200      	movs	r2, #0
 800217a:	2100      	movs	r1, #0
 800217c:	2019      	movs	r0, #25
 800217e:	f000 fa66 	bl	800264e <HAL_NVIC_SetPriority>
 8002182:	2019      	movs	r0, #25
 8002184:	f000 fa7f 	bl	8002686 <HAL_NVIC_EnableIRQ>
 8002188:	2200      	movs	r2, #0
 800218a:	2100      	movs	r1, #0
 800218c:	201a      	movs	r0, #26
 800218e:	f000 fa5e 	bl	800264e <HAL_NVIC_SetPriority>
 8002192:	201a      	movs	r0, #26
 8002194:	f000 fa77 	bl	8002686 <HAL_NVIC_EnableIRQ>
 8002198:	2200      	movs	r2, #0
 800219a:	2100      	movs	r1, #0
 800219c:	201b      	movs	r0, #27
 800219e:	f000 fa56 	bl	800264e <HAL_NVIC_SetPriority>
 80021a2:	201b      	movs	r0, #27
 80021a4:	f000 fa6f 	bl	8002686 <HAL_NVIC_EnableIRQ>
 80021a8:	e030      	b.n	800220c <HAL_TIM_Base_MspInit+0xdc>
 80021aa:	687b      	ldr	r3, [r7, #4]
 80021ac:	681b      	ldr	r3, [r3, #0]
 80021ae:	f1b3 4f80 	cmp.w	r3, #1073741824	; 0x40000000
 80021b2:	d12b      	bne.n	800220c <HAL_TIM_Base_MspInit+0xdc>
 80021b4:	4b18      	ldr	r3, [pc, #96]	; (8002218 <HAL_TIM_Base_MspInit+0xe8>)
 80021b6:	69db      	ldr	r3, [r3, #28]
 80021b8:	4a17      	ldr	r2, [pc, #92]	; (8002218 <HAL_TIM_Base_MspInit+0xe8>)
 80021ba:	f043 0301 	orr.w	r3, r3, #1
 80021be:	61d3      	str	r3, [r2, #28]
 80021c0:	4b15      	ldr	r3, [pc, #84]	; (8002218 <HAL_TIM_Base_MspInit+0xe8>)
 80021c2:	69db      	ldr	r3, [r3, #28]
 80021c4:	f003 0301 	and.w	r3, r3, #1
 80021c8:	613b      	str	r3, [r7, #16]
 80021ca:	693b      	ldr	r3, [r7, #16]
 80021cc:	4b12      	ldr	r3, [pc, #72]	; (8002218 <HAL_TIM_Base_MspInit+0xe8>)
 80021ce:	699b      	ldr	r3, [r3, #24]
 80021d0:	4a11      	ldr	r2, [pc, #68]	; (8002218 <HAL_TIM_Base_MspInit+0xe8>)
 80021d2:	f043 0304 	orr.w	r3, r3, #4
 80021d6:	6193      	str	r3, [r2, #24]
 80021d8:	4b0f      	ldr	r3, [pc, #60]	; (8002218 <HAL_TIM_Base_MspInit+0xe8>)
 80021da:	699b      	ldr	r3, [r3, #24]
 80021dc:	f003 0304 	and.w	r3, r3, #4
 80021e0:	60fb      	str	r3, [r7, #12]
 80021e2:	68fb      	ldr	r3, [r7, #12]
 80021e4:	230f      	movs	r3, #15
 80021e6:	61bb      	str	r3, [r7, #24]
 80021e8:	2300      	movs	r3, #0
 80021ea:	61fb      	str	r3, [r7, #28]
 80021ec:	2300      	movs	r3, #0
 80021ee:	623b      	str	r3, [r7, #32]
 80021f0:	f107 0318 	add.w	r3, r7, #24
 80021f4:	4619      	mov	r1, r3
 80021f6:	4809      	ldr	r0, [pc, #36]	; (800221c <HAL_TIM_Base_MspInit+0xec>)
 80021f8:	f000 fa60 	bl	80026bc <HAL_GPIO_Init>
 80021fc:	2200      	movs	r2, #0
 80021fe:	2100      	movs	r1, #0
 8002200:	201c      	movs	r0, #28
 8002202:	f000 fa24 	bl	800264e <HAL_NVIC_SetPriority>
 8002206:	201c      	movs	r0, #28
 8002208:	f000 fa3d 	bl	8002686 <HAL_NVIC_EnableIRQ>
 800220c:	bf00      	nop
 800220e:	3728      	adds	r7, #40	; 0x28
 8002210:	46bd      	mov	sp, r7
 8002212:	bd80      	pop	{r7, pc}
 8002214:	40012c00 	.word	0x40012c00
 8002218:	40021000 	.word	0x40021000
 800221c:	40010800 	.word	0x40010800

08002220 <HAL_TIM_MspPostInit>:
 8002220:	b580      	push	{r7, lr}
 8002222:	b088      	sub	sp, #32
 8002224:	af00      	add	r7, sp, #0
 8002226:	6078      	str	r0, [r7, #4]
 8002228:	f107 0310 	add.w	r3, r7, #16
 800222c:	2200      	movs	r2, #0
 800222e:	601a      	str	r2, [r3, #0]
 8002230:	605a      	str	r2, [r3, #4]
 8002232:	609a      	str	r2, [r3, #8]
 8002234:	60da      	str	r2, [r3, #12]
 8002236:	687b      	ldr	r3, [r7, #4]
 8002238:	681b      	ldr	r3, [r3, #0]
 800223a:	4a10      	ldr	r2, [pc, #64]	; (800227c <HAL_TIM_MspPostInit+0x5c>)
 800223c:	4293      	cmp	r3, r2
 800223e:	d118      	bne.n	8002272 <HAL_TIM_MspPostInit+0x52>
 8002240:	4b0f      	ldr	r3, [pc, #60]	; (8002280 <HAL_TIM_MspPostInit+0x60>)
 8002242:	699b      	ldr	r3, [r3, #24]
 8002244:	4a0e      	ldr	r2, [pc, #56]	; (8002280 <HAL_TIM_MspPostInit+0x60>)
 8002246:	f043 0304 	orr.w	r3, r3, #4
 800224a:	6193      	str	r3, [r2, #24]
 800224c:	4b0c      	ldr	r3, [pc, #48]	; (8002280 <HAL_TIM_MspPostInit+0x60>)
 800224e:	699b      	ldr	r3, [r3, #24]
 8002250:	f003 0304 	and.w	r3, r3, #4
 8002254:	60fb      	str	r3, [r7, #12]
 8002256:	68fb      	ldr	r3, [r7, #12]
 8002258:	f44f 7340 	mov.w	r3, #768	; 0x300
 800225c:	613b      	str	r3, [r7, #16]
 800225e:	2302      	movs	r3, #2
 8002260:	617b      	str	r3, [r7, #20]
 8002262:	2302      	movs	r3, #2
 8002264:	61fb      	str	r3, [r7, #28]
 8002266:	f107 0310 	add.w	r3, r7, #16
 800226a:	4619      	mov	r1, r3
 800226c:	4805      	ldr	r0, [pc, #20]	; (8002284 <HAL_TIM_MspPostInit+0x64>)
 800226e:	f000 fa25 	bl	80026bc <HAL_GPIO_Init>
 8002272:	bf00      	nop
 8002274:	3720      	adds	r7, #32
 8002276:	46bd      	mov	sp, r7
 8002278:	bd80      	pop	{r7, pc}
 800227a:	bf00      	nop
 800227c:	40012c00 	.word	0x40012c00
 8002280:	40021000 	.word	0x40021000
 8002284:	40010800 	.word	0x40010800

08002288 <NMI_Handler>:
 8002288:	b480      	push	{r7}
 800228a:	af00      	add	r7, sp, #0
 800228c:	e7fe      	b.n	800228c <NMI_Handler+0x4>

0800228e <HardFault_Handler>:
 800228e:	b480      	push	{r7}
 8002290:	af00      	add	r7, sp, #0
 8002292:	e7fe      	b.n	8002292 <HardFault_Handler+0x4>

08002294 <MemManage_Handler>:
 8002294:	b480      	push	{r7}
 8002296:	af00      	add	r7, sp, #0
 8002298:	e7fe      	b.n	8002298 <MemManage_Handler+0x4>

0800229a <BusFault_Handler>:
 800229a:	b480      	push	{r7}
 800229c:	af00      	add	r7, sp, #0
 800229e:	e7fe      	b.n	800229e <BusFault_Handler+0x4>

080022a0 <UsageFault_Handler>:
 80022a0:	b480      	push	{r7}
 80022a2:	af00      	add	r7, sp, #0
 80022a4:	e7fe      	b.n	80022a4 <UsageFault_Handler+0x4>

080022a6 <SVC_Handler>:
 80022a6:	b480      	push	{r7}
 80022a8:	af00      	add	r7, sp, #0
 80022aa:	bf00      	nop
 80022ac:	46bd      	mov	sp, r7
 80022ae:	bc80      	pop	{r7}
 80022b0:	4770      	bx	lr

080022b2 <DebugMon_Handler>:
 80022b2:	b480      	push	{r7}
 80022b4:	af00      	add	r7, sp, #0
 80022b6:	bf00      	nop
 80022b8:	46bd      	mov	sp, r7
 80022ba:	bc80      	pop	{r7}
 80022bc:	4770      	bx	lr

080022be <PendSV_Handler>:
 80022be:	b480      	push	{r7}
 80022c0:	af00      	add	r7, sp, #0
 80022c2:	bf00      	nop
 80022c4:	46bd      	mov	sp, r7
 80022c6:	bc80      	pop	{r7}
 80022c8:	4770      	bx	lr

080022ca <SysTick_Handler>:
 80022ca:	b580      	push	{r7, lr}
 80022cc:	af00      	add	r7, sp, #0
 80022ce:	f000 f8a7 	bl	8002420 <HAL_IncTick>
 80022d2:	bf00      	nop
 80022d4:	bd80      	pop	{r7, pc}
	...

080022d8 <TIM1_BRK_IRQHandler>:
 80022d8:	b580      	push	{r7, lr}
 80022da:	af00      	add	r7, sp, #0
 80022dc:	4802      	ldr	r0, [pc, #8]	; (80022e8 <TIM1_BRK_IRQHandler+0x10>)
 80022de:	f002 fbaf 	bl	8004a40 <HAL_TIM_IRQHandler>
 80022e2:	bf00      	nop
 80022e4:	bd80      	pop	{r7, pc}
 80022e6:	bf00      	nop
 80022e8:	200000d4 	.word	0x200000d4

080022ec <TIM1_UP_IRQHandler>:
 80022ec:	b580      	push	{r7, lr}
 80022ee:	af00      	add	r7, sp, #0
 80022f0:	4802      	ldr	r0, [pc, #8]	; (80022fc <TIM1_UP_IRQHandler+0x10>)
 80022f2:	f002 fba5 	bl	8004a40 <HAL_TIM_IRQHandler>
 80022f6:	bf00      	nop
 80022f8:	bd80      	pop	{r7, pc}
 80022fa:	bf00      	nop
 80022fc:	200000d4 	.word	0x200000d4

08002300 <TIM1_TRG_COM_IRQHandler>:
 8002300:	b580      	push	{r7, lr}
 8002302:	af00      	add	r7, sp, #0
 8002304:	4802      	ldr	r0, [pc, #8]	; (8002310 <TIM1_TRG_COM_IRQHandler+0x10>)
 8002306:	f002 fb9b 	bl	8004a40 <HAL_TIM_IRQHandler>
 800230a:	bf00      	nop
 800230c:	bd80      	pop	{r7, pc}
 800230e:	bf00      	nop
 8002310:	200000d4 	.word	0x200000d4

08002314 <TIM1_CC_IRQHandler>:
 8002314:	b580      	push	{r7, lr}
 8002316:	af00      	add	r7, sp, #0
 8002318:	4802      	ldr	r0, [pc, #8]	; (8002324 <TIM1_CC_IRQHandler+0x10>)
 800231a:	f002 fb91 	bl	8004a40 <HAL_TIM_IRQHandler>
 800231e:	bf00      	nop
 8002320:	bd80      	pop	{r7, pc}
 8002322:	bf00      	nop
 8002324:	200000d4 	.word	0x200000d4

08002328 <TIM2_IRQHandler>:
 8002328:	b580      	push	{r7, lr}
 800232a:	af00      	add	r7, sp, #0
 800232c:	4802      	ldr	r0, [pc, #8]	; (8002338 <TIM2_IRQHandler+0x10>)
 800232e:	f002 fb87 	bl	8004a40 <HAL_TIM_IRQHandler>
 8002332:	bf00      	nop
 8002334:	bd80      	pop	{r7, pc}
 8002336:	bf00      	nop
 8002338:	2000011c 	.word	0x2000011c

0800233c <SystemInit>:
 800233c:	b480      	push	{r7}
 800233e:	af00      	add	r7, sp, #0
 8002340:	bf00      	nop
 8002342:	46bd      	mov	sp, r7
 8002344:	bc80      	pop	{r7}
 8002346:	4770      	bx	lr

08002348 <Reset_Handler>:
 8002348:	f7ff fff8 	bl	800233c <SystemInit>
 800234c:	480b      	ldr	r0, [pc, #44]	; (800237c <LoopFillZerobss+0xe>)
 800234e:	490c      	ldr	r1, [pc, #48]	; (8002380 <LoopFillZerobss+0x12>)
 8002350:	4a0c      	ldr	r2, [pc, #48]	; (8002384 <LoopFillZerobss+0x16>)
 8002352:	2300      	movs	r3, #0
 8002354:	e002      	b.n	800235c <LoopCopyDataInit>

08002356 <CopyDataInit>:
 8002356:	58d4      	ldr	r4, [r2, r3]
 8002358:	50c4      	str	r4, [r0, r3]
 800235a:	3304      	adds	r3, #4

0800235c <LoopCopyDataInit>:
 800235c:	18c4      	adds	r4, r0, r3
 800235e:	428c      	cmp	r4, r1
 8002360:	d3f9      	bcc.n	8002356 <CopyDataInit>
 8002362:	4a09      	ldr	r2, [pc, #36]	; (8002388 <LoopFillZerobss+0x1a>)
 8002364:	4c09      	ldr	r4, [pc, #36]	; (800238c <LoopFillZerobss+0x1e>)
 8002366:	2300      	movs	r3, #0
 8002368:	e001      	b.n	800236e <LoopFillZerobss>

0800236a <FillZerobss>:
 800236a:	6013      	str	r3, [r2, #0]
 800236c:	3204      	adds	r2, #4

0800236e <LoopFillZerobss>:
 800236e:	42a2      	cmp	r2, r4
 8002370:	d3fb      	bcc.n	800236a <FillZerobss>
 8002372:	f003 fb2b 	bl	80059cc <__libc_init_array>
 8002376:	f7ff f96f 	bl	8001658 <main>
 800237a:	4770      	bx	lr
 800237c:	20000000 	.word	0x20000000
 8002380:	2000000c 	.word	0x2000000c
 8002384:	08005a70 	.word	0x08005a70
 8002388:	20000010 	.word	0x20000010
 800238c:	20000238 	.word	0x20000238

08002390 <ADC1_2_IRQHandler>:
 8002390:	e7fe      	b.n	8002390 <ADC1_2_IRQHandler>
	...

08002394 <HAL_Init>:
 8002394:	b580      	push	{r7, lr}
 8002396:	af00      	add	r7, sp, #0
 8002398:	4b08      	ldr	r3, [pc, #32]	; (80023bc <HAL_Init+0x28>)
 800239a:	681b      	ldr	r3, [r3, #0]
 800239c:	4a07      	ldr	r2, [pc, #28]	; (80023bc <HAL_Init+0x28>)
 800239e:	f043 0310 	orr.w	r3, r3, #16
 80023a2:	6013      	str	r3, [r2, #0]
 80023a4:	2003      	movs	r0, #3
 80023a6:	f000 f947 	bl	8002638 <HAL_NVIC_SetPriorityGrouping>
 80023aa:	200f      	movs	r0, #15
 80023ac:	f000 f808 	bl	80023c0 <HAL_InitTick>
 80023b0:	f7ff fe4e 	bl	8002050 <HAL_MspInit>
 80023b4:	2300      	movs	r3, #0
 80023b6:	4618      	mov	r0, r3
 80023b8:	bd80      	pop	{r7, pc}
 80023ba:	bf00      	nop
 80023bc:	40022000 	.word	0x40022000

080023c0 <HAL_InitTick>:
 80023c0:	b580      	push	{r7, lr}
 80023c2:	b082      	sub	sp, #8
 80023c4:	af00      	add	r7, sp, #0
 80023c6:	6078      	str	r0, [r7, #4]
 80023c8:	4b12      	ldr	r3, [pc, #72]	; (8002414 <HAL_InitTick+0x54>)
 80023ca:	681a      	ldr	r2, [r3, #0]
 80023cc:	4b12      	ldr	r3, [pc, #72]	; (8002418 <HAL_InitTick+0x58>)
 80023ce:	781b      	ldrb	r3, [r3, #0]
 80023d0:	4619      	mov	r1, r3
 80023d2:	f44f 737a 	mov.w	r3, #1000	; 0x3e8
 80023d6:	fbb3 f3f1 	udiv	r3, r3, r1
 80023da:	fbb2 f3f3 	udiv	r3, r2, r3
 80023de:	4618      	mov	r0, r3
 80023e0:	f000 f95f 	bl	80026a2 <HAL_SYSTICK_Config>
 80023e4:	4603      	mov	r3, r0
 80023e6:	2b00      	cmp	r3, #0
 80023e8:	d001      	beq.n	80023ee <HAL_InitTick+0x2e>
 80023ea:	2301      	movs	r3, #1
 80023ec:	e00e      	b.n	800240c <HAL_InitTick+0x4c>
 80023ee:	687b      	ldr	r3, [r7, #4]
 80023f0:	2b0f      	cmp	r3, #15
 80023f2:	d80a      	bhi.n	800240a <HAL_InitTick+0x4a>
 80023f4:	2200      	movs	r2, #0
 80023f6:	6879      	ldr	r1, [r7, #4]
 80023f8:	f04f 30ff 	mov.w	r0, #4294967295
 80023fc:	f000 f927 	bl	800264e <HAL_NVIC_SetPriority>
 8002400:	4a06      	ldr	r2, [pc, #24]	; (800241c <HAL_InitTick+0x5c>)
 8002402:	687b      	ldr	r3, [r7, #4]
 8002404:	6013      	str	r3, [r2, #0]
 8002406:	2300      	movs	r3, #0
 8002408:	e000      	b.n	800240c <HAL_InitTick+0x4c>
 800240a:	2301      	movs	r3, #1
 800240c:	4618      	mov	r0, r3
 800240e:	3708      	adds	r7, #8
 8002410:	46bd      	mov	sp, r7
 8002412:	bd80      	pop	{r7, pc}
 8002414:	20000000 	.word	0x20000000
 8002418:	20000008 	.word	0x20000008
 800241c:	20000004 	.word	0x20000004

08002420 <HAL_IncTick>:
 8002420:	b480      	push	{r7}
 8002422:	af00      	add	r7, sp, #0
 8002424:	4b05      	ldr	r3, [pc, #20]	; (800243c <HAL_IncTick+0x1c>)
 8002426:	781b      	ldrb	r3, [r3, #0]
 8002428:	461a      	mov	r2, r3
 800242a:	4b05      	ldr	r3, [pc, #20]	; (8002440 <HAL_IncTick+0x20>)
 800242c:	681b      	ldr	r3, [r3, #0]
 800242e:	4413      	add	r3, r2
 8002430:	4a03      	ldr	r2, [pc, #12]	; (8002440 <HAL_IncTick+0x20>)
 8002432:	6013      	str	r3, [r2, #0]
 8002434:	bf00      	nop
 8002436:	46bd      	mov	sp, r7
 8002438:	bc80      	pop	{r7}
 800243a:	4770      	bx	lr
 800243c:	20000008 	.word	0x20000008
 8002440:	20000234 	.word	0x20000234

08002444 <HAL_GetTick>:
 8002444:	b480      	push	{r7}
 8002446:	af00      	add	r7, sp, #0
 8002448:	4b02      	ldr	r3, [pc, #8]	; (8002454 <HAL_GetTick+0x10>)
 800244a:	681b      	ldr	r3, [r3, #0]
 800244c:	4618      	mov	r0, r3
 800244e:	46bd      	mov	sp, r7
 8002450:	bc80      	pop	{r7}
 8002452:	4770      	bx	lr
 8002454:	20000234 	.word	0x20000234

08002458 <HAL_Delay>:
 8002458:	b580      	push	{r7, lr}
 800245a:	b084      	sub	sp, #16
 800245c:	af00      	add	r7, sp, #0
 800245e:	6078      	str	r0, [r7, #4]
 8002460:	f7ff fff0 	bl	8002444 <HAL_GetTick>
 8002464:	60b8      	str	r0, [r7, #8]
 8002466:	687b      	ldr	r3, [r7, #4]
 8002468:	60fb      	str	r3, [r7, #12]
 800246a:	68fb      	ldr	r3, [r7, #12]
 800246c:	f1b3 3fff 	cmp.w	r3, #4294967295
 8002470:	d005      	beq.n	800247e <HAL_Delay+0x26>
 8002472:	4b0a      	ldr	r3, [pc, #40]	; (800249c <HAL_Delay+0x44>)
 8002474:	781b      	ldrb	r3, [r3, #0]
 8002476:	461a      	mov	r2, r3
 8002478:	68fb      	ldr	r3, [r7, #12]
 800247a:	4413      	add	r3, r2
 800247c:	60fb      	str	r3, [r7, #12]
 800247e:	bf00      	nop
 8002480:	f7ff ffe0 	bl	8002444 <HAL_GetTick>
 8002484:	4602      	mov	r2, r0
 8002486:	68bb      	ldr	r3, [r7, #8]
 8002488:	1ad3      	subs	r3, r2, r3
 800248a:	68fa      	ldr	r2, [r7, #12]
 800248c:	429a      	cmp	r2, r3
 800248e:	d8f7      	bhi.n	8002480 <HAL_Delay+0x28>
 8002490:	bf00      	nop
 8002492:	bf00      	nop
 8002494:	3710      	adds	r7, #16
 8002496:	46bd      	mov	sp, r7
 8002498:	bd80      	pop	{r7, pc}
 800249a:	bf00      	nop
 800249c:	20000008 	.word	0x20000008

080024a0 <__NVIC_SetPriorityGrouping>:
 80024a0:	b480      	push	{r7}
 80024a2:	b085      	sub	sp, #20
 80024a4:	af00      	add	r7, sp, #0
 80024a6:	6078      	str	r0, [r7, #4]
 80024a8:	687b      	ldr	r3, [r7, #4]
 80024aa:	f003 0307 	and.w	r3, r3, #7
 80024ae:	60fb      	str	r3, [r7, #12]
 80024b0:	4b0c      	ldr	r3, [pc, #48]	; (80024e4 <__NVIC_SetPriorityGrouping+0x44>)
 80024b2:	68db      	ldr	r3, [r3, #12]
 80024b4:	60bb      	str	r3, [r7, #8]
 80024b6:	68ba      	ldr	r2, [r7, #8]
 80024b8:	f64f 03ff 	movw	r3, #63743	; 0xf8ff
 80024bc:	4013      	ands	r3, r2
 80024be:	60bb      	str	r3, [r7, #8]
 80024c0:	68fb      	ldr	r3, [r7, #12]
 80024c2:	021a      	lsls	r2, r3, #8
 80024c4:	68bb      	ldr	r3, [r7, #8]
 80024c6:	4313      	orrs	r3, r2
 80024c8:	f043 63bf 	orr.w	r3, r3, #100139008	; 0x5f80000
 80024cc:	f443 3300 	orr.w	r3, r3, #131072	; 0x20000
 80024d0:	60bb      	str	r3, [r7, #8]
 80024d2:	4a04      	ldr	r2, [pc, #16]	; (80024e4 <__NVIC_SetPriorityGrouping+0x44>)
 80024d4:	68bb      	ldr	r3, [r7, #8]
 80024d6:	60d3      	str	r3, [r2, #12]
 80024d8:	bf00      	nop
 80024da:	3714      	adds	r7, #20
 80024dc:	46bd      	mov	sp, r7
 80024de:	bc80      	pop	{r7}
 80024e0:	4770      	bx	lr
 80024e2:	bf00      	nop
 80024e4:	e000ed00 	.word	0xe000ed00

080024e8 <__NVIC_GetPriorityGrouping>:
 80024e8:	b480      	push	{r7}
 80024ea:	af00      	add	r7, sp, #0
 80024ec:	4b04      	ldr	r3, [pc, #16]	; (8002500 <__NVIC_GetPriorityGrouping+0x18>)
 80024ee:	68db      	ldr	r3, [r3, #12]
 80024f0:	0a1b      	lsrs	r3, r3, #8
 80024f2:	f003 0307 	and.w	r3, r3, #7
 80024f6:	4618      	mov	r0, r3
 80024f8:	46bd      	mov	sp, r7
 80024fa:	bc80      	pop	{r7}
 80024fc:	4770      	bx	lr
 80024fe:	bf00      	nop
 8002500:	e000ed00 	.word	0xe000ed00

08002504 <__NVIC_EnableIRQ>:
 8002504:	b480      	push	{r7}
 8002506:	b083      	sub	sp, #12
 8002508:	af00      	add	r7, sp, #0
 800250a:	4603      	mov	r3, r0
 800250c:	71fb      	strb	r3, [r7, #7]
 800250e:	f997 3007 	ldrsb.w	r3, [r7, #7]
 8002512:	2b00      	cmp	r3, #0
 8002514:	db0b      	blt.n	800252e <__NVIC_EnableIRQ+0x2a>
 8002516:	79fb      	ldrb	r3, [r7, #7]
 8002518:	f003 021f 	and.w	r2, r3, #31
 800251c:	4906      	ldr	r1, [pc, #24]	; (8002538 <__NVIC_EnableIRQ+0x34>)
 800251e:	f997 3007 	ldrsb.w	r3, [r7, #7]
 8002522:	095b      	lsrs	r3, r3, #5
 8002524:	2001      	movs	r0, #1
 8002526:	fa00 f202 	lsl.w	r2, r0, r2
 800252a:	f841 2023 	str.w	r2, [r1, r3, lsl #2]
 800252e:	bf00      	nop
 8002530:	370c      	adds	r7, #12
 8002532:	46bd      	mov	sp, r7
 8002534:	bc80      	pop	{r7}
 8002536:	4770      	bx	lr
 8002538:	e000e100 	.word	0xe000e100

0800253c <__NVIC_SetPriority>:
 800253c:	b480      	push	{r7}
 800253e:	b083      	sub	sp, #12
 8002540:	af00      	add	r7, sp, #0
 8002542:	4603      	mov	r3, r0
 8002544:	6039      	str	r1, [r7, #0]
 8002546:	71fb      	strb	r3, [r7, #7]
 8002548:	f997 3007 	ldrsb.w	r3, [r7, #7]
 800254c:	2b00      	cmp	r3, #0
 800254e:	db0a      	blt.n	8002566 <__NVIC_SetPriority+0x2a>
 8002550:	683b      	ldr	r3, [r7, #0]
 8002552:	b2da      	uxtb	r2, r3
 8002554:	490c      	ldr	r1, [pc, #48]	; (8002588 <__NVIC_SetPriority+0x4c>)
 8002556:	f997 3007 	ldrsb.w	r3, [r7, #7]
 800255a:	0112      	lsls	r2, r2, #4
 800255c:	b2d2      	uxtb	r2, r2
 800255e:	440b      	add	r3, r1
 8002560:	f883 2300 	strb.w	r2, [r3, #768]	; 0x300
 8002564:	e00a      	b.n	800257c <__NVIC_SetPriority+0x40>
 8002566:	683b      	ldr	r3, [r7, #0]
 8002568:	b2da      	uxtb	r2, r3
 800256a:	4908      	ldr	r1, [pc, #32]	; (800258c <__NVIC_SetPriority+0x50>)
 800256c:	79fb      	ldrb	r3, [r7, #7]
 800256e:	f003 030f 	and.w	r3, r3, #15
 8002572:	3b04      	subs	r3, #4
 8002574:	0112      	lsls	r2, r2, #4
 8002576:	b2d2      	uxtb	r2, r2
 8002578:	440b      	add	r3, r1
 800257a:	761a      	strb	r2, [r3, #24]
 800257c:	bf00      	nop
 800257e:	370c      	adds	r7, #12
 8002580:	46bd      	mov	sp, r7
 8002582:	bc80      	pop	{r7}
 8002584:	4770      	bx	lr
 8002586:	bf00      	nop
 8002588:	e000e100 	.word	0xe000e100
 800258c:	e000ed00 	.word	0xe000ed00

08002590 <NVIC_EncodePriority>:
 8002590:	b480      	push	{r7}
 8002592:	b089      	sub	sp, #36	; 0x24
 8002594:	af00      	add	r7, sp, #0
 8002596:	60f8      	str	r0, [r7, #12]
 8002598:	60b9      	str	r1, [r7, #8]
 800259a:	607a      	str	r2, [r7, #4]
 800259c:	68fb      	ldr	r3, [r7, #12]
 800259e:	f003 0307 	and.w	r3, r3, #7
 80025a2:	61fb      	str	r3, [r7, #28]
 80025a4:	69fb      	ldr	r3, [r7, #28]
 80025a6:	f1c3 0307 	rsb	r3, r3, #7
 80025aa:	2b04      	cmp	r3, #4
 80025ac:	bf28      	it	cs
 80025ae:	2304      	movcs	r3, #4
 80025b0:	61bb      	str	r3, [r7, #24]
 80025b2:	69fb      	ldr	r3, [r7, #28]
 80025b4:	3304      	adds	r3, #4
 80025b6:	2b06      	cmp	r3, #6
 80025b8:	d902      	bls.n	80025c0 <NVIC_EncodePriority+0x30>
 80025ba:	69fb      	ldr	r3, [r7, #28]
 80025bc:	3b03      	subs	r3, #3
 80025be:	e000      	b.n	80025c2 <NVIC_EncodePriority+0x32>
 80025c0:	2300      	movs	r3, #0
 80025c2:	617b      	str	r3, [r7, #20]
 80025c4:	f04f 32ff 	mov.w	r2, #4294967295
 80025c8:	69bb      	ldr	r3, [r7, #24]
 80025ca:	fa02 f303 	lsl.w	r3, r2, r3
 80025ce:	43da      	mvns	r2, r3
 80025d0:	68bb      	ldr	r3, [r7, #8]
 80025d2:	401a      	ands	r2, r3
 80025d4:	697b      	ldr	r3, [r7, #20]
 80025d6:	409a      	lsls	r2, r3
 80025d8:	f04f 31ff 	mov.w	r1, #4294967295
 80025dc:	697b      	ldr	r3, [r7, #20]
 80025de:	fa01 f303 	lsl.w	r3, r1, r3
 80025e2:	43d9      	mvns	r1, r3
 80025e4:	687b      	ldr	r3, [r7, #4]
 80025e6:	400b      	ands	r3, r1
 80025e8:	4313      	orrs	r3, r2
 80025ea:	4618      	mov	r0, r3
 80025ec:	3724      	adds	r7, #36	; 0x24
 80025ee:	46bd      	mov	sp, r7
 80025f0:	bc80      	pop	{r7}
 80025f2:	4770      	bx	lr

080025f4 <SysTick_Config>:
 80025f4:	b580      	push	{r7, lr}
 80025f6:	b082      	sub	sp, #8
 80025f8:	af00      	add	r7, sp, #0
 80025fa:	6078      	str	r0, [r7, #4]
 80025fc:	687b      	ldr	r3, [r7, #4]
 80025fe:	3b01      	subs	r3, #1
 8002600:	f1b3 7f80 	cmp.w	r3, #16777216	; 0x1000000
 8002604:	d301      	bcc.n	800260a <SysTick_Config+0x16>
 8002606:	2301      	movs	r3, #1
 8002608:	e00f      	b.n	800262a <SysTick_Config+0x36>
 800260a:	4a0a      	ldr	r2, [pc, #40]	; (8002634 <SysTick_Config+0x40>)
 800260c:	687b      	ldr	r3, [r7, #4]
 800260e:	3b01      	subs	r3, #1
 8002610:	6053      	str	r3, [r2, #4]
 8002612:	210f      	movs	r1, #15
 8002614:	f04f 30ff 	mov.w	r0, #4294967295
 8002618:	f7ff ff90 	bl	800253c <__NVIC_SetPriority>
 800261c:	4b05      	ldr	r3, [pc, #20]	; (8002634 <SysTick_Config+0x40>)
 800261e:	2200      	movs	r2, #0
 8002620:	609a      	str	r2, [r3, #8]
 8002622:	4b04      	ldr	r3, [pc, #16]	; (8002634 <SysTick_Config+0x40>)
 8002624:	2207      	movs	r2, #7
 8002626:	601a      	str	r2, [r3, #0]
 8002628:	2300      	movs	r3, #0
 800262a:	4618      	mov	r0, r3
 800262c:	3708      	adds	r7, #8
 800262e:	46bd      	mov	sp, r7
 8002630:	bd80      	pop	{r7, pc}
 8002632:	bf00      	nop
 8002634:	e000e010 	.word	0xe000e010

08002638 <HAL_NVIC_SetPriorityGrouping>:
 8002638:	b580      	push	{r7, lr}
 800263a:	b082      	sub	sp, #8
 800263c:	af00      	add	r7, sp, #0
 800263e:	6078      	str	r0, [r7, #4]
 8002640:	6878      	ldr	r0, [r7, #4]
 8002642:	f7ff ff2d 	bl	80024a0 <__NVIC_SetPriorityGrouping>
 8002646:	bf00      	nop
 8002648:	3708      	adds	r7, #8
 800264a:	46bd      	mov	sp, r7
 800264c:	bd80      	pop	{r7, pc}

0800264e <HAL_NVIC_SetPriority>:
 800264e:	b580      	push	{r7, lr}
 8002650:	b086      	sub	sp, #24
 8002652:	af00      	add	r7, sp, #0
 8002654:	4603      	mov	r3, r0
 8002656:	60b9      	str	r1, [r7, #8]
 8002658:	607a      	str	r2, [r7, #4]
 800265a:	73fb      	strb	r3, [r7, #15]
 800265c:	2300      	movs	r3, #0
 800265e:	617b      	str	r3, [r7, #20]
 8002660:	f7ff ff42 	bl	80024e8 <__NVIC_GetPriorityGrouping>
 8002664:	6178      	str	r0, [r7, #20]
 8002666:	687a      	ldr	r2, [r7, #4]
 8002668:	68b9      	ldr	r1, [r7, #8]
 800266a:	6978      	ldr	r0, [r7, #20]
 800266c:	f7ff ff90 	bl	8002590 <NVIC_EncodePriority>
 8002670:	4602      	mov	r2, r0
 8002672:	f997 300f 	ldrsb.w	r3, [r7, #15]
 8002676:	4611      	mov	r1, r2
 8002678:	4618      	mov	r0, r3
 800267a:	f7ff ff5f 	bl	800253c <__NVIC_SetPriority>
 800267e:	bf00      	nop
 8002680:	3718      	adds	r7, #24
 8002682:	46bd      	mov	sp, r7
 8002684:	bd80      	pop	{r7, pc}

08002686 <HAL_NVIC_EnableIRQ>:
 8002686:	b580      	push	{r7, lr}
 8002688:	b082      	sub	sp, #8
 800268a:	af00      	add	r7, sp, #0
 800268c:	4603      	mov	r3, r0
 800268e:	71fb      	strb	r3, [r7, #7]
 8002690:	f997 3007 	ldrsb.w	r3, [r7, #7]
 8002694:	4618      	mov	r0, r3
 8002696:	f7ff ff35 	bl	8002504 <__NVIC_EnableIRQ>
 800269a:	bf00      	nop
 800269c:	3708      	adds	r7, #8
 800269e:	46bd      	mov	sp, r7
 80026a0:	bd80      	pop	{r7, pc}

080026a2 <HAL_SYSTICK_Config>:
 80026a2:	b580      	push	{r7, lr}
 80026a4:	b082      	sub	sp, #8
 80026a6:	af00      	add	r7, sp, #0
 80026a8:	6078      	str	r0, [r7, #4]
 80026aa:	6878      	ldr	r0, [r7, #4]
 80026ac:	f7ff ffa2 	bl	80025f4 <SysTick_Config>
 80026b0:	4603      	mov	r3, r0
 80026b2:	4618      	mov	r0, r3
 80026b4:	3708      	adds	r7, #8
 80026b6:	46bd      	mov	sp, r7
 80026b8:	bd80      	pop	{r7, pc}
	...

080026bc <HAL_GPIO_Init>:
 80026bc:	b480      	push	{r7}
 80026be:	b08b      	sub	sp, #44	; 0x2c
 80026c0:	af00      	add	r7, sp, #0
 80026c2:	6078      	str	r0, [r7, #4]
 80026c4:	6039      	str	r1, [r7, #0]
 80026c6:	2300      	movs	r3, #0
 80026c8:	627b      	str	r3, [r7, #36]	; 0x24
 80026ca:	2300      	movs	r3, #0
 80026cc:	623b      	str	r3, [r7, #32]
 80026ce:	e169      	b.n	80029a4 <HAL_GPIO_Init+0x2e8>
 80026d0:	2201      	movs	r2, #1
 80026d2:	6a7b      	ldr	r3, [r7, #36]	; 0x24
 80026d4:	fa02 f303 	lsl.w	r3, r2, r3
 80026d8:	61fb      	str	r3, [r7, #28]
 80026da:	683b      	ldr	r3, [r7, #0]
 80026dc:	681b      	ldr	r3, [r3, #0]
 80026de:	69fa      	ldr	r2, [r7, #28]
 80026e0:	4013      	ands	r3, r2
 80026e2:	61bb      	str	r3, [r7, #24]
 80026e4:	69ba      	ldr	r2, [r7, #24]
 80026e6:	69fb      	ldr	r3, [r7, #28]
 80026e8:	429a      	cmp	r2, r3
 80026ea:	f040 8158 	bne.w	800299e <HAL_GPIO_Init+0x2e2>
 80026ee:	683b      	ldr	r3, [r7, #0]
 80026f0:	685b      	ldr	r3, [r3, #4]
 80026f2:	4a9a      	ldr	r2, [pc, #616]	; (800295c <HAL_GPIO_Init+0x2a0>)
 80026f4:	4293      	cmp	r3, r2
 80026f6:	d05e      	beq.n	80027b6 <HAL_GPIO_Init+0xfa>
 80026f8:	4a98      	ldr	r2, [pc, #608]	; (800295c <HAL_GPIO_Init+0x2a0>)
 80026fa:	4293      	cmp	r3, r2
 80026fc:	d875      	bhi.n	80027ea <HAL_GPIO_Init+0x12e>
 80026fe:	4a98      	ldr	r2, [pc, #608]	; (8002960 <HAL_GPIO_Init+0x2a4>)
 8002700:	4293      	cmp	r3, r2
 8002702:	d058      	beq.n	80027b6 <HAL_GPIO_Init+0xfa>
 8002704:	4a96      	ldr	r2, [pc, #600]	; (8002960 <HAL_GPIO_Init+0x2a4>)
 8002706:	4293      	cmp	r3, r2
 8002708:	d86f      	bhi.n	80027ea <HAL_GPIO_Init+0x12e>
 800270a:	4a96      	ldr	r2, [pc, #600]	; (8002964 <HAL_GPIO_Init+0x2a8>)
 800270c:	4293      	cmp	r3, r2
 800270e:	d052      	beq.n	80027b6 <HAL_GPIO_Init+0xfa>
 8002710:	4a94      	ldr	r2, [pc, #592]	; (8002964 <HAL_GPIO_Init+0x2a8>)
 8002712:	4293      	cmp	r3, r2
 8002714:	d869      	bhi.n	80027ea <HAL_GPIO_Init+0x12e>
 8002716:	4a94      	ldr	r2, [pc, #592]	; (8002968 <HAL_GPIO_Init+0x2ac>)
 8002718:	4293      	cmp	r3, r2
 800271a:	d04c      	beq.n	80027b6 <HAL_GPIO_Init+0xfa>
 800271c:	4a92      	ldr	r2, [pc, #584]	; (8002968 <HAL_GPIO_Init+0x2ac>)
 800271e:	4293      	cmp	r3, r2
 8002720:	d863      	bhi.n	80027ea <HAL_GPIO_Init+0x12e>
 8002722:	4a92      	ldr	r2, [pc, #584]	; (800296c <HAL_GPIO_Init+0x2b0>)
 8002724:	4293      	cmp	r3, r2
 8002726:	d046      	beq.n	80027b6 <HAL_GPIO_Init+0xfa>
 8002728:	4a90      	ldr	r2, [pc, #576]	; (800296c <HAL_GPIO_Init+0x2b0>)
 800272a:	4293      	cmp	r3, r2
 800272c:	d85d      	bhi.n	80027ea <HAL_GPIO_Init+0x12e>
 800272e:	2b12      	cmp	r3, #18
 8002730:	d82a      	bhi.n	8002788 <HAL_GPIO_Init+0xcc>
 8002732:	2b12      	cmp	r3, #18
 8002734:	d859      	bhi.n	80027ea <HAL_GPIO_Init+0x12e>
 8002736:	a201      	add	r2, pc, #4	; (adr r2, 800273c <HAL_GPIO_Init+0x80>)
 8002738:	f852 f023 	ldr.w	pc, [r2, r3, lsl #2]
 800273c:	080027b7 	.word	0x080027b7
 8002740:	08002791 	.word	0x08002791
 8002744:	080027a3 	.word	0x080027a3
 8002748:	080027e5 	.word	0x080027e5
 800274c:	080027eb 	.word	0x080027eb
 8002750:	080027eb 	.word	0x080027eb
 8002754:	080027eb 	.word	0x080027eb
 8002758:	080027eb 	.word	0x080027eb
 800275c:	080027eb 	.word	0x080027eb
 8002760:	080027eb 	.word	0x080027eb
 8002764:	080027eb 	.word	0x080027eb
 8002768:	080027eb 	.word	0x080027eb
 800276c:	080027eb 	.word	0x080027eb
 8002770:	080027eb 	.word	0x080027eb
 8002774:	080027eb 	.word	0x080027eb
 8002778:	080027eb 	.word	0x080027eb
 800277c:	080027eb 	.word	0x080027eb
 8002780:	08002799 	.word	0x08002799
 8002784:	080027ad 	.word	0x080027ad
 8002788:	4a79      	ldr	r2, [pc, #484]	; (8002970 <HAL_GPIO_Init+0x2b4>)
 800278a:	4293      	cmp	r3, r2
 800278c:	d013      	beq.n	80027b6 <HAL_GPIO_Init+0xfa>
 800278e:	e02c      	b.n	80027ea <HAL_GPIO_Init+0x12e>
 8002790:	683b      	ldr	r3, [r7, #0]
 8002792:	68db      	ldr	r3, [r3, #12]
 8002794:	623b      	str	r3, [r7, #32]
 8002796:	e029      	b.n	80027ec <HAL_GPIO_Init+0x130>
 8002798:	683b      	ldr	r3, [r7, #0]
 800279a:	68db      	ldr	r3, [r3, #12]
 800279c:	3304      	adds	r3, #4
 800279e:	623b      	str	r3, [r7, #32]
 80027a0:	e024      	b.n	80027ec <HAL_GPIO_Init+0x130>
 80027a2:	683b      	ldr	r3, [r7, #0]
 80027a4:	68db      	ldr	r3, [r3, #12]
 80027a6:	3308      	adds	r3, #8
 80027a8:	623b      	str	r3, [r7, #32]
 80027aa:	e01f      	b.n	80027ec <HAL_GPIO_Init+0x130>
 80027ac:	683b      	ldr	r3, [r7, #0]
 80027ae:	68db      	ldr	r3, [r3, #12]
 80027b0:	330c      	adds	r3, #12
 80027b2:	623b      	str	r3, [r7, #32]
 80027b4:	e01a      	b.n	80027ec <HAL_GPIO_Init+0x130>
 80027b6:	683b      	ldr	r3, [r7, #0]
 80027b8:	689b      	ldr	r3, [r3, #8]
 80027ba:	2b00      	cmp	r3, #0
 80027bc:	d102      	bne.n	80027c4 <HAL_GPIO_Init+0x108>
 80027be:	2304      	movs	r3, #4
 80027c0:	623b      	str	r3, [r7, #32]
 80027c2:	e013      	b.n	80027ec <HAL_GPIO_Init+0x130>
 80027c4:	683b      	ldr	r3, [r7, #0]
 80027c6:	689b      	ldr	r3, [r3, #8]
 80027c8:	2b01      	cmp	r3, #1
 80027ca:	d105      	bne.n	80027d8 <HAL_GPIO_Init+0x11c>
 80027cc:	2308      	movs	r3, #8
 80027ce:	623b      	str	r3, [r7, #32]
 80027d0:	687b      	ldr	r3, [r7, #4]
 80027d2:	69fa      	ldr	r2, [r7, #28]
 80027d4:	611a      	str	r2, [r3, #16]
 80027d6:	e009      	b.n	80027ec <HAL_GPIO_Init+0x130>
 80027d8:	2308      	movs	r3, #8
 80027da:	623b      	str	r3, [r7, #32]
 80027dc:	687b      	ldr	r3, [r7, #4]
 80027de:	69fa      	ldr	r2, [r7, #28]
 80027e0:	615a      	str	r2, [r3, #20]
 80027e2:	e003      	b.n	80027ec <HAL_GPIO_Init+0x130>
 80027e4:	2300      	movs	r3, #0
 80027e6:	623b      	str	r3, [r7, #32]
 80027e8:	e000      	b.n	80027ec <HAL_GPIO_Init+0x130>
 80027ea:	bf00      	nop
 80027ec:	69bb      	ldr	r3, [r7, #24]
 80027ee:	2bff      	cmp	r3, #255	; 0xff
 80027f0:	d801      	bhi.n	80027f6 <HAL_GPIO_Init+0x13a>
 80027f2:	687b      	ldr	r3, [r7, #4]
 80027f4:	e001      	b.n	80027fa <HAL_GPIO_Init+0x13e>
 80027f6:	687b      	ldr	r3, [r7, #4]
 80027f8:	3304      	adds	r3, #4
 80027fa:	617b      	str	r3, [r7, #20]
 80027fc:	69bb      	ldr	r3, [r7, #24]
 80027fe:	2bff      	cmp	r3, #255	; 0xff
 8002800:	d802      	bhi.n	8002808 <HAL_GPIO_Init+0x14c>
 8002802:	6a7b      	ldr	r3, [r7, #36]	; 0x24
 8002804:	009b      	lsls	r3, r3, #2
 8002806:	e002      	b.n	800280e <HAL_GPIO_Init+0x152>
 8002808:	6a7b      	ldr	r3, [r7, #36]	; 0x24
 800280a:	3b08      	subs	r3, #8
 800280c:	009b      	lsls	r3, r3, #2
 800280e:	613b      	str	r3, [r7, #16]
 8002810:	697b      	ldr	r3, [r7, #20]
 8002812:	681a      	ldr	r2, [r3, #0]
 8002814:	210f      	movs	r1, #15
 8002816:	693b      	ldr	r3, [r7, #16]
 8002818:	fa01 f303 	lsl.w	r3, r1, r3
 800281c:	43db      	mvns	r3, r3
 800281e:	401a      	ands	r2, r3
 8002820:	6a39      	ldr	r1, [r7, #32]
 8002822:	693b      	ldr	r3, [r7, #16]
 8002824:	fa01 f303 	lsl.w	r3, r1, r3
 8002828:	431a      	orrs	r2, r3
 800282a:	697b      	ldr	r3, [r7, #20]
 800282c:	601a      	str	r2, [r3, #0]
 800282e:	683b      	ldr	r3, [r7, #0]
 8002830:	685b      	ldr	r3, [r3, #4]
 8002832:	f003 5380 	and.w	r3, r3, #268435456	; 0x10000000
 8002836:	2b00      	cmp	r3, #0
 8002838:	f000 80b1 	beq.w	800299e <HAL_GPIO_Init+0x2e2>
 800283c:	4b4d      	ldr	r3, [pc, #308]	; (8002974 <HAL_GPIO_Init+0x2b8>)
 800283e:	699b      	ldr	r3, [r3, #24]
 8002840:	4a4c      	ldr	r2, [pc, #304]	; (8002974 <HAL_GPIO_Init+0x2b8>)
 8002842:	f043 0301 	orr.w	r3, r3, #1
 8002846:	6193      	str	r3, [r2, #24]
 8002848:	4b4a      	ldr	r3, [pc, #296]	; (8002974 <HAL_GPIO_Init+0x2b8>)
 800284a:	699b      	ldr	r3, [r3, #24]
 800284c:	f003 0301 	and.w	r3, r3, #1
 8002850:	60bb      	str	r3, [r7, #8]
 8002852:	68bb      	ldr	r3, [r7, #8]
 8002854:	4a48      	ldr	r2, [pc, #288]	; (8002978 <HAL_GPIO_Init+0x2bc>)
 8002856:	6a7b      	ldr	r3, [r7, #36]	; 0x24
 8002858:	089b      	lsrs	r3, r3, #2
 800285a:	3302      	adds	r3, #2
 800285c:	f852 3023 	ldr.w	r3, [r2, r3, lsl #2]
 8002860:	60fb      	str	r3, [r7, #12]
 8002862:	6a7b      	ldr	r3, [r7, #36]	; 0x24
 8002864:	f003 0303 	and.w	r3, r3, #3
 8002868:	009b      	lsls	r3, r3, #2
 800286a:	220f      	movs	r2, #15
 800286c:	fa02 f303 	lsl.w	r3, r2, r3
 8002870:	43db      	mvns	r3, r3
 8002872:	68fa      	ldr	r2, [r7, #12]
 8002874:	4013      	ands	r3, r2
 8002876:	60fb      	str	r3, [r7, #12]
 8002878:	687b      	ldr	r3, [r7, #4]
 800287a:	4a40      	ldr	r2, [pc, #256]	; (800297c <HAL_GPIO_Init+0x2c0>)
 800287c:	4293      	cmp	r3, r2
 800287e:	d013      	beq.n	80028a8 <HAL_GPIO_Init+0x1ec>
 8002880:	687b      	ldr	r3, [r7, #4]
 8002882:	4a3f      	ldr	r2, [pc, #252]	; (8002980 <HAL_GPIO_Init+0x2c4>)
 8002884:	4293      	cmp	r3, r2
 8002886:	d00d      	beq.n	80028a4 <HAL_GPIO_Init+0x1e8>
 8002888:	687b      	ldr	r3, [r7, #4]
 800288a:	4a3e      	ldr	r2, [pc, #248]	; (8002984 <HAL_GPIO_Init+0x2c8>)
 800288c:	4293      	cmp	r3, r2
 800288e:	d007      	beq.n	80028a0 <HAL_GPIO_Init+0x1e4>
 8002890:	687b      	ldr	r3, [r7, #4]
 8002892:	4a3d      	ldr	r2, [pc, #244]	; (8002988 <HAL_GPIO_Init+0x2cc>)
 8002894:	4293      	cmp	r3, r2
 8002896:	d101      	bne.n	800289c <HAL_GPIO_Init+0x1e0>
 8002898:	2303      	movs	r3, #3
 800289a:	e006      	b.n	80028aa <HAL_GPIO_Init+0x1ee>
 800289c:	2304      	movs	r3, #4
 800289e:	e004      	b.n	80028aa <HAL_GPIO_Init+0x1ee>
 80028a0:	2302      	movs	r3, #2
 80028a2:	e002      	b.n	80028aa <HAL_GPIO_Init+0x1ee>
 80028a4:	2301      	movs	r3, #1
 80028a6:	e000      	b.n	80028aa <HAL_GPIO_Init+0x1ee>
 80028a8:	2300      	movs	r3, #0
 80028aa:	6a7a      	ldr	r2, [r7, #36]	; 0x24
 80028ac:	f002 0203 	and.w	r2, r2, #3
 80028b0:	0092      	lsls	r2, r2, #2
 80028b2:	4093      	lsls	r3, r2
 80028b4:	68fa      	ldr	r2, [r7, #12]
 80028b6:	4313      	orrs	r3, r2
 80028b8:	60fb      	str	r3, [r7, #12]
 80028ba:	492f      	ldr	r1, [pc, #188]	; (8002978 <HAL_GPIO_Init+0x2bc>)
 80028bc:	6a7b      	ldr	r3, [r7, #36]	; 0x24
 80028be:	089b      	lsrs	r3, r3, #2
 80028c0:	3302      	adds	r3, #2
 80028c2:	68fa      	ldr	r2, [r7, #12]
 80028c4:	f841 2023 	str.w	r2, [r1, r3, lsl #2]
 80028c8:	683b      	ldr	r3, [r7, #0]
 80028ca:	685b      	ldr	r3, [r3, #4]
 80028cc:	f403 1380 	and.w	r3, r3, #1048576	; 0x100000
 80028d0:	2b00      	cmp	r3, #0
 80028d2:	d006      	beq.n	80028e2 <HAL_GPIO_Init+0x226>
 80028d4:	4b2d      	ldr	r3, [pc, #180]	; (800298c <HAL_GPIO_Init+0x2d0>)
 80028d6:	689a      	ldr	r2, [r3, #8]
 80028d8:	492c      	ldr	r1, [pc, #176]	; (800298c <HAL_GPIO_Init+0x2d0>)
 80028da:	69bb      	ldr	r3, [r7, #24]
 80028dc:	4313      	orrs	r3, r2
 80028de:	608b      	str	r3, [r1, #8]
 80028e0:	e006      	b.n	80028f0 <HAL_GPIO_Init+0x234>
 80028e2:	4b2a      	ldr	r3, [pc, #168]	; (800298c <HAL_GPIO_Init+0x2d0>)
 80028e4:	689a      	ldr	r2, [r3, #8]
 80028e6:	69bb      	ldr	r3, [r7, #24]
 80028e8:	43db      	mvns	r3, r3
 80028ea:	4928      	ldr	r1, [pc, #160]	; (800298c <HAL_GPIO_Init+0x2d0>)
 80028ec:	4013      	ands	r3, r2
 80028ee:	608b      	str	r3, [r1, #8]
 80028f0:	683b      	ldr	r3, [r7, #0]
 80028f2:	685b      	ldr	r3, [r3, #4]
 80028f4:	f403 1300 	and.w	r3, r3, #2097152	; 0x200000
 80028f8:	2b00      	cmp	r3, #0
 80028fa:	d006      	beq.n	800290a <HAL_GPIO_Init+0x24e>
 80028fc:	4b23      	ldr	r3, [pc, #140]	; (800298c <HAL_GPIO_Init+0x2d0>)
 80028fe:	68da      	ldr	r2, [r3, #12]
 8002900:	4922      	ldr	r1, [pc, #136]	; (800298c <HAL_GPIO_Init+0x2d0>)
 8002902:	69bb      	ldr	r3, [r7, #24]
 8002904:	4313      	orrs	r3, r2
 8002906:	60cb      	str	r3, [r1, #12]
 8002908:	e006      	b.n	8002918 <HAL_GPIO_Init+0x25c>
 800290a:	4b20      	ldr	r3, [pc, #128]	; (800298c <HAL_GPIO_Init+0x2d0>)
 800290c:	68da      	ldr	r2, [r3, #12]
 800290e:	69bb      	ldr	r3, [r7, #24]
 8002910:	43db      	mvns	r3, r3
 8002912:	491e      	ldr	r1, [pc, #120]	; (800298c <HAL_GPIO_Init+0x2d0>)
 8002914:	4013      	ands	r3, r2
 8002916:	60cb      	str	r3, [r1, #12]
 8002918:	683b      	ldr	r3, [r7, #0]
 800291a:	685b      	ldr	r3, [r3, #4]
 800291c:	f403 3300 	and.w	r3, r3, #131072	; 0x20000
 8002920:	2b00      	cmp	r3, #0
 8002922:	d006      	beq.n	8002932 <HAL_GPIO_Init+0x276>
 8002924:	4b19      	ldr	r3, [pc, #100]	; (800298c <HAL_GPIO_Init+0x2d0>)
 8002926:	685a      	ldr	r2, [r3, #4]
 8002928:	4918      	ldr	r1, [pc, #96]	; (800298c <HAL_GPIO_Init+0x2d0>)
 800292a:	69bb      	ldr	r3, [r7, #24]
 800292c:	4313      	orrs	r3, r2
 800292e:	604b      	str	r3, [r1, #4]
 8002930:	e006      	b.n	8002940 <HAL_GPIO_Init+0x284>
 8002932:	4b16      	ldr	r3, [pc, #88]	; (800298c <HAL_GPIO_Init+0x2d0>)
 8002934:	685a      	ldr	r2, [r3, #4]
 8002936:	69bb      	ldr	r3, [r7, #24]
 8002938:	43db      	mvns	r3, r3
 800293a:	4914      	ldr	r1, [pc, #80]	; (800298c <HAL_GPIO_Init+0x2d0>)
 800293c:	4013      	ands	r3, r2
 800293e:	604b      	str	r3, [r1, #4]
 8002940:	683b      	ldr	r3, [r7, #0]
 8002942:	685b      	ldr	r3, [r3, #4]
 8002944:	f403 3380 	and.w	r3, r3, #65536	; 0x10000
 8002948:	2b00      	cmp	r3, #0
 800294a:	d021      	beq.n	8002990 <HAL_GPIO_Init+0x2d4>
 800294c:	4b0f      	ldr	r3, [pc, #60]	; (800298c <HAL_GPIO_Init+0x2d0>)
 800294e:	681a      	ldr	r2, [r3, #0]
 8002950:	490e      	ldr	r1, [pc, #56]	; (800298c <HAL_GPIO_Init+0x2d0>)
 8002952:	69bb      	ldr	r3, [r7, #24]
 8002954:	4313      	orrs	r3, r2
 8002956:	600b      	str	r3, [r1, #0]
 8002958:	e021      	b.n	800299e <HAL_GPIO_Init+0x2e2>
 800295a:	bf00      	nop
 800295c:	10320000 	.word	0x10320000
 8002960:	10310000 	.word	0x10310000
 8002964:	10220000 	.word	0x10220000
 8002968:	10210000 	.word	0x10210000
 800296c:	10120000 	.word	0x10120000
 8002970:	10110000 	.word	0x10110000
 8002974:	40021000 	.word	0x40021000
 8002978:	40010000 	.word	0x40010000
 800297c:	40010800 	.word	0x40010800
 8002980:	40010c00 	.word	0x40010c00
 8002984:	40011000 	.word	0x40011000
 8002988:	40011400 	.word	0x40011400
 800298c:	40010400 	.word	0x40010400
 8002990:	4b0b      	ldr	r3, [pc, #44]	; (80029c0 <HAL_GPIO_Init+0x304>)
 8002992:	681a      	ldr	r2, [r3, #0]
 8002994:	69bb      	ldr	r3, [r7, #24]
 8002996:	43db      	mvns	r3, r3
 8002998:	4909      	ldr	r1, [pc, #36]	; (80029c0 <HAL_GPIO_Init+0x304>)
 800299a:	4013      	ands	r3, r2
 800299c:	600b      	str	r3, [r1, #0]
 800299e:	6a7b      	ldr	r3, [r7, #36]	; 0x24
 80029a0:	3301      	adds	r3, #1
 80029a2:	627b      	str	r3, [r7, #36]	; 0x24
 80029a4:	683b      	ldr	r3, [r7, #0]
 80029a6:	681a      	ldr	r2, [r3, #0]
 80029a8:	6a7b      	ldr	r3, [r7, #36]	; 0x24
 80029aa:	fa22 f303 	lsr.w	r3, r2, r3
 80029ae:	2b00      	cmp	r3, #0
 80029b0:	f47f ae8e 	bne.w	80026d0 <HAL_GPIO_Init+0x14>
 80029b4:	bf00      	nop
 80029b6:	bf00      	nop
 80029b8:	372c      	adds	r7, #44	; 0x2c
 80029ba:	46bd      	mov	sp, r7
 80029bc:	bc80      	pop	{r7}
 80029be:	4770      	bx	lr
 80029c0:	40010400 	.word	0x40010400

080029c4 <HAL_GPIO_WritePin>:
 80029c4:	b480      	push	{r7}
 80029c6:	b083      	sub	sp, #12
 80029c8:	af00      	add	r7, sp, #0
 80029ca:	6078      	str	r0, [r7, #4]
 80029cc:	460b      	mov	r3, r1
 80029ce:	807b      	strh	r3, [r7, #2]
 80029d0:	4613      	mov	r3, r2
 80029d2:	707b      	strb	r3, [r7, #1]
 80029d4:	787b      	ldrb	r3, [r7, #1]
 80029d6:	2b00      	cmp	r3, #0
 80029d8:	d003      	beq.n	80029e2 <HAL_GPIO_WritePin+0x1e>
 80029da:	887a      	ldrh	r2, [r7, #2]
 80029dc:	687b      	ldr	r3, [r7, #4]
 80029de:	611a      	str	r2, [r3, #16]
 80029e0:	e003      	b.n	80029ea <HAL_GPIO_WritePin+0x26>
 80029e2:	887b      	ldrh	r3, [r7, #2]
 80029e4:	041a      	lsls	r2, r3, #16
 80029e6:	687b      	ldr	r3, [r7, #4]
 80029e8:	611a      	str	r2, [r3, #16]
 80029ea:	bf00      	nop
 80029ec:	370c      	adds	r7, #12
 80029ee:	46bd      	mov	sp, r7
 80029f0:	bc80      	pop	{r7}
 80029f2:	4770      	bx	lr

080029f4 <HAL_GPIO_TogglePin>:
 80029f4:	b480      	push	{r7}
 80029f6:	b085      	sub	sp, #20
 80029f8:	af00      	add	r7, sp, #0
 80029fa:	6078      	str	r0, [r7, #4]
 80029fc:	460b      	mov	r3, r1
 80029fe:	807b      	strh	r3, [r7, #2]
 8002a00:	687b      	ldr	r3, [r7, #4]
 8002a02:	68db      	ldr	r3, [r3, #12]
 8002a04:	60fb      	str	r3, [r7, #12]
 8002a06:	887a      	ldrh	r2, [r7, #2]
 8002a08:	68fb      	ldr	r3, [r7, #12]
 8002a0a:	4013      	ands	r3, r2
 8002a0c:	041a      	lsls	r2, r3, #16
 8002a0e:	68fb      	ldr	r3, [r7, #12]
 8002a10:	43d9      	mvns	r1, r3
 8002a12:	887b      	ldrh	r3, [r7, #2]
 8002a14:	400b      	ands	r3, r1
 8002a16:	431a      	orrs	r2, r3
 8002a18:	687b      	ldr	r3, [r7, #4]
 8002a1a:	611a      	str	r2, [r3, #16]
 8002a1c:	bf00      	nop
 8002a1e:	3714      	adds	r7, #20
 8002a20:	46bd      	mov	sp, r7
 8002a22:	bc80      	pop	{r7}
 8002a24:	4770      	bx	lr
	...

08002a28 <HAL_I2C_Init>:
 8002a28:	b580      	push	{r7, lr}
 8002a2a:	b084      	sub	sp, #16
 8002a2c:	af00      	add	r7, sp, #0
 8002a2e:	6078      	str	r0, [r7, #4]
 8002a30:	687b      	ldr	r3, [r7, #4]
 8002a32:	2b00      	cmp	r3, #0
 8002a34:	d101      	bne.n	8002a3a <HAL_I2C_Init+0x12>
 8002a36:	2301      	movs	r3, #1
 8002a38:	e12b      	b.n	8002c92 <HAL_I2C_Init+0x26a>
 8002a3a:	687b      	ldr	r3, [r7, #4]
 8002a3c:	f893 303d 	ldrb.w	r3, [r3, #61]	; 0x3d
 8002a40:	b2db      	uxtb	r3, r3
 8002a42:	2b00      	cmp	r3, #0
 8002a44:	d106      	bne.n	8002a54 <HAL_I2C_Init+0x2c>
 8002a46:	687b      	ldr	r3, [r7, #4]
 8002a48:	2200      	movs	r2, #0
 8002a4a:	f883 203c 	strb.w	r2, [r3, #60]	; 0x3c
 8002a4e:	6878      	ldr	r0, [r7, #4]
 8002a50:	f7ff fb30 	bl	80020b4 <HAL_I2C_MspInit>
 8002a54:	687b      	ldr	r3, [r7, #4]
 8002a56:	2224      	movs	r2, #36	; 0x24
 8002a58:	f883 203d 	strb.w	r2, [r3, #61]	; 0x3d
 8002a5c:	687b      	ldr	r3, [r7, #4]
 8002a5e:	681b      	ldr	r3, [r3, #0]
 8002a60:	681a      	ldr	r2, [r3, #0]
 8002a62:	687b      	ldr	r3, [r7, #4]
 8002a64:	681b      	ldr	r3, [r3, #0]
 8002a66:	f022 0201 	bic.w	r2, r2, #1
 8002a6a:	601a      	str	r2, [r3, #0]
 8002a6c:	687b      	ldr	r3, [r7, #4]
 8002a6e:	681b      	ldr	r3, [r3, #0]
 8002a70:	681a      	ldr	r2, [r3, #0]
 8002a72:	687b      	ldr	r3, [r7, #4]
 8002a74:	681b      	ldr	r3, [r3, #0]
 8002a76:	f442 4200 	orr.w	r2, r2, #32768	; 0x8000
 8002a7a:	601a      	str	r2, [r3, #0]
 8002a7c:	687b      	ldr	r3, [r7, #4]
 8002a7e:	681b      	ldr	r3, [r3, #0]
 8002a80:	681a      	ldr	r2, [r3, #0]
 8002a82:	687b      	ldr	r3, [r7, #4]
 8002a84:	681b      	ldr	r3, [r3, #0]
 8002a86:	f422 4200 	bic.w	r2, r2, #32768	; 0x8000
 8002a8a:	601a      	str	r2, [r3, #0]
 8002a8c:	f001 fcf8 	bl	8004480 <HAL_RCC_GetPCLK1Freq>
 8002a90:	60f8      	str	r0, [r7, #12]
 8002a92:	687b      	ldr	r3, [r7, #4]
 8002a94:	685b      	ldr	r3, [r3, #4]
 8002a96:	4a81      	ldr	r2, [pc, #516]	; (8002c9c <HAL_I2C_Init+0x274>)
 8002a98:	4293      	cmp	r3, r2
 8002a9a:	d807      	bhi.n	8002aac <HAL_I2C_Init+0x84>
 8002a9c:	68fb      	ldr	r3, [r7, #12]
 8002a9e:	4a80      	ldr	r2, [pc, #512]	; (8002ca0 <HAL_I2C_Init+0x278>)
 8002aa0:	4293      	cmp	r3, r2
 8002aa2:	bf94      	ite	ls
 8002aa4:	2301      	movls	r3, #1
 8002aa6:	2300      	movhi	r3, #0
 8002aa8:	b2db      	uxtb	r3, r3
 8002aaa:	e006      	b.n	8002aba <HAL_I2C_Init+0x92>
 8002aac:	68fb      	ldr	r3, [r7, #12]
 8002aae:	4a7d      	ldr	r2, [pc, #500]	; (8002ca4 <HAL_I2C_Init+0x27c>)
 8002ab0:	4293      	cmp	r3, r2
 8002ab2:	bf94      	ite	ls
 8002ab4:	2301      	movls	r3, #1
 8002ab6:	2300      	movhi	r3, #0
 8002ab8:	b2db      	uxtb	r3, r3
 8002aba:	2b00      	cmp	r3, #0
 8002abc:	d001      	beq.n	8002ac2 <HAL_I2C_Init+0x9a>
 8002abe:	2301      	movs	r3, #1
 8002ac0:	e0e7      	b.n	8002c92 <HAL_I2C_Init+0x26a>
 8002ac2:	68fb      	ldr	r3, [r7, #12]
 8002ac4:	4a78      	ldr	r2, [pc, #480]	; (8002ca8 <HAL_I2C_Init+0x280>)
 8002ac6:	fba2 2303 	umull	r2, r3, r2, r3
 8002aca:	0c9b      	lsrs	r3, r3, #18
 8002acc:	60bb      	str	r3, [r7, #8]
 8002ace:	687b      	ldr	r3, [r7, #4]
 8002ad0:	681b      	ldr	r3, [r3, #0]
 8002ad2:	685b      	ldr	r3, [r3, #4]
 8002ad4:	f023 013f 	bic.w	r1, r3, #63	; 0x3f
 8002ad8:	687b      	ldr	r3, [r7, #4]
 8002ada:	681b      	ldr	r3, [r3, #0]
 8002adc:	68ba      	ldr	r2, [r7, #8]
 8002ade:	430a      	orrs	r2, r1
 8002ae0:	605a      	str	r2, [r3, #4]
 8002ae2:	687b      	ldr	r3, [r7, #4]
 8002ae4:	681b      	ldr	r3, [r3, #0]
 8002ae6:	6a1b      	ldr	r3, [r3, #32]
 8002ae8:	f023 013f 	bic.w	r1, r3, #63	; 0x3f
 8002aec:	687b      	ldr	r3, [r7, #4]
 8002aee:	685b      	ldr	r3, [r3, #4]
 8002af0:	4a6a      	ldr	r2, [pc, #424]	; (8002c9c <HAL_I2C_Init+0x274>)
 8002af2:	4293      	cmp	r3, r2
 8002af4:	d802      	bhi.n	8002afc <HAL_I2C_Init+0xd4>
 8002af6:	68bb      	ldr	r3, [r7, #8]
 8002af8:	3301      	adds	r3, #1
 8002afa:	e009      	b.n	8002b10 <HAL_I2C_Init+0xe8>
 8002afc:	68bb      	ldr	r3, [r7, #8]
 8002afe:	f44f 7296 	mov.w	r2, #300	; 0x12c
 8002b02:	fb02 f303 	mul.w	r3, r2, r3
 8002b06:	4a69      	ldr	r2, [pc, #420]	; (8002cac <HAL_I2C_Init+0x284>)
 8002b08:	fba2 2303 	umull	r2, r3, r2, r3
 8002b0c:	099b      	lsrs	r3, r3, #6
 8002b0e:	3301      	adds	r3, #1
 8002b10:	687a      	ldr	r2, [r7, #4]
 8002b12:	6812      	ldr	r2, [r2, #0]
 8002b14:	430b      	orrs	r3, r1
 8002b16:	6213      	str	r3, [r2, #32]
 8002b18:	687b      	ldr	r3, [r7, #4]
 8002b1a:	681b      	ldr	r3, [r3, #0]
 8002b1c:	69db      	ldr	r3, [r3, #28]
 8002b1e:	f423 424f 	bic.w	r2, r3, #52992	; 0xcf00
 8002b22:	f022 02ff 	bic.w	r2, r2, #255	; 0xff
 8002b26:	687b      	ldr	r3, [r7, #4]
 8002b28:	685b      	ldr	r3, [r3, #4]
 8002b2a:	495c      	ldr	r1, [pc, #368]	; (8002c9c <HAL_I2C_Init+0x274>)
 8002b2c:	428b      	cmp	r3, r1
 8002b2e:	d819      	bhi.n	8002b64 <HAL_I2C_Init+0x13c>
 8002b30:	68fb      	ldr	r3, [r7, #12]
 8002b32:	1e59      	subs	r1, r3, #1
 8002b34:	687b      	ldr	r3, [r7, #4]
 8002b36:	685b      	ldr	r3, [r3, #4]
 8002b38:	005b      	lsls	r3, r3, #1
 8002b3a:	fbb1 f3f3 	udiv	r3, r1, r3
 8002b3e:	1c59      	adds	r1, r3, #1
 8002b40:	f640 73fc 	movw	r3, #4092	; 0xffc
 8002b44:	400b      	ands	r3, r1
 8002b46:	2b00      	cmp	r3, #0
 8002b48:	d00a      	beq.n	8002b60 <HAL_I2C_Init+0x138>
 8002b4a:	68fb      	ldr	r3, [r7, #12]
 8002b4c:	1e59      	subs	r1, r3, #1
 8002b4e:	687b      	ldr	r3, [r7, #4]
 8002b50:	685b      	ldr	r3, [r3, #4]
 8002b52:	005b      	lsls	r3, r3, #1
 8002b54:	fbb1 f3f3 	udiv	r3, r1, r3
 8002b58:	3301      	adds	r3, #1
 8002b5a:	f3c3 030b 	ubfx	r3, r3, #0, #12
 8002b5e:	e051      	b.n	8002c04 <HAL_I2C_Init+0x1dc>
 8002b60:	2304      	movs	r3, #4
 8002b62:	e04f      	b.n	8002c04 <HAL_I2C_Init+0x1dc>
 8002b64:	687b      	ldr	r3, [r7, #4]
 8002b66:	689b      	ldr	r3, [r3, #8]
 8002b68:	2b00      	cmp	r3, #0
 8002b6a:	d111      	bne.n	8002b90 <HAL_I2C_Init+0x168>
 8002b6c:	68fb      	ldr	r3, [r7, #12]
 8002b6e:	1e58      	subs	r0, r3, #1
 8002b70:	687b      	ldr	r3, [r7, #4]
 8002b72:	6859      	ldr	r1, [r3, #4]
 8002b74:	460b      	mov	r3, r1
 8002b76:	005b      	lsls	r3, r3, #1
 8002b78:	440b      	add	r3, r1
 8002b7a:	fbb0 f3f3 	udiv	r3, r0, r3
 8002b7e:	3301      	adds	r3, #1
 8002b80:	f3c3 030b 	ubfx	r3, r3, #0, #12
 8002b84:	2b00      	cmp	r3, #0
 8002b86:	bf0c      	ite	eq
 8002b88:	2301      	moveq	r3, #1
 8002b8a:	2300      	movne	r3, #0
 8002b8c:	b2db      	uxtb	r3, r3
 8002b8e:	e012      	b.n	8002bb6 <HAL_I2C_Init+0x18e>
 8002b90:	68fb      	ldr	r3, [r7, #12]
 8002b92:	1e58      	subs	r0, r3, #1
 8002b94:	687b      	ldr	r3, [r7, #4]
 8002b96:	6859      	ldr	r1, [r3, #4]
 8002b98:	460b      	mov	r3, r1
 8002b9a:	009b      	lsls	r3, r3, #2
 8002b9c:	440b      	add	r3, r1
 8002b9e:	0099      	lsls	r1, r3, #2
 8002ba0:	440b      	add	r3, r1
 8002ba2:	fbb0 f3f3 	udiv	r3, r0, r3
 8002ba6:	3301      	adds	r3, #1
 8002ba8:	f3c3 030b 	ubfx	r3, r3, #0, #12
 8002bac:	2b00      	cmp	r3, #0
 8002bae:	bf0c      	ite	eq
 8002bb0:	2301      	moveq	r3, #1
 8002bb2:	2300      	movne	r3, #0
 8002bb4:	b2db      	uxtb	r3, r3
 8002bb6:	2b00      	cmp	r3, #0
 8002bb8:	d001      	beq.n	8002bbe <HAL_I2C_Init+0x196>
 8002bba:	2301      	movs	r3, #1
 8002bbc:	e022      	b.n	8002c04 <HAL_I2C_Init+0x1dc>
 8002bbe:	687b      	ldr	r3, [r7, #4]
 8002bc0:	689b      	ldr	r3, [r3, #8]
 8002bc2:	2b00      	cmp	r3, #0
 8002bc4:	d10e      	bne.n	8002be4 <HAL_I2C_Init+0x1bc>
 8002bc6:	68fb      	ldr	r3, [r7, #12]
 8002bc8:	1e58      	subs	r0, r3, #1
 8002bca:	687b      	ldr	r3, [r7, #4]
 8002bcc:	6859      	ldr	r1, [r3, #4]
 8002bce:	460b      	mov	r3, r1
 8002bd0:	005b      	lsls	r3, r3, #1
 8002bd2:	440b      	add	r3, r1
 8002bd4:	fbb0 f3f3 	udiv	r3, r0, r3
 8002bd8:	3301      	adds	r3, #1
 8002bda:	f3c3 030b 	ubfx	r3, r3, #0, #12
 8002bde:	f443 4300 	orr.w	r3, r3, #32768	; 0x8000
 8002be2:	e00f      	b.n	8002c04 <HAL_I2C_Init+0x1dc>
 8002be4:	68fb      	ldr	r3, [r7, #12]
 8002be6:	1e58      	subs	r0, r3, #1
 8002be8:	687b      	ldr	r3, [r7, #4]
 8002bea:	6859      	ldr	r1, [r3, #4]
 8002bec:	460b      	mov	r3, r1
 8002bee:	009b      	lsls	r3, r3, #2
 8002bf0:	440b      	add	r3, r1
 8002bf2:	0099      	lsls	r1, r3, #2
 8002bf4:	440b      	add	r3, r1
 8002bf6:	fbb0 f3f3 	udiv	r3, r0, r3
 8002bfa:	3301      	adds	r3, #1
 8002bfc:	f3c3 030b 	ubfx	r3, r3, #0, #12
 8002c00:	f443 4340 	orr.w	r3, r3, #49152	; 0xc000
 8002c04:	6879      	ldr	r1, [r7, #4]
 8002c06:	6809      	ldr	r1, [r1, #0]
 8002c08:	4313      	orrs	r3, r2
 8002c0a:	61cb      	str	r3, [r1, #28]
 8002c0c:	687b      	ldr	r3, [r7, #4]
 8002c0e:	681b      	ldr	r3, [r3, #0]
 8002c10:	681b      	ldr	r3, [r3, #0]
 8002c12:	f023 01c0 	bic.w	r1, r3, #192	; 0xc0
 8002c16:	687b      	ldr	r3, [r7, #4]
 8002c18:	69da      	ldr	r2, [r3, #28]
 8002c1a:	687b      	ldr	r3, [r7, #4]
 8002c1c:	6a1b      	ldr	r3, [r3, #32]
 8002c1e:	431a      	orrs	r2, r3
 8002c20:	687b      	ldr	r3, [r7, #4]
 8002c22:	681b      	ldr	r3, [r3, #0]
 8002c24:	430a      	orrs	r2, r1
 8002c26:	601a      	str	r2, [r3, #0]
 8002c28:	687b      	ldr	r3, [r7, #4]
 8002c2a:	681b      	ldr	r3, [r3, #0]
 8002c2c:	689b      	ldr	r3, [r3, #8]
 8002c2e:	f423 4303 	bic.w	r3, r3, #33536	; 0x8300
 8002c32:	f023 03ff 	bic.w	r3, r3, #255	; 0xff
 8002c36:	687a      	ldr	r2, [r7, #4]
 8002c38:	6911      	ldr	r1, [r2, #16]
 8002c3a:	687a      	ldr	r2, [r7, #4]
 8002c3c:	68d2      	ldr	r2, [r2, #12]
 8002c3e:	4311      	orrs	r1, r2
 8002c40:	687a      	ldr	r2, [r7, #4]
 8002c42:	6812      	ldr	r2, [r2, #0]
 8002c44:	430b      	orrs	r3, r1
 8002c46:	6093      	str	r3, [r2, #8]
 8002c48:	687b      	ldr	r3, [r7, #4]
 8002c4a:	681b      	ldr	r3, [r3, #0]
 8002c4c:	68db      	ldr	r3, [r3, #12]
 8002c4e:	f023 01ff 	bic.w	r1, r3, #255	; 0xff
 8002c52:	687b      	ldr	r3, [r7, #4]
 8002c54:	695a      	ldr	r2, [r3, #20]
 8002c56:	687b      	ldr	r3, [r7, #4]
 8002c58:	699b      	ldr	r3, [r3, #24]
 8002c5a:	431a      	orrs	r2, r3
 8002c5c:	687b      	ldr	r3, [r7, #4]
 8002c5e:	681b      	ldr	r3, [r3, #0]
 8002c60:	430a      	orrs	r2, r1
 8002c62:	60da      	str	r2, [r3, #12]
 8002c64:	687b      	ldr	r3, [r7, #4]
 8002c66:	681b      	ldr	r3, [r3, #0]
 8002c68:	681a      	ldr	r2, [r3, #0]
 8002c6a:	687b      	ldr	r3, [r7, #4]
 8002c6c:	681b      	ldr	r3, [r3, #0]
 8002c6e:	f042 0201 	orr.w	r2, r2, #1
 8002c72:	601a      	str	r2, [r3, #0]
 8002c74:	687b      	ldr	r3, [r7, #4]
 8002c76:	2200      	movs	r2, #0
 8002c78:	641a      	str	r2, [r3, #64]	; 0x40
 8002c7a:	687b      	ldr	r3, [r7, #4]
 8002c7c:	2220      	movs	r2, #32
 8002c7e:	f883 203d 	strb.w	r2, [r3, #61]	; 0x3d
 8002c82:	687b      	ldr	r3, [r7, #4]
 8002c84:	2200      	movs	r2, #0
 8002c86:	631a      	str	r2, [r3, #48]	; 0x30
 8002c88:	687b      	ldr	r3, [r7, #4]
 8002c8a:	2200      	movs	r2, #0
 8002c8c:	f883 203e 	strb.w	r2, [r3, #62]	; 0x3e
 8002c90:	2300      	movs	r3, #0
 8002c92:	4618      	mov	r0, r3
 8002c94:	3710      	adds	r7, #16
 8002c96:	46bd      	mov	sp, r7
 8002c98:	bd80      	pop	{r7, pc}
 8002c9a:	bf00      	nop
 8002c9c:	000186a0 	.word	0x000186a0
 8002ca0:	001e847f 	.word	0x001e847f
 8002ca4:	003d08ff 	.word	0x003d08ff
 8002ca8:	431bde83 	.word	0x431bde83
 8002cac:	10624dd3 	.word	0x10624dd3

08002cb0 <HAL_I2C_Master_Transmit>:
 8002cb0:	b580      	push	{r7, lr}
 8002cb2:	b088      	sub	sp, #32
 8002cb4:	af02      	add	r7, sp, #8
 8002cb6:	60f8      	str	r0, [r7, #12]
 8002cb8:	607a      	str	r2, [r7, #4]
 8002cba:	461a      	mov	r2, r3
 8002cbc:	460b      	mov	r3, r1
 8002cbe:	817b      	strh	r3, [r7, #10]
 8002cc0:	4613      	mov	r3, r2
 8002cc2:	813b      	strh	r3, [r7, #8]
 8002cc4:	f7ff fbbe 	bl	8002444 <HAL_GetTick>
 8002cc8:	6178      	str	r0, [r7, #20]
 8002cca:	68fb      	ldr	r3, [r7, #12]
 8002ccc:	f893 303d 	ldrb.w	r3, [r3, #61]	; 0x3d
 8002cd0:	b2db      	uxtb	r3, r3
 8002cd2:	2b20      	cmp	r3, #32
 8002cd4:	f040 80e0 	bne.w	8002e98 <HAL_I2C_Master_Transmit+0x1e8>
 8002cd8:	697b      	ldr	r3, [r7, #20]
 8002cda:	9300      	str	r3, [sp, #0]
 8002cdc:	2319      	movs	r3, #25
 8002cde:	2201      	movs	r2, #1
 8002ce0:	4970      	ldr	r1, [pc, #448]	; (8002ea4 <HAL_I2C_Master_Transmit+0x1f4>)
 8002ce2:	68f8      	ldr	r0, [r7, #12]
 8002ce4:	f000 fdcc 	bl	8003880 <I2C_WaitOnFlagUntilTimeout>
 8002ce8:	4603      	mov	r3, r0
 8002cea:	2b00      	cmp	r3, #0
 8002cec:	d001      	beq.n	8002cf2 <HAL_I2C_Master_Transmit+0x42>
 8002cee:	2302      	movs	r3, #2
 8002cf0:	e0d3      	b.n	8002e9a <HAL_I2C_Master_Transmit+0x1ea>
 8002cf2:	68fb      	ldr	r3, [r7, #12]
 8002cf4:	f893 303c 	ldrb.w	r3, [r3, #60]	; 0x3c
 8002cf8:	2b01      	cmp	r3, #1
 8002cfa:	d101      	bne.n	8002d00 <HAL_I2C_Master_Transmit+0x50>
 8002cfc:	2302      	movs	r3, #2
 8002cfe:	e0cc      	b.n	8002e9a <HAL_I2C_Master_Transmit+0x1ea>
 8002d00:	68fb      	ldr	r3, [r7, #12]
 8002d02:	2201      	movs	r2, #1
 8002d04:	f883 203c 	strb.w	r2, [r3, #60]	; 0x3c
 8002d08:	68fb      	ldr	r3, [r7, #12]
 8002d0a:	681b      	ldr	r3, [r3, #0]
 8002d0c:	681b      	ldr	r3, [r3, #0]
 8002d0e:	f003 0301 	and.w	r3, r3, #1
 8002d12:	2b01      	cmp	r3, #1
 8002d14:	d007      	beq.n	8002d26 <HAL_I2C_Master_Transmit+0x76>
 8002d16:	68fb      	ldr	r3, [r7, #12]
 8002d18:	681b      	ldr	r3, [r3, #0]
 8002d1a:	681a      	ldr	r2, [r3, #0]
 8002d1c:	68fb      	ldr	r3, [r7, #12]
 8002d1e:	681b      	ldr	r3, [r3, #0]
 8002d20:	f042 0201 	orr.w	r2, r2, #1
 8002d24:	601a      	str	r2, [r3, #0]
 8002d26:	68fb      	ldr	r3, [r7, #12]
 8002d28:	681b      	ldr	r3, [r3, #0]
 8002d2a:	681a      	ldr	r2, [r3, #0]
 8002d2c:	68fb      	ldr	r3, [r7, #12]
 8002d2e:	681b      	ldr	r3, [r3, #0]
 8002d30:	f422 6200 	bic.w	r2, r2, #2048	; 0x800
 8002d34:	601a      	str	r2, [r3, #0]
 8002d36:	68fb      	ldr	r3, [r7, #12]
 8002d38:	2221      	movs	r2, #33	; 0x21
 8002d3a:	f883 203d 	strb.w	r2, [r3, #61]	; 0x3d
 8002d3e:	68fb      	ldr	r3, [r7, #12]
 8002d40:	2210      	movs	r2, #16
 8002d42:	f883 203e 	strb.w	r2, [r3, #62]	; 0x3e
 8002d46:	68fb      	ldr	r3, [r7, #12]
 8002d48:	2200      	movs	r2, #0
 8002d4a:	641a      	str	r2, [r3, #64]	; 0x40
 8002d4c:	68fb      	ldr	r3, [r7, #12]
 8002d4e:	687a      	ldr	r2, [r7, #4]
 8002d50:	625a      	str	r2, [r3, #36]	; 0x24
 8002d52:	68fb      	ldr	r3, [r7, #12]
 8002d54:	893a      	ldrh	r2, [r7, #8]
 8002d56:	855a      	strh	r2, [r3, #42]	; 0x2a
 8002d58:	68fb      	ldr	r3, [r7, #12]
 8002d5a:	8d5b      	ldrh	r3, [r3, #42]	; 0x2a
 8002d5c:	b29a      	uxth	r2, r3
 8002d5e:	68fb      	ldr	r3, [r7, #12]
 8002d60:	851a      	strh	r2, [r3, #40]	; 0x28
 8002d62:	68fb      	ldr	r3, [r7, #12]
 8002d64:	4a50      	ldr	r2, [pc, #320]	; (8002ea8 <HAL_I2C_Master_Transmit+0x1f8>)
 8002d66:	62da      	str	r2, [r3, #44]	; 0x2c
 8002d68:	8979      	ldrh	r1, [r7, #10]
 8002d6a:	697b      	ldr	r3, [r7, #20]
 8002d6c:	6a3a      	ldr	r2, [r7, #32]
 8002d6e:	68f8      	ldr	r0, [r7, #12]
 8002d70:	f000 fc36 	bl	80035e0 <I2C_MasterRequestWrite>
 8002d74:	4603      	mov	r3, r0
 8002d76:	2b00      	cmp	r3, #0
 8002d78:	d001      	beq.n	8002d7e <HAL_I2C_Master_Transmit+0xce>
 8002d7a:	2301      	movs	r3, #1
 8002d7c:	e08d      	b.n	8002e9a <HAL_I2C_Master_Transmit+0x1ea>
 8002d7e:	2300      	movs	r3, #0
 8002d80:	613b      	str	r3, [r7, #16]
 8002d82:	68fb      	ldr	r3, [r7, #12]
 8002d84:	681b      	ldr	r3, [r3, #0]
 8002d86:	695b      	ldr	r3, [r3, #20]
 8002d88:	613b      	str	r3, [r7, #16]
 8002d8a:	68fb      	ldr	r3, [r7, #12]
 8002d8c:	681b      	ldr	r3, [r3, #0]
 8002d8e:	699b      	ldr	r3, [r3, #24]
 8002d90:	613b      	str	r3, [r7, #16]
 8002d92:	693b      	ldr	r3, [r7, #16]
 8002d94:	e066      	b.n	8002e64 <HAL_I2C_Master_Transmit+0x1b4>
 8002d96:	697a      	ldr	r2, [r7, #20]
 8002d98:	6a39      	ldr	r1, [r7, #32]
 8002d9a:	68f8      	ldr	r0, [r7, #12]
 8002d9c:	f000 fe8a 	bl	8003ab4 <I2C_WaitOnTXEFlagUntilTimeout>
 8002da0:	4603      	mov	r3, r0
 8002da2:	2b00      	cmp	r3, #0
 8002da4:	d00d      	beq.n	8002dc2 <HAL_I2C_Master_Transmit+0x112>
 8002da6:	68fb      	ldr	r3, [r7, #12]
 8002da8:	6c1b      	ldr	r3, [r3, #64]	; 0x40
 8002daa:	2b04      	cmp	r3, #4
 8002dac:	d107      	bne.n	8002dbe <HAL_I2C_Master_Transmit+0x10e>
 8002dae:	68fb      	ldr	r3, [r7, #12]
 8002db0:	681b      	ldr	r3, [r3, #0]
 8002db2:	681a      	ldr	r2, [r3, #0]
 8002db4:	68fb      	ldr	r3, [r7, #12]
 8002db6:	681b      	ldr	r3, [r3, #0]
 8002db8:	f442 7200 	orr.w	r2, r2, #512	; 0x200
 8002dbc:	601a      	str	r2, [r3, #0]
 8002dbe:	2301      	movs	r3, #1
 8002dc0:	e06b      	b.n	8002e9a <HAL_I2C_Master_Transmit+0x1ea>
 8002dc2:	68fb      	ldr	r3, [r7, #12]
 8002dc4:	6a5b      	ldr	r3, [r3, #36]	; 0x24
 8002dc6:	781a      	ldrb	r2, [r3, #0]
 8002dc8:	68fb      	ldr	r3, [r7, #12]
 8002dca:	681b      	ldr	r3, [r3, #0]
 8002dcc:	611a      	str	r2, [r3, #16]
 8002dce:	68fb      	ldr	r3, [r7, #12]
 8002dd0:	6a5b      	ldr	r3, [r3, #36]	; 0x24
 8002dd2:	1c5a      	adds	r2, r3, #1
 8002dd4:	68fb      	ldr	r3, [r7, #12]
 8002dd6:	625a      	str	r2, [r3, #36]	; 0x24
 8002dd8:	68fb      	ldr	r3, [r7, #12]
 8002dda:	8d5b      	ldrh	r3, [r3, #42]	; 0x2a
 8002ddc:	b29b      	uxth	r3, r3
 8002dde:	3b01      	subs	r3, #1
 8002de0:	b29a      	uxth	r2, r3
 8002de2:	68fb      	ldr	r3, [r7, #12]
 8002de4:	855a      	strh	r2, [r3, #42]	; 0x2a
 8002de6:	68fb      	ldr	r3, [r7, #12]
 8002de8:	8d1b      	ldrh	r3, [r3, #40]	; 0x28
 8002dea:	3b01      	subs	r3, #1
 8002dec:	b29a      	uxth	r2, r3
 8002dee:	68fb      	ldr	r3, [r7, #12]
 8002df0:	851a      	strh	r2, [r3, #40]	; 0x28
 8002df2:	68fb      	ldr	r3, [r7, #12]
 8002df4:	681b      	ldr	r3, [r3, #0]
 8002df6:	695b      	ldr	r3, [r3, #20]
 8002df8:	f003 0304 	and.w	r3, r3, #4
 8002dfc:	2b04      	cmp	r3, #4
 8002dfe:	d11b      	bne.n	8002e38 <HAL_I2C_Master_Transmit+0x188>
 8002e00:	68fb      	ldr	r3, [r7, #12]
 8002e02:	8d1b      	ldrh	r3, [r3, #40]	; 0x28
 8002e04:	2b00      	cmp	r3, #0
 8002e06:	d017      	beq.n	8002e38 <HAL_I2C_Master_Transmit+0x188>
 8002e08:	68fb      	ldr	r3, [r7, #12]
 8002e0a:	6a5b      	ldr	r3, [r3, #36]	; 0x24
 8002e0c:	781a      	ldrb	r2, [r3, #0]
 8002e0e:	68fb      	ldr	r3, [r7, #12]
 8002e10:	681b      	ldr	r3, [r3, #0]
 8002e12:	611a      	str	r2, [r3, #16]
 8002e14:	68fb      	ldr	r3, [r7, #12]
 8002e16:	6a5b      	ldr	r3, [r3, #36]	; 0x24
 8002e18:	1c5a      	adds	r2, r3, #1
 8002e1a:	68fb      	ldr	r3, [r7, #12]
 8002e1c:	625a      	str	r2, [r3, #36]	; 0x24
 8002e1e:	68fb      	ldr	r3, [r7, #12]
 8002e20:	8d5b      	ldrh	r3, [r3, #42]	; 0x2a
 8002e22:	b29b      	uxth	r3, r3
 8002e24:	3b01      	subs	r3, #1
 8002e26:	b29a      	uxth	r2, r3
 8002e28:	68fb      	ldr	r3, [r7, #12]
 8002e2a:	855a      	strh	r2, [r3, #42]	; 0x2a
 8002e2c:	68fb      	ldr	r3, [r7, #12]
 8002e2e:	8d1b      	ldrh	r3, [r3, #40]	; 0x28
 8002e30:	3b01      	subs	r3, #1
 8002e32:	b29a      	uxth	r2, r3
 8002e34:	68fb      	ldr	r3, [r7, #12]
 8002e36:	851a      	strh	r2, [r3, #40]	; 0x28
 8002e38:	697a      	ldr	r2, [r7, #20]
 8002e3a:	6a39      	ldr	r1, [r7, #32]
 8002e3c:	68f8      	ldr	r0, [r7, #12]
 8002e3e:	f000 fe81 	bl	8003b44 <I2C_WaitOnBTFFlagUntilTimeout>
 8002e42:	4603      	mov	r3, r0
 8002e44:	2b00      	cmp	r3, #0
 8002e46:	d00d      	beq.n	8002e64 <HAL_I2C_Master_Transmit+0x1b4>
 8002e48:	68fb      	ldr	r3, [r7, #12]
 8002e4a:	6c1b      	ldr	r3, [r3, #64]	; 0x40
 8002e4c:	2b04      	cmp	r3, #4
 8002e4e:	d107      	bne.n	8002e60 <HAL_I2C_Master_Transmit+0x1b0>
 8002e50:	68fb      	ldr	r3, [r7, #12]
 8002e52:	681b      	ldr	r3, [r3, #0]
 8002e54:	681a      	ldr	r2, [r3, #0]
 8002e56:	68fb      	ldr	r3, [r7, #12]
 8002e58:	681b      	ldr	r3, [r3, #0]
 8002e5a:	f442 7200 	orr.w	r2, r2, #512	; 0x200
 8002e5e:	601a      	str	r2, [r3, #0]
 8002e60:	2301      	movs	r3, #1
 8002e62:	e01a      	b.n	8002e9a <HAL_I2C_Master_Transmit+0x1ea>
 8002e64:	68fb      	ldr	r3, [r7, #12]
 8002e66:	8d1b      	ldrh	r3, [r3, #40]	; 0x28
 8002e68:	2b00      	cmp	r3, #0
 8002e6a:	d194      	bne.n	8002d96 <HAL_I2C_Master_Transmit+0xe6>
 8002e6c:	68fb      	ldr	r3, [r7, #12]
 8002e6e:	681b      	ldr	r3, [r3, #0]
 8002e70:	681a      	ldr	r2, [r3, #0]
 8002e72:	68fb      	ldr	r3, [r7, #12]
 8002e74:	681b      	ldr	r3, [r3, #0]
 8002e76:	f442 7200 	orr.w	r2, r2, #512	; 0x200
 8002e7a:	601a      	str	r2, [r3, #0]
 8002e7c:	68fb      	ldr	r3, [r7, #12]
 8002e7e:	2220      	movs	r2, #32
 8002e80:	f883 203d 	strb.w	r2, [r3, #61]	; 0x3d
 8002e84:	68fb      	ldr	r3, [r7, #12]
 8002e86:	2200      	movs	r2, #0
 8002e88:	f883 203e 	strb.w	r2, [r3, #62]	; 0x3e
 8002e8c:	68fb      	ldr	r3, [r7, #12]
 8002e8e:	2200      	movs	r2, #0
 8002e90:	f883 203c 	strb.w	r2, [r3, #60]	; 0x3c
 8002e94:	2300      	movs	r3, #0
 8002e96:	e000      	b.n	8002e9a <HAL_I2C_Master_Transmit+0x1ea>
 8002e98:	2302      	movs	r3, #2
 8002e9a:	4618      	mov	r0, r3
 8002e9c:	3718      	adds	r7, #24
 8002e9e:	46bd      	mov	sp, r7
 8002ea0:	bd80      	pop	{r7, pc}
 8002ea2:	bf00      	nop
 8002ea4:	00100002 	.word	0x00100002
 8002ea8:	ffff0000 	.word	0xffff0000

08002eac <HAL_I2C_Master_Receive>:
 8002eac:	b580      	push	{r7, lr}
 8002eae:	b08c      	sub	sp, #48	; 0x30
 8002eb0:	af02      	add	r7, sp, #8
 8002eb2:	60f8      	str	r0, [r7, #12]
 8002eb4:	607a      	str	r2, [r7, #4]
 8002eb6:	461a      	mov	r2, r3
 8002eb8:	460b      	mov	r3, r1
 8002eba:	817b      	strh	r3, [r7, #10]
 8002ebc:	4613      	mov	r3, r2
 8002ebe:	813b      	strh	r3, [r7, #8]
 8002ec0:	2300      	movs	r3, #0
 8002ec2:	623b      	str	r3, [r7, #32]
 8002ec4:	f7ff fabe 	bl	8002444 <HAL_GetTick>
 8002ec8:	6278      	str	r0, [r7, #36]	; 0x24
 8002eca:	68fb      	ldr	r3, [r7, #12]
 8002ecc:	f893 303d 	ldrb.w	r3, [r3, #61]	; 0x3d
 8002ed0:	b2db      	uxtb	r3, r3
 8002ed2:	2b20      	cmp	r3, #32
 8002ed4:	f040 824b 	bne.w	800336e <HAL_I2C_Master_Receive+0x4c2>
 8002ed8:	6a7b      	ldr	r3, [r7, #36]	; 0x24
 8002eda:	9300      	str	r3, [sp, #0]
 8002edc:	2319      	movs	r3, #25
 8002ede:	2201      	movs	r2, #1
 8002ee0:	497f      	ldr	r1, [pc, #508]	; (80030e0 <HAL_I2C_Master_Receive+0x234>)
 8002ee2:	68f8      	ldr	r0, [r7, #12]
 8002ee4:	f000 fccc 	bl	8003880 <I2C_WaitOnFlagUntilTimeout>
 8002ee8:	4603      	mov	r3, r0
 8002eea:	2b00      	cmp	r3, #0
 8002eec:	d001      	beq.n	8002ef2 <HAL_I2C_Master_Receive+0x46>
 8002eee:	2302      	movs	r3, #2
 8002ef0:	e23e      	b.n	8003370 <HAL_I2C_Master_Receive+0x4c4>
 8002ef2:	68fb      	ldr	r3, [r7, #12]
 8002ef4:	f893 303c 	ldrb.w	r3, [r3, #60]	; 0x3c
 8002ef8:	2b01      	cmp	r3, #1
 8002efa:	d101      	bne.n	8002f00 <HAL_I2C_Master_Receive+0x54>
 8002efc:	2302      	movs	r3, #2
 8002efe:	e237      	b.n	8003370 <HAL_I2C_Master_Receive+0x4c4>
 8002f00:	68fb      	ldr	r3, [r7, #12]
 8002f02:	2201      	movs	r2, #1
 8002f04:	f883 203c 	strb.w	r2, [r3, #60]	; 0x3c
 8002f08:	68fb      	ldr	r3, [r7, #12]
 8002f0a:	681b      	ldr	r3, [r3, #0]
 8002f0c:	681b      	ldr	r3, [r3, #0]
 8002f0e:	f003 0301 	and.w	r3, r3, #1
 8002f12:	2b01      	cmp	r3, #1
 8002f14:	d007      	beq.n	8002f26 <HAL_I2C_Master_Receive+0x7a>
 8002f16:	68fb      	ldr	r3, [r7, #12]
 8002f18:	681b      	ldr	r3, [r3, #0]
 8002f1a:	681a      	ldr	r2, [r3, #0]
 8002f1c:	68fb      	ldr	r3, [r7, #12]
 8002f1e:	681b      	ldr	r3, [r3, #0]
 8002f20:	f042 0201 	orr.w	r2, r2, #1
 8002f24:	601a      	str	r2, [r3, #0]
 8002f26:	68fb      	ldr	r3, [r7, #12]
 8002f28:	681b      	ldr	r3, [r3, #0]
 8002f2a:	681a      	ldr	r2, [r3, #0]
 8002f2c:	68fb      	ldr	r3, [r7, #12]
 8002f2e:	681b      	ldr	r3, [r3, #0]
 8002f30:	f422 6200 	bic.w	r2, r2, #2048	; 0x800
 8002f34:	601a      	str	r2, [r3, #0]
 8002f36:	68fb      	ldr	r3, [r7, #12]
 8002f38:	2222      	movs	r2, #34	; 0x22
 8002f3a:	f883 203d 	strb.w	r2, [r3, #61]	; 0x3d
 8002f3e:	68fb      	ldr	r3, [r7, #12]
 8002f40:	2210      	movs	r2, #16
 8002f42:	f883 203e 	strb.w	r2, [r3, #62]	; 0x3e
 8002f46:	68fb      	ldr	r3, [r7, #12]
 8002f48:	2200      	movs	r2, #0
 8002f4a:	641a      	str	r2, [r3, #64]	; 0x40
 8002f4c:	68fb      	ldr	r3, [r7, #12]
 8002f4e:	687a      	ldr	r2, [r7, #4]
 8002f50:	625a      	str	r2, [r3, #36]	; 0x24
 8002f52:	68fb      	ldr	r3, [r7, #12]
 8002f54:	893a      	ldrh	r2, [r7, #8]
 8002f56:	855a      	strh	r2, [r3, #42]	; 0x2a
 8002f58:	68fb      	ldr	r3, [r7, #12]
 8002f5a:	8d5b      	ldrh	r3, [r3, #42]	; 0x2a
 8002f5c:	b29a      	uxth	r2, r3
 8002f5e:	68fb      	ldr	r3, [r7, #12]
 8002f60:	851a      	strh	r2, [r3, #40]	; 0x28
 8002f62:	68fb      	ldr	r3, [r7, #12]
 8002f64:	4a5f      	ldr	r2, [pc, #380]	; (80030e4 <HAL_I2C_Master_Receive+0x238>)
 8002f66:	62da      	str	r2, [r3, #44]	; 0x2c
 8002f68:	8979      	ldrh	r1, [r7, #10]
 8002f6a:	6a7b      	ldr	r3, [r7, #36]	; 0x24
 8002f6c:	6b3a      	ldr	r2, [r7, #48]	; 0x30
 8002f6e:	68f8      	ldr	r0, [r7, #12]
 8002f70:	f000 fbb8 	bl	80036e4 <I2C_MasterRequestRead>
 8002f74:	4603      	mov	r3, r0
 8002f76:	2b00      	cmp	r3, #0
 8002f78:	d001      	beq.n	8002f7e <HAL_I2C_Master_Receive+0xd2>
 8002f7a:	2301      	movs	r3, #1
 8002f7c:	e1f8      	b.n	8003370 <HAL_I2C_Master_Receive+0x4c4>
 8002f7e:	68fb      	ldr	r3, [r7, #12]
 8002f80:	8d1b      	ldrh	r3, [r3, #40]	; 0x28
 8002f82:	2b00      	cmp	r3, #0
 8002f84:	d113      	bne.n	8002fae <HAL_I2C_Master_Receive+0x102>
 8002f86:	2300      	movs	r3, #0
 8002f88:	61fb      	str	r3, [r7, #28]
 8002f8a:	68fb      	ldr	r3, [r7, #12]
 8002f8c:	681b      	ldr	r3, [r3, #0]
 8002f8e:	695b      	ldr	r3, [r3, #20]
 8002f90:	61fb      	str	r3, [r7, #28]
 8002f92:	68fb      	ldr	r3, [r7, #12]
 8002f94:	681b      	ldr	r3, [r3, #0]
 8002f96:	699b      	ldr	r3, [r3, #24]
 8002f98:	61fb      	str	r3, [r7, #28]
 8002f9a:	69fb      	ldr	r3, [r7, #28]
 8002f9c:	68fb      	ldr	r3, [r7, #12]
 8002f9e:	681b      	ldr	r3, [r3, #0]
 8002fa0:	681a      	ldr	r2, [r3, #0]
 8002fa2:	68fb      	ldr	r3, [r7, #12]
 8002fa4:	681b      	ldr	r3, [r3, #0]
 8002fa6:	f442 7200 	orr.w	r2, r2, #512	; 0x200
 8002faa:	601a      	str	r2, [r3, #0]
 8002fac:	e1cc      	b.n	8003348 <HAL_I2C_Master_Receive+0x49c>
 8002fae:	68fb      	ldr	r3, [r7, #12]
 8002fb0:	8d1b      	ldrh	r3, [r3, #40]	; 0x28
 8002fb2:	2b01      	cmp	r3, #1
 8002fb4:	d11e      	bne.n	8002ff4 <HAL_I2C_Master_Receive+0x148>
 8002fb6:	68fb      	ldr	r3, [r7, #12]
 8002fb8:	681b      	ldr	r3, [r3, #0]
 8002fba:	681a      	ldr	r2, [r3, #0]
 8002fbc:	68fb      	ldr	r3, [r7, #12]
 8002fbe:	681b      	ldr	r3, [r3, #0]
 8002fc0:	f422 6280 	bic.w	r2, r2, #1024	; 0x400
 8002fc4:	601a      	str	r2, [r3, #0]
 8002fc6:	b672      	cpsid	i
 8002fc8:	bf00      	nop
 8002fca:	2300      	movs	r3, #0
 8002fcc:	61bb      	str	r3, [r7, #24]
 8002fce:	68fb      	ldr	r3, [r7, #12]
 8002fd0:	681b      	ldr	r3, [r3, #0]
 8002fd2:	695b      	ldr	r3, [r3, #20]
 8002fd4:	61bb      	str	r3, [r7, #24]
 8002fd6:	68fb      	ldr	r3, [r7, #12]
 8002fd8:	681b      	ldr	r3, [r3, #0]
 8002fda:	699b      	ldr	r3, [r3, #24]
 8002fdc:	61bb      	str	r3, [r7, #24]
 8002fde:	69bb      	ldr	r3, [r7, #24]
 8002fe0:	68fb      	ldr	r3, [r7, #12]
 8002fe2:	681b      	ldr	r3, [r3, #0]
 8002fe4:	681a      	ldr	r2, [r3, #0]
 8002fe6:	68fb      	ldr	r3, [r7, #12]
 8002fe8:	681b      	ldr	r3, [r3, #0]
 8002fea:	f442 7200 	orr.w	r2, r2, #512	; 0x200
 8002fee:	601a      	str	r2, [r3, #0]
 8002ff0:	b662      	cpsie	i
 8002ff2:	e035      	b.n	8003060 <HAL_I2C_Master_Receive+0x1b4>
 8002ff4:	68fb      	ldr	r3, [r7, #12]
 8002ff6:	8d1b      	ldrh	r3, [r3, #40]	; 0x28
 8002ff8:	2b02      	cmp	r3, #2
 8002ffa:	d11e      	bne.n	800303a <HAL_I2C_Master_Receive+0x18e>
 8002ffc:	68fb      	ldr	r3, [r7, #12]
 8002ffe:	681b      	ldr	r3, [r3, #0]
 8003000:	681a      	ldr	r2, [r3, #0]
 8003002:	68fb      	ldr	r3, [r7, #12]
 8003004:	681b      	ldr	r3, [r3, #0]
 8003006:	f442 6200 	orr.w	r2, r2, #2048	; 0x800
 800300a:	601a      	str	r2, [r3, #0]
 800300c:	b672      	cpsid	i
 800300e:	bf00      	nop
 8003010:	2300      	movs	r3, #0
 8003012:	617b      	str	r3, [r7, #20]
 8003014:	68fb      	ldr	r3, [r7, #12]
 8003016:	681b      	ldr	r3, [r3, #0]
 8003018:	695b      	ldr	r3, [r3, #20]
 800301a:	617b      	str	r3, [r7, #20]
 800301c:	68fb      	ldr	r3, [r7, #12]
 800301e:	681b      	ldr	r3, [r3, #0]
 8003020:	699b      	ldr	r3, [r3, #24]
 8003022:	617b      	str	r3, [r7, #20]
 8003024:	697b      	ldr	r3, [r7, #20]
 8003026:	68fb      	ldr	r3, [r7, #12]
 8003028:	681b      	ldr	r3, [r3, #0]
 800302a:	681a      	ldr	r2, [r3, #0]
 800302c:	68fb      	ldr	r3, [r7, #12]
 800302e:	681b      	ldr	r3, [r3, #0]
 8003030:	f422 6280 	bic.w	r2, r2, #1024	; 0x400
 8003034:	601a      	str	r2, [r3, #0]
 8003036:	b662      	cpsie	i
 8003038:	e012      	b.n	8003060 <HAL_I2C_Master_Receive+0x1b4>
 800303a:	68fb      	ldr	r3, [r7, #12]
 800303c:	681b      	ldr	r3, [r3, #0]
 800303e:	681a      	ldr	r2, [r3, #0]
 8003040:	68fb      	ldr	r3, [r7, #12]
 8003042:	681b      	ldr	r3, [r3, #0]
 8003044:	f442 6280 	orr.w	r2, r2, #1024	; 0x400
 8003048:	601a      	str	r2, [r3, #0]
 800304a:	2300      	movs	r3, #0
 800304c:	613b      	str	r3, [r7, #16]
 800304e:	68fb      	ldr	r3, [r7, #12]
 8003050:	681b      	ldr	r3, [r3, #0]
 8003052:	695b      	ldr	r3, [r3, #20]
 8003054:	613b      	str	r3, [r7, #16]
 8003056:	68fb      	ldr	r3, [r7, #12]
 8003058:	681b      	ldr	r3, [r3, #0]
 800305a:	699b      	ldr	r3, [r3, #24]
 800305c:	613b      	str	r3, [r7, #16]
 800305e:	693b      	ldr	r3, [r7, #16]
 8003060:	e172      	b.n	8003348 <HAL_I2C_Master_Receive+0x49c>
 8003062:	68fb      	ldr	r3, [r7, #12]
 8003064:	8d1b      	ldrh	r3, [r3, #40]	; 0x28
 8003066:	2b03      	cmp	r3, #3
 8003068:	f200 811f 	bhi.w	80032aa <HAL_I2C_Master_Receive+0x3fe>
 800306c:	68fb      	ldr	r3, [r7, #12]
 800306e:	8d1b      	ldrh	r3, [r3, #40]	; 0x28
 8003070:	2b01      	cmp	r3, #1
 8003072:	d123      	bne.n	80030bc <HAL_I2C_Master_Receive+0x210>
 8003074:	6a7a      	ldr	r2, [r7, #36]	; 0x24
 8003076:	6b39      	ldr	r1, [r7, #48]	; 0x30
 8003078:	68f8      	ldr	r0, [r7, #12]
 800307a:	f000 fdab 	bl	8003bd4 <I2C_WaitOnRXNEFlagUntilTimeout>
 800307e:	4603      	mov	r3, r0
 8003080:	2b00      	cmp	r3, #0
 8003082:	d001      	beq.n	8003088 <HAL_I2C_Master_Receive+0x1dc>
 8003084:	2301      	movs	r3, #1
 8003086:	e173      	b.n	8003370 <HAL_I2C_Master_Receive+0x4c4>
 8003088:	68fb      	ldr	r3, [r7, #12]
 800308a:	681b      	ldr	r3, [r3, #0]
 800308c:	691a      	ldr	r2, [r3, #16]
 800308e:	68fb      	ldr	r3, [r7, #12]
 8003090:	6a5b      	ldr	r3, [r3, #36]	; 0x24
 8003092:	b2d2      	uxtb	r2, r2
 8003094:	701a      	strb	r2, [r3, #0]
 8003096:	68fb      	ldr	r3, [r7, #12]
 8003098:	6a5b      	ldr	r3, [r3, #36]	; 0x24
 800309a:	1c5a      	adds	r2, r3, #1
 800309c:	68fb      	ldr	r3, [r7, #12]
 800309e:	625a      	str	r2, [r3, #36]	; 0x24
 80030a0:	68fb      	ldr	r3, [r7, #12]
 80030a2:	8d1b      	ldrh	r3, [r3, #40]	; 0x28
 80030a4:	3b01      	subs	r3, #1
 80030a6:	b29a      	uxth	r2, r3
 80030a8:	68fb      	ldr	r3, [r7, #12]
 80030aa:	851a      	strh	r2, [r3, #40]	; 0x28
 80030ac:	68fb      	ldr	r3, [r7, #12]
 80030ae:	8d5b      	ldrh	r3, [r3, #42]	; 0x2a
 80030b0:	b29b      	uxth	r3, r3
 80030b2:	3b01      	subs	r3, #1
 80030b4:	b29a      	uxth	r2, r3
 80030b6:	68fb      	ldr	r3, [r7, #12]
 80030b8:	855a      	strh	r2, [r3, #42]	; 0x2a
 80030ba:	e145      	b.n	8003348 <HAL_I2C_Master_Receive+0x49c>
 80030bc:	68fb      	ldr	r3, [r7, #12]
 80030be:	8d1b      	ldrh	r3, [r3, #40]	; 0x28
 80030c0:	2b02      	cmp	r3, #2
 80030c2:	d152      	bne.n	800316a <HAL_I2C_Master_Receive+0x2be>
 80030c4:	6a7b      	ldr	r3, [r7, #36]	; 0x24
 80030c6:	9300      	str	r3, [sp, #0]
 80030c8:	6b3b      	ldr	r3, [r7, #48]	; 0x30
 80030ca:	2200      	movs	r2, #0
 80030cc:	4906      	ldr	r1, [pc, #24]	; (80030e8 <HAL_I2C_Master_Receive+0x23c>)
 80030ce:	68f8      	ldr	r0, [r7, #12]
 80030d0:	f000 fbd6 	bl	8003880 <I2C_WaitOnFlagUntilTimeout>
 80030d4:	4603      	mov	r3, r0
 80030d6:	2b00      	cmp	r3, #0
 80030d8:	d008      	beq.n	80030ec <HAL_I2C_Master_Receive+0x240>
 80030da:	2301      	movs	r3, #1
 80030dc:	e148      	b.n	8003370 <HAL_I2C_Master_Receive+0x4c4>
 80030de:	bf00      	nop
 80030e0:	00100002 	.word	0x00100002
 80030e4:	ffff0000 	.word	0xffff0000
 80030e8:	00010004 	.word	0x00010004
 80030ec:	b672      	cpsid	i
 80030ee:	bf00      	nop
 80030f0:	68fb      	ldr	r3, [r7, #12]
 80030f2:	681b      	ldr	r3, [r3, #0]
 80030f4:	681a      	ldr	r2, [r3, #0]
 80030f6:	68fb      	ldr	r3, [r7, #12]
 80030f8:	681b      	ldr	r3, [r3, #0]
 80030fa:	f442 7200 	orr.w	r2, r2, #512	; 0x200
 80030fe:	601a      	str	r2, [r3, #0]
 8003100:	68fb      	ldr	r3, [r7, #12]
 8003102:	681b      	ldr	r3, [r3, #0]
 8003104:	691a      	ldr	r2, [r3, #16]
 8003106:	68fb      	ldr	r3, [r7, #12]
 8003108:	6a5b      	ldr	r3, [r3, #36]	; 0x24
 800310a:	b2d2      	uxtb	r2, r2
 800310c:	701a      	strb	r2, [r3, #0]
 800310e:	68fb      	ldr	r3, [r7, #12]
 8003110:	6a5b      	ldr	r3, [r3, #36]	; 0x24
 8003112:	1c5a      	adds	r2, r3, #1
 8003114:	68fb      	ldr	r3, [r7, #12]
 8003116:	625a      	str	r2, [r3, #36]	; 0x24
 8003118:	68fb      	ldr	r3, [r7, #12]
 800311a:	8d1b      	ldrh	r3, [r3, #40]	; 0x28
 800311c:	3b01      	subs	r3, #1
 800311e:	b29a      	uxth	r2, r3
 8003120:	68fb      	ldr	r3, [r7, #12]
 8003122:	851a      	strh	r2, [r3, #40]	; 0x28
 8003124:	68fb      	ldr	r3, [r7, #12]
 8003126:	8d5b      	ldrh	r3, [r3, #42]	; 0x2a
 8003128:	b29b      	uxth	r3, r3
 800312a:	3b01      	subs	r3, #1
 800312c:	b29a      	uxth	r2, r3
 800312e:	68fb      	ldr	r3, [r7, #12]
 8003130:	855a      	strh	r2, [r3, #42]	; 0x2a
 8003132:	b662      	cpsie	i
 8003134:	bf00      	nop
 8003136:	68fb      	ldr	r3, [r7, #12]
 8003138:	681b      	ldr	r3, [r3, #0]
 800313a:	691a      	ldr	r2, [r3, #16]
 800313c:	68fb      	ldr	r3, [r7, #12]
 800313e:	6a5b      	ldr	r3, [r3, #36]	; 0x24
 8003140:	b2d2      	uxtb	r2, r2
 8003142:	701a      	strb	r2, [r3, #0]
 8003144:	68fb      	ldr	r3, [r7, #12]
 8003146:	6a5b      	ldr	r3, [r3, #36]	; 0x24
 8003148:	1c5a      	adds	r2, r3, #1
 800314a:	68fb      	ldr	r3, [r7, #12]
 800314c:	625a      	str	r2, [r3, #36]	; 0x24
 800314e:	68fb      	ldr	r3, [r7, #12]
 8003150:	8d1b      	ldrh	r3, [r3, #40]	; 0x28
 8003152:	3b01      	subs	r3, #1
 8003154:	b29a      	uxth	r2, r3
 8003156:	68fb      	ldr	r3, [r7, #12]
 8003158:	851a      	strh	r2, [r3, #40]	; 0x28
 800315a:	68fb      	ldr	r3, [r7, #12]
 800315c:	8d5b      	ldrh	r3, [r3, #42]	; 0x2a
 800315e:	b29b      	uxth	r3, r3
 8003160:	3b01      	subs	r3, #1
 8003162:	b29a      	uxth	r2, r3
 8003164:	68fb      	ldr	r3, [r7, #12]
 8003166:	855a      	strh	r2, [r3, #42]	; 0x2a
 8003168:	e0ee      	b.n	8003348 <HAL_I2C_Master_Receive+0x49c>
 800316a:	6a7b      	ldr	r3, [r7, #36]	; 0x24
 800316c:	9300      	str	r3, [sp, #0]
 800316e:	6b3b      	ldr	r3, [r7, #48]	; 0x30
 8003170:	2200      	movs	r2, #0
 8003172:	4981      	ldr	r1, [pc, #516]	; (8003378 <HAL_I2C_Master_Receive+0x4cc>)
 8003174:	68f8      	ldr	r0, [r7, #12]
 8003176:	f000 fb83 	bl	8003880 <I2C_WaitOnFlagUntilTimeout>
 800317a:	4603      	mov	r3, r0
 800317c:	2b00      	cmp	r3, #0
 800317e:	d001      	beq.n	8003184 <HAL_I2C_Master_Receive+0x2d8>
 8003180:	2301      	movs	r3, #1
 8003182:	e0f5      	b.n	8003370 <HAL_I2C_Master_Receive+0x4c4>
 8003184:	68fb      	ldr	r3, [r7, #12]
 8003186:	681b      	ldr	r3, [r3, #0]
 8003188:	681a      	ldr	r2, [r3, #0]
 800318a:	68fb      	ldr	r3, [r7, #12]
 800318c:	681b      	ldr	r3, [r3, #0]
 800318e:	f422 6280 	bic.w	r2, r2, #1024	; 0x400
 8003192:	601a      	str	r2, [r3, #0]
 8003194:	b672      	cpsid	i
 8003196:	bf00      	nop
 8003198:	68fb      	ldr	r3, [r7, #12]
 800319a:	681b      	ldr	r3, [r3, #0]
 800319c:	691a      	ldr	r2, [r3, #16]
 800319e:	68fb      	ldr	r3, [r7, #12]
 80031a0:	6a5b      	ldr	r3, [r3, #36]	; 0x24
 80031a2:	b2d2      	uxtb	r2, r2
 80031a4:	701a      	strb	r2, [r3, #0]
 80031a6:	68fb      	ldr	r3, [r7, #12]
 80031a8:	6a5b      	ldr	r3, [r3, #36]	; 0x24
 80031aa:	1c5a      	adds	r2, r3, #1
 80031ac:	68fb      	ldr	r3, [r7, #12]
 80031ae:	625a      	str	r2, [r3, #36]	; 0x24
 80031b0:	68fb      	ldr	r3, [r7, #12]
 80031b2:	8d1b      	ldrh	r3, [r3, #40]	; 0x28
 80031b4:	3b01      	subs	r3, #1
 80031b6:	b29a      	uxth	r2, r3
 80031b8:	68fb      	ldr	r3, [r7, #12]
 80031ba:	851a      	strh	r2, [r3, #40]	; 0x28
 80031bc:	68fb      	ldr	r3, [r7, #12]
 80031be:	8d5b      	ldrh	r3, [r3, #42]	; 0x2a
 80031c0:	b29b      	uxth	r3, r3
 80031c2:	3b01      	subs	r3, #1
 80031c4:	b29a      	uxth	r2, r3
 80031c6:	68fb      	ldr	r3, [r7, #12]
 80031c8:	855a      	strh	r2, [r3, #42]	; 0x2a
 80031ca:	4b6c      	ldr	r3, [pc, #432]	; (800337c <HAL_I2C_Master_Receive+0x4d0>)
 80031cc:	681b      	ldr	r3, [r3, #0]
 80031ce:	08db      	lsrs	r3, r3, #3
 80031d0:	4a6b      	ldr	r2, [pc, #428]	; (8003380 <HAL_I2C_Master_Receive+0x4d4>)
 80031d2:	fba2 2303 	umull	r2, r3, r2, r3
 80031d6:	0a1a      	lsrs	r2, r3, #8
 80031d8:	4613      	mov	r3, r2
 80031da:	009b      	lsls	r3, r3, #2
 80031dc:	4413      	add	r3, r2
 80031de:	00da      	lsls	r2, r3, #3
 80031e0:	1ad3      	subs	r3, r2, r3
 80031e2:	623b      	str	r3, [r7, #32]
 80031e4:	6a3b      	ldr	r3, [r7, #32]
 80031e6:	3b01      	subs	r3, #1
 80031e8:	623b      	str	r3, [r7, #32]
 80031ea:	6a3b      	ldr	r3, [r7, #32]
 80031ec:	2b00      	cmp	r3, #0
 80031ee:	d118      	bne.n	8003222 <HAL_I2C_Master_Receive+0x376>
 80031f0:	68fb      	ldr	r3, [r7, #12]
 80031f2:	2200      	movs	r2, #0
 80031f4:	631a      	str	r2, [r3, #48]	; 0x30
 80031f6:	68fb      	ldr	r3, [r7, #12]
 80031f8:	2220      	movs	r2, #32
 80031fa:	f883 203d 	strb.w	r2, [r3, #61]	; 0x3d
 80031fe:	68fb      	ldr	r3, [r7, #12]
 8003200:	2200      	movs	r2, #0
 8003202:	f883 203e 	strb.w	r2, [r3, #62]	; 0x3e
 8003206:	68fb      	ldr	r3, [r7, #12]
 8003208:	6c1b      	ldr	r3, [r3, #64]	; 0x40
 800320a:	f043 0220 	orr.w	r2, r3, #32
 800320e:	68fb      	ldr	r3, [r7, #12]
 8003210:	641a      	str	r2, [r3, #64]	; 0x40
 8003212:	b662      	cpsie	i
 8003214:	bf00      	nop
 8003216:	68fb      	ldr	r3, [r7, #12]
 8003218:	2200      	movs	r2, #0
 800321a:	f883 203c 	strb.w	r2, [r3, #60]	; 0x3c
 800321e:	2301      	movs	r3, #1
 8003220:	e0a6      	b.n	8003370 <HAL_I2C_Master_Receive+0x4c4>
 8003222:	68fb      	ldr	r3, [r7, #12]
 8003224:	681b      	ldr	r3, [r3, #0]
 8003226:	695b      	ldr	r3, [r3, #20]
 8003228:	f003 0304 	and.w	r3, r3, #4
 800322c:	2b04      	cmp	r3, #4
 800322e:	d1d9      	bne.n	80031e4 <HAL_I2C_Master_Receive+0x338>
 8003230:	68fb      	ldr	r3, [r7, #12]
 8003232:	681b      	ldr	r3, [r3, #0]
 8003234:	681a      	ldr	r2, [r3, #0]
 8003236:	68fb      	ldr	r3, [r7, #12]
 8003238:	681b      	ldr	r3, [r3, #0]
 800323a:	f442 7200 	orr.w	r2, r2, #512	; 0x200
 800323e:	601a      	str	r2, [r3, #0]
 8003240:	68fb      	ldr	r3, [r7, #12]
 8003242:	681b      	ldr	r3, [r3, #0]
 8003244:	691a      	ldr	r2, [r3, #16]
 8003246:	68fb      	ldr	r3, [r7, #12]
 8003248:	6a5b      	ldr	r3, [r3, #36]	; 0x24
 800324a:	b2d2      	uxtb	r2, r2
 800324c:	701a      	strb	r2, [r3, #0]
 800324e:	68fb      	ldr	r3, [r7, #12]
 8003250:	6a5b      	ldr	r3, [r3, #36]	; 0x24
 8003252:	1c5a      	adds	r2, r3, #1
 8003254:	68fb      	ldr	r3, [r7, #12]
 8003256:	625a      	str	r2, [r3, #36]	; 0x24
 8003258:	68fb      	ldr	r3, [r7, #12]
 800325a:	8d1b      	ldrh	r3, [r3, #40]	; 0x28
 800325c:	3b01      	subs	r3, #1
 800325e:	b29a      	uxth	r2, r3
 8003260:	68fb      	ldr	r3, [r7, #12]
 8003262:	851a      	strh	r2, [r3, #40]	; 0x28
 8003264:	68fb      	ldr	r3, [r7, #12]
 8003266:	8d5b      	ldrh	r3, [r3, #42]	; 0x2a
 8003268:	b29b      	uxth	r3, r3
 800326a:	3b01      	subs	r3, #1
 800326c:	b29a      	uxth	r2, r3
 800326e:	68fb      	ldr	r3, [r7, #12]
 8003270:	855a      	strh	r2, [r3, #42]	; 0x2a
 8003272:	b662      	cpsie	i
 8003274:	bf00      	nop
 8003276:	68fb      	ldr	r3, [r7, #12]
 8003278:	681b      	ldr	r3, [r3, #0]
 800327a:	691a      	ldr	r2, [r3, #16]
 800327c:	68fb      	ldr	r3, [r7, #12]
 800327e:	6a5b      	ldr	r3, [r3, #36]	; 0x24
 8003280:	b2d2      	uxtb	r2, r2
 8003282:	701a      	strb	r2, [r3, #0]
 8003284:	68fb      	ldr	r3, [r7, #12]
 8003286:	6a5b      	ldr	r3, [r3, #36]	; 0x24
 8003288:	1c5a      	adds	r2, r3, #1
 800328a:	68fb      	ldr	r3, [r7, #12]
 800328c:	625a      	str	r2, [r3, #36]	; 0x24
 800328e:	68fb      	ldr	r3, [r7, #12]
 8003290:	8d1b      	ldrh	r3, [r3, #40]	; 0x28
 8003292:	3b01      	subs	r3, #1
 8003294:	b29a      	uxth	r2, r3
 8003296:	68fb      	ldr	r3, [r7, #12]
 8003298:	851a      	strh	r2, [r3, #40]	; 0x28
 800329a:	68fb      	ldr	r3, [r7, #12]
 800329c:	8d5b      	ldrh	r3, [r3, #42]	; 0x2a
 800329e:	b29b      	uxth	r3, r3
 80032a0:	3b01      	subs	r3, #1
 80032a2:	b29a      	uxth	r2, r3
 80032a4:	68fb      	ldr	r3, [r7, #12]
 80032a6:	855a      	strh	r2, [r3, #42]	; 0x2a
 80032a8:	e04e      	b.n	8003348 <HAL_I2C_Master_Receive+0x49c>
 80032aa:	6a7a      	ldr	r2, [r7, #36]	; 0x24
 80032ac:	6b39      	ldr	r1, [r7, #48]	; 0x30
 80032ae:	68f8      	ldr	r0, [r7, #12]
 80032b0:	f000 fc90 	bl	8003bd4 <I2C_WaitOnRXNEFlagUntilTimeout>
 80032b4:	4603      	mov	r3, r0
 80032b6:	2b00      	cmp	r3, #0
 80032b8:	d001      	beq.n	80032be <HAL_I2C_Master_Receive+0x412>
 80032ba:	2301      	movs	r3, #1
 80032bc:	e058      	b.n	8003370 <HAL_I2C_Master_Receive+0x4c4>
 80032be:	68fb      	ldr	r3, [r7, #12]
 80032c0:	681b      	ldr	r3, [r3, #0]
 80032c2:	691a      	ldr	r2, [r3, #16]
 80032c4:	68fb      	ldr	r3, [r7, #12]
 80032c6:	6a5b      	ldr	r3, [r3, #36]	; 0x24
 80032c8:	b2d2      	uxtb	r2, r2
 80032ca:	701a      	strb	r2, [r3, #0]
 80032cc:	68fb      	ldr	r3, [r7, #12]
 80032ce:	6a5b      	ldr	r3, [r3, #36]	; 0x24
 80032d0:	1c5a      	adds	r2, r3, #1
 80032d2:	68fb      	ldr	r3, [r7, #12]
 80032d4:	625a      	str	r2, [r3, #36]	; 0x24
 80032d6:	68fb      	ldr	r3, [r7, #12]
 80032d8:	8d1b      	ldrh	r3, [r3, #40]	; 0x28
 80032da:	3b01      	subs	r3, #1
 80032dc:	b29a      	uxth	r2, r3
 80032de:	68fb      	ldr	r3, [r7, #12]
 80032e0:	851a      	strh	r2, [r3, #40]	; 0x28
 80032e2:	68fb      	ldr	r3, [r7, #12]
 80032e4:	8d5b      	ldrh	r3, [r3, #42]	; 0x2a
 80032e6:	b29b      	uxth	r3, r3
 80032e8:	3b01      	subs	r3, #1
 80032ea:	b29a      	uxth	r2, r3
 80032ec:	68fb      	ldr	r3, [r7, #12]
 80032ee:	855a      	strh	r2, [r3, #42]	; 0x2a
 80032f0:	68fb      	ldr	r3, [r7, #12]
 80032f2:	681b      	ldr	r3, [r3, #0]
 80032f4:	695b      	ldr	r3, [r3, #20]
 80032f6:	f003 0304 	and.w	r3, r3, #4
 80032fa:	2b04      	cmp	r3, #4
 80032fc:	d124      	bne.n	8003348 <HAL_I2C_Master_Receive+0x49c>
 80032fe:	68fb      	ldr	r3, [r7, #12]
 8003300:	8d1b      	ldrh	r3, [r3, #40]	; 0x28
 8003302:	2b03      	cmp	r3, #3
 8003304:	d107      	bne.n	8003316 <HAL_I2C_Master_Receive+0x46a>
 8003306:	68fb      	ldr	r3, [r7, #12]
 8003308:	681b      	ldr	r3, [r3, #0]
 800330a:	681a      	ldr	r2, [r3, #0]
 800330c:	68fb      	ldr	r3, [r7, #12]
 800330e:	681b      	ldr	r3, [r3, #0]
 8003310:	f422 6280 	bic.w	r2, r2, #1024	; 0x400
 8003314:	601a      	str	r2, [r3, #0]
 8003316:	68fb      	ldr	r3, [r7, #12]
 8003318:	681b      	ldr	r3, [r3, #0]
 800331a:	691a      	ldr	r2, [r3, #16]
 800331c:	68fb      	ldr	r3, [r7, #12]
 800331e:	6a5b      	ldr	r3, [r3, #36]	; 0x24
 8003320:	b2d2      	uxtb	r2, r2
 8003322:	701a      	strb	r2, [r3, #0]
 8003324:	68fb      	ldr	r3, [r7, #12]
 8003326:	6a5b      	ldr	r3, [r3, #36]	; 0x24
 8003328:	1c5a      	adds	r2, r3, #1
 800332a:	68fb      	ldr	r3, [r7, #12]
 800332c:	625a      	str	r2, [r3, #36]	; 0x24
 800332e:	68fb      	ldr	r3, [r7, #12]
 8003330:	8d1b      	ldrh	r3, [r3, #40]	; 0x28
 8003332:	3b01      	subs	r3, #1
 8003334:	b29a      	uxth	r2, r3
 8003336:	68fb      	ldr	r3, [r7, #12]
 8003338:	851a      	strh	r2, [r3, #40]	; 0x28
 800333a:	68fb      	ldr	r3, [r7, #12]
 800333c:	8d5b      	ldrh	r3, [r3, #42]	; 0x2a
 800333e:	b29b      	uxth	r3, r3
 8003340:	3b01      	subs	r3, #1
 8003342:	b29a      	uxth	r2, r3
 8003344:	68fb      	ldr	r3, [r7, #12]
 8003346:	855a      	strh	r2, [r3, #42]	; 0x2a
 8003348:	68fb      	ldr	r3, [r7, #12]
 800334a:	8d1b      	ldrh	r3, [r3, #40]	; 0x28
 800334c:	2b00      	cmp	r3, #0
 800334e:	f47f ae88 	bne.w	8003062 <HAL_I2C_Master_Receive+0x1b6>
 8003352:	68fb      	ldr	r3, [r7, #12]
 8003354:	2220      	movs	r2, #32
 8003356:	f883 203d 	strb.w	r2, [r3, #61]	; 0x3d
 800335a:	68fb      	ldr	r3, [r7, #12]
 800335c:	2200      	movs	r2, #0
 800335e:	f883 203e 	strb.w	r2, [r3, #62]	; 0x3e
 8003362:	68fb      	ldr	r3, [r7, #12]
 8003364:	2200      	movs	r2, #0
 8003366:	f883 203c 	strb.w	r2, [r3, #60]	; 0x3c
 800336a:	2300      	movs	r3, #0
 800336c:	e000      	b.n	8003370 <HAL_I2C_Master_Receive+0x4c4>
 800336e:	2302      	movs	r3, #2
 8003370:	4618      	mov	r0, r3
 8003372:	3728      	adds	r7, #40	; 0x28
 8003374:	46bd      	mov	sp, r7
 8003376:	bd80      	pop	{r7, pc}
 8003378:	00010004 	.word	0x00010004
 800337c:	20000000 	.word	0x20000000
 8003380:	14f8b589 	.word	0x14f8b589

08003384 <HAL_I2C_IsDeviceReady>:
 8003384:	b580      	push	{r7, lr}
 8003386:	b08a      	sub	sp, #40	; 0x28
 8003388:	af02      	add	r7, sp, #8
 800338a:	60f8      	str	r0, [r7, #12]
 800338c:	607a      	str	r2, [r7, #4]
 800338e:	603b      	str	r3, [r7, #0]
 8003390:	460b      	mov	r3, r1
 8003392:	817b      	strh	r3, [r7, #10]
 8003394:	f7ff f856 	bl	8002444 <HAL_GetTick>
 8003398:	61f8      	str	r0, [r7, #28]
 800339a:	2300      	movs	r3, #0
 800339c:	61bb      	str	r3, [r7, #24]
 800339e:	68fb      	ldr	r3, [r7, #12]
 80033a0:	f893 303d 	ldrb.w	r3, [r3, #61]	; 0x3d
 80033a4:	b2db      	uxtb	r3, r3
 80033a6:	2b20      	cmp	r3, #32
 80033a8:	f040 8111 	bne.w	80035ce <HAL_I2C_IsDeviceReady+0x24a>
 80033ac:	69fb      	ldr	r3, [r7, #28]
 80033ae:	9300      	str	r3, [sp, #0]
 80033b0:	2319      	movs	r3, #25
 80033b2:	2201      	movs	r2, #1
 80033b4:	4988      	ldr	r1, [pc, #544]	; (80035d8 <HAL_I2C_IsDeviceReady+0x254>)
 80033b6:	68f8      	ldr	r0, [r7, #12]
 80033b8:	f000 fa62 	bl	8003880 <I2C_WaitOnFlagUntilTimeout>
 80033bc:	4603      	mov	r3, r0
 80033be:	2b00      	cmp	r3, #0
 80033c0:	d001      	beq.n	80033c6 <HAL_I2C_IsDeviceReady+0x42>
 80033c2:	2302      	movs	r3, #2
 80033c4:	e104      	b.n	80035d0 <HAL_I2C_IsDeviceReady+0x24c>
 80033c6:	68fb      	ldr	r3, [r7, #12]
 80033c8:	f893 303c 	ldrb.w	r3, [r3, #60]	; 0x3c
 80033cc:	2b01      	cmp	r3, #1
 80033ce:	d101      	bne.n	80033d4 <HAL_I2C_IsDeviceReady+0x50>
 80033d0:	2302      	movs	r3, #2
 80033d2:	e0fd      	b.n	80035d0 <HAL_I2C_IsDeviceReady+0x24c>
 80033d4:	68fb      	ldr	r3, [r7, #12]
 80033d6:	2201      	movs	r2, #1
 80033d8:	f883 203c 	strb.w	r2, [r3, #60]	; 0x3c
 80033dc:	68fb      	ldr	r3, [r7, #12]
 80033de:	681b      	ldr	r3, [r3, #0]
 80033e0:	681b      	ldr	r3, [r3, #0]
 80033e2:	f003 0301 	and.w	r3, r3, #1
 80033e6:	2b01      	cmp	r3, #1
 80033e8:	d007      	beq.n	80033fa <HAL_I2C_IsDeviceReady+0x76>
 80033ea:	68fb      	ldr	r3, [r7, #12]
 80033ec:	681b      	ldr	r3, [r3, #0]
 80033ee:	681a      	ldr	r2, [r3, #0]
 80033f0:	68fb      	ldr	r3, [r7, #12]
 80033f2:	681b      	ldr	r3, [r3, #0]
 80033f4:	f042 0201 	orr.w	r2, r2, #1
 80033f8:	601a      	str	r2, [r3, #0]
 80033fa:	68fb      	ldr	r3, [r7, #12]
 80033fc:	681b      	ldr	r3, [r3, #0]
 80033fe:	681a      	ldr	r2, [r3, #0]
 8003400:	68fb      	ldr	r3, [r7, #12]
 8003402:	681b      	ldr	r3, [r3, #0]
 8003404:	f422 6200 	bic.w	r2, r2, #2048	; 0x800
 8003408:	601a      	str	r2, [r3, #0]
 800340a:	68fb      	ldr	r3, [r7, #12]
 800340c:	2224      	movs	r2, #36	; 0x24
 800340e:	f883 203d 	strb.w	r2, [r3, #61]	; 0x3d
 8003412:	68fb      	ldr	r3, [r7, #12]
 8003414:	2200      	movs	r2, #0
 8003416:	641a      	str	r2, [r3, #64]	; 0x40
 8003418:	68fb      	ldr	r3, [r7, #12]
 800341a:	4a70      	ldr	r2, [pc, #448]	; (80035dc <HAL_I2C_IsDeviceReady+0x258>)
 800341c:	62da      	str	r2, [r3, #44]	; 0x2c
 800341e:	68fb      	ldr	r3, [r7, #12]
 8003420:	681b      	ldr	r3, [r3, #0]
 8003422:	681a      	ldr	r2, [r3, #0]
 8003424:	68fb      	ldr	r3, [r7, #12]
 8003426:	681b      	ldr	r3, [r3, #0]
 8003428:	f442 7280 	orr.w	r2, r2, #256	; 0x100
 800342c:	601a      	str	r2, [r3, #0]
 800342e:	69fb      	ldr	r3, [r7, #28]
 8003430:	9300      	str	r3, [sp, #0]
 8003432:	683b      	ldr	r3, [r7, #0]
 8003434:	2200      	movs	r2, #0
 8003436:	f04f 1101 	mov.w	r1, #65537	; 0x10001
 800343a:	68f8      	ldr	r0, [r7, #12]
 800343c:	f000 fa20 	bl	8003880 <I2C_WaitOnFlagUntilTimeout>
 8003440:	4603      	mov	r3, r0
 8003442:	2b00      	cmp	r3, #0
 8003444:	d00d      	beq.n	8003462 <HAL_I2C_IsDeviceReady+0xde>
 8003446:	68fb      	ldr	r3, [r7, #12]
 8003448:	681b      	ldr	r3, [r3, #0]
 800344a:	681b      	ldr	r3, [r3, #0]
 800344c:	f403 7380 	and.w	r3, r3, #256	; 0x100
 8003450:	f5b3 7f80 	cmp.w	r3, #256	; 0x100
 8003454:	d103      	bne.n	800345e <HAL_I2C_IsDeviceReady+0xda>
 8003456:	68fb      	ldr	r3, [r7, #12]
 8003458:	f44f 7200 	mov.w	r2, #512	; 0x200
 800345c:	641a      	str	r2, [r3, #64]	; 0x40
 800345e:	2303      	movs	r3, #3
 8003460:	e0b6      	b.n	80035d0 <HAL_I2C_IsDeviceReady+0x24c>
 8003462:	897b      	ldrh	r3, [r7, #10]
 8003464:	b2db      	uxtb	r3, r3
 8003466:	461a      	mov	r2, r3
 8003468:	68fb      	ldr	r3, [r7, #12]
 800346a:	681b      	ldr	r3, [r3, #0]
 800346c:	f002 02fe 	and.w	r2, r2, #254	; 0xfe
 8003470:	611a      	str	r2, [r3, #16]
 8003472:	f7fe ffe7 	bl	8002444 <HAL_GetTick>
 8003476:	61f8      	str	r0, [r7, #28]
 8003478:	68fb      	ldr	r3, [r7, #12]
 800347a:	681b      	ldr	r3, [r3, #0]
 800347c:	695b      	ldr	r3, [r3, #20]
 800347e:	f003 0302 	and.w	r3, r3, #2
 8003482:	2b02      	cmp	r3, #2
 8003484:	bf0c      	ite	eq
 8003486:	2301      	moveq	r3, #1
 8003488:	2300      	movne	r3, #0
 800348a:	b2db      	uxtb	r3, r3
 800348c:	75fb      	strb	r3, [r7, #23]
 800348e:	68fb      	ldr	r3, [r7, #12]
 8003490:	681b      	ldr	r3, [r3, #0]
 8003492:	695b      	ldr	r3, [r3, #20]
 8003494:	f403 6380 	and.w	r3, r3, #1024	; 0x400
 8003498:	f5b3 6f80 	cmp.w	r3, #1024	; 0x400
 800349c:	bf0c      	ite	eq
 800349e:	2301      	moveq	r3, #1
 80034a0:	2300      	movne	r3, #0
 80034a2:	b2db      	uxtb	r3, r3
 80034a4:	75bb      	strb	r3, [r7, #22]
 80034a6:	e025      	b.n	80034f4 <HAL_I2C_IsDeviceReady+0x170>
 80034a8:	f7fe ffcc 	bl	8002444 <HAL_GetTick>
 80034ac:	4602      	mov	r2, r0
 80034ae:	69fb      	ldr	r3, [r7, #28]
 80034b0:	1ad3      	subs	r3, r2, r3
 80034b2:	683a      	ldr	r2, [r7, #0]
 80034b4:	429a      	cmp	r2, r3
 80034b6:	d302      	bcc.n	80034be <HAL_I2C_IsDeviceReady+0x13a>
 80034b8:	683b      	ldr	r3, [r7, #0]
 80034ba:	2b00      	cmp	r3, #0
 80034bc:	d103      	bne.n	80034c6 <HAL_I2C_IsDeviceReady+0x142>
 80034be:	68fb      	ldr	r3, [r7, #12]
 80034c0:	22a0      	movs	r2, #160	; 0xa0
 80034c2:	f883 203d 	strb.w	r2, [r3, #61]	; 0x3d
 80034c6:	68fb      	ldr	r3, [r7, #12]
 80034c8:	681b      	ldr	r3, [r3, #0]
 80034ca:	695b      	ldr	r3, [r3, #20]
 80034cc:	f003 0302 	and.w	r3, r3, #2
 80034d0:	2b02      	cmp	r3, #2
 80034d2:	bf0c      	ite	eq
 80034d4:	2301      	moveq	r3, #1
 80034d6:	2300      	movne	r3, #0
 80034d8:	b2db      	uxtb	r3, r3
 80034da:	75fb      	strb	r3, [r7, #23]
 80034dc:	68fb      	ldr	r3, [r7, #12]
 80034de:	681b      	ldr	r3, [r3, #0]
 80034e0:	695b      	ldr	r3, [r3, #20]
 80034e2:	f403 6380 	and.w	r3, r3, #1024	; 0x400
 80034e6:	f5b3 6f80 	cmp.w	r3, #1024	; 0x400
 80034ea:	bf0c      	ite	eq
 80034ec:	2301      	moveq	r3, #1
 80034ee:	2300      	movne	r3, #0
 80034f0:	b2db      	uxtb	r3, r3
 80034f2:	75bb      	strb	r3, [r7, #22]
 80034f4:	68fb      	ldr	r3, [r7, #12]
 80034f6:	f893 303d 	ldrb.w	r3, [r3, #61]	; 0x3d
 80034fa:	b2db      	uxtb	r3, r3
 80034fc:	2ba0      	cmp	r3, #160	; 0xa0
 80034fe:	d005      	beq.n	800350c <HAL_I2C_IsDeviceReady+0x188>
 8003500:	7dfb      	ldrb	r3, [r7, #23]
 8003502:	2b00      	cmp	r3, #0
 8003504:	d102      	bne.n	800350c <HAL_I2C_IsDeviceReady+0x188>
 8003506:	7dbb      	ldrb	r3, [r7, #22]
 8003508:	2b00      	cmp	r3, #0
 800350a:	d0cd      	beq.n	80034a8 <HAL_I2C_IsDeviceReady+0x124>
 800350c:	68fb      	ldr	r3, [r7, #12]
 800350e:	2220      	movs	r2, #32
 8003510:	f883 203d 	strb.w	r2, [r3, #61]	; 0x3d
 8003514:	68fb      	ldr	r3, [r7, #12]
 8003516:	681b      	ldr	r3, [r3, #0]
 8003518:	695b      	ldr	r3, [r3, #20]
 800351a:	f003 0302 	and.w	r3, r3, #2
 800351e:	2b02      	cmp	r3, #2
 8003520:	d129      	bne.n	8003576 <HAL_I2C_IsDeviceReady+0x1f2>
 8003522:	68fb      	ldr	r3, [r7, #12]
 8003524:	681b      	ldr	r3, [r3, #0]
 8003526:	681a      	ldr	r2, [r3, #0]
 8003528:	68fb      	ldr	r3, [r7, #12]
 800352a:	681b      	ldr	r3, [r3, #0]
 800352c:	f442 7200 	orr.w	r2, r2, #512	; 0x200
 8003530:	601a      	str	r2, [r3, #0]
 8003532:	2300      	movs	r3, #0
 8003534:	613b      	str	r3, [r7, #16]
 8003536:	68fb      	ldr	r3, [r7, #12]
 8003538:	681b      	ldr	r3, [r3, #0]
 800353a:	695b      	ldr	r3, [r3, #20]
 800353c:	613b      	str	r3, [r7, #16]
 800353e:	68fb      	ldr	r3, [r7, #12]
 8003540:	681b      	ldr	r3, [r3, #0]
 8003542:	699b      	ldr	r3, [r3, #24]
 8003544:	613b      	str	r3, [r7, #16]
 8003546:	693b      	ldr	r3, [r7, #16]
 8003548:	69fb      	ldr	r3, [r7, #28]
 800354a:	9300      	str	r3, [sp, #0]
 800354c:	2319      	movs	r3, #25
 800354e:	2201      	movs	r2, #1
 8003550:	4921      	ldr	r1, [pc, #132]	; (80035d8 <HAL_I2C_IsDeviceReady+0x254>)
 8003552:	68f8      	ldr	r0, [r7, #12]
 8003554:	f000 f994 	bl	8003880 <I2C_WaitOnFlagUntilTimeout>
 8003558:	4603      	mov	r3, r0
 800355a:	2b00      	cmp	r3, #0
 800355c:	d001      	beq.n	8003562 <HAL_I2C_IsDeviceReady+0x1de>
 800355e:	2301      	movs	r3, #1
 8003560:	e036      	b.n	80035d0 <HAL_I2C_IsDeviceReady+0x24c>
 8003562:	68fb      	ldr	r3, [r7, #12]
 8003564:	2220      	movs	r2, #32
 8003566:	f883 203d 	strb.w	r2, [r3, #61]	; 0x3d
 800356a:	68fb      	ldr	r3, [r7, #12]
 800356c:	2200      	movs	r2, #0
 800356e:	f883 203c 	strb.w	r2, [r3, #60]	; 0x3c
 8003572:	2300      	movs	r3, #0
 8003574:	e02c      	b.n	80035d0 <HAL_I2C_IsDeviceReady+0x24c>
 8003576:	68fb      	ldr	r3, [r7, #12]
 8003578:	681b      	ldr	r3, [r3, #0]
 800357a:	681a      	ldr	r2, [r3, #0]
 800357c:	68fb      	ldr	r3, [r7, #12]
 800357e:	681b      	ldr	r3, [r3, #0]
 8003580:	f442 7200 	orr.w	r2, r2, #512	; 0x200
 8003584:	601a      	str	r2, [r3, #0]
 8003586:	68fb      	ldr	r3, [r7, #12]
 8003588:	681b      	ldr	r3, [r3, #0]
 800358a:	f46f 6280 	mvn.w	r2, #1024	; 0x400
 800358e:	615a      	str	r2, [r3, #20]
 8003590:	69fb      	ldr	r3, [r7, #28]
 8003592:	9300      	str	r3, [sp, #0]
 8003594:	2319      	movs	r3, #25
 8003596:	2201      	movs	r2, #1
 8003598:	490f      	ldr	r1, [pc, #60]	; (80035d8 <HAL_I2C_IsDeviceReady+0x254>)
 800359a:	68f8      	ldr	r0, [r7, #12]
 800359c:	f000 f970 	bl	8003880 <I2C_WaitOnFlagUntilTimeout>
 80035a0:	4603      	mov	r3, r0
 80035a2:	2b00      	cmp	r3, #0
 80035a4:	d001      	beq.n	80035aa <HAL_I2C_IsDeviceReady+0x226>
 80035a6:	2301      	movs	r3, #1
 80035a8:	e012      	b.n	80035d0 <HAL_I2C_IsDeviceReady+0x24c>
 80035aa:	69bb      	ldr	r3, [r7, #24]
 80035ac:	3301      	adds	r3, #1
 80035ae:	61bb      	str	r3, [r7, #24]
 80035b0:	69ba      	ldr	r2, [r7, #24]
 80035b2:	687b      	ldr	r3, [r7, #4]
 80035b4:	429a      	cmp	r2, r3
 80035b6:	f4ff af32 	bcc.w	800341e <HAL_I2C_IsDeviceReady+0x9a>
 80035ba:	68fb      	ldr	r3, [r7, #12]
 80035bc:	2220      	movs	r2, #32
 80035be:	f883 203d 	strb.w	r2, [r3, #61]	; 0x3d
 80035c2:	68fb      	ldr	r3, [r7, #12]
 80035c4:	2200      	movs	r2, #0
 80035c6:	f883 203c 	strb.w	r2, [r3, #60]	; 0x3c
 80035ca:	2301      	movs	r3, #1
 80035cc:	e000      	b.n	80035d0 <HAL_I2C_IsDeviceReady+0x24c>
 80035ce:	2302      	movs	r3, #2
 80035d0:	4618      	mov	r0, r3
 80035d2:	3720      	adds	r7, #32
 80035d4:	46bd      	mov	sp, r7
 80035d6:	bd80      	pop	{r7, pc}
 80035d8:	00100002 	.word	0x00100002
 80035dc:	ffff0000 	.word	0xffff0000

080035e0 <I2C_MasterRequestWrite>:
 80035e0:	b580      	push	{r7, lr}
 80035e2:	b088      	sub	sp, #32
 80035e4:	af02      	add	r7, sp, #8
 80035e6:	60f8      	str	r0, [r7, #12]
 80035e8:	607a      	str	r2, [r7, #4]
 80035ea:	603b      	str	r3, [r7, #0]
 80035ec:	460b      	mov	r3, r1
 80035ee:	817b      	strh	r3, [r7, #10]
 80035f0:	68fb      	ldr	r3, [r7, #12]
 80035f2:	6adb      	ldr	r3, [r3, #44]	; 0x2c
 80035f4:	617b      	str	r3, [r7, #20]
 80035f6:	697b      	ldr	r3, [r7, #20]
 80035f8:	2b08      	cmp	r3, #8
 80035fa:	d006      	beq.n	800360a <I2C_MasterRequestWrite+0x2a>
 80035fc:	697b      	ldr	r3, [r7, #20]
 80035fe:	2b01      	cmp	r3, #1
 8003600:	d003      	beq.n	800360a <I2C_MasterRequestWrite+0x2a>
 8003602:	697b      	ldr	r3, [r7, #20]
 8003604:	f513 3f80 	cmn.w	r3, #65536	; 0x10000
 8003608:	d108      	bne.n	800361c <I2C_MasterRequestWrite+0x3c>
 800360a:	68fb      	ldr	r3, [r7, #12]
 800360c:	681b      	ldr	r3, [r3, #0]
 800360e:	681a      	ldr	r2, [r3, #0]
 8003610:	68fb      	ldr	r3, [r7, #12]
 8003612:	681b      	ldr	r3, [r3, #0]
 8003614:	f442 7280 	orr.w	r2, r2, #256	; 0x100
 8003618:	601a      	str	r2, [r3, #0]
 800361a:	e00b      	b.n	8003634 <I2C_MasterRequestWrite+0x54>
 800361c:	68fb      	ldr	r3, [r7, #12]
 800361e:	6b1b      	ldr	r3, [r3, #48]	; 0x30
 8003620:	2b12      	cmp	r3, #18
 8003622:	d107      	bne.n	8003634 <I2C_MasterRequestWrite+0x54>
 8003624:	68fb      	ldr	r3, [r7, #12]
 8003626:	681b      	ldr	r3, [r3, #0]
 8003628:	681a      	ldr	r2, [r3, #0]
 800362a:	68fb      	ldr	r3, [r7, #12]
 800362c:	681b      	ldr	r3, [r3, #0]
 800362e:	f442 7280 	orr.w	r2, r2, #256	; 0x100
 8003632:	601a      	str	r2, [r3, #0]
 8003634:	683b      	ldr	r3, [r7, #0]
 8003636:	9300      	str	r3, [sp, #0]
 8003638:	687b      	ldr	r3, [r7, #4]
 800363a:	2200      	movs	r2, #0
 800363c:	f04f 1101 	mov.w	r1, #65537	; 0x10001
 8003640:	68f8      	ldr	r0, [r7, #12]
 8003642:	f000 f91d 	bl	8003880 <I2C_WaitOnFlagUntilTimeout>
 8003646:	4603      	mov	r3, r0
 8003648:	2b00      	cmp	r3, #0
 800364a:	d00d      	beq.n	8003668 <I2C_MasterRequestWrite+0x88>
 800364c:	68fb      	ldr	r3, [r7, #12]
 800364e:	681b      	ldr	r3, [r3, #0]
 8003650:	681b      	ldr	r3, [r3, #0]
 8003652:	f403 7380 	and.w	r3, r3, #256	; 0x100
 8003656:	f5b3 7f80 	cmp.w	r3, #256	; 0x100
 800365a:	d103      	bne.n	8003664 <I2C_MasterRequestWrite+0x84>
 800365c:	68fb      	ldr	r3, [r7, #12]
 800365e:	f44f 7200 	mov.w	r2, #512	; 0x200
 8003662:	641a      	str	r2, [r3, #64]	; 0x40
 8003664:	2303      	movs	r3, #3
 8003666:	e035      	b.n	80036d4 <I2C_MasterRequestWrite+0xf4>
 8003668:	68fb      	ldr	r3, [r7, #12]
 800366a:	691b      	ldr	r3, [r3, #16]
 800366c:	f5b3 4f80 	cmp.w	r3, #16384	; 0x4000
 8003670:	d108      	bne.n	8003684 <I2C_MasterRequestWrite+0xa4>
 8003672:	897b      	ldrh	r3, [r7, #10]
 8003674:	b2db      	uxtb	r3, r3
 8003676:	461a      	mov	r2, r3
 8003678:	68fb      	ldr	r3, [r7, #12]
 800367a:	681b      	ldr	r3, [r3, #0]
 800367c:	f002 02fe 	and.w	r2, r2, #254	; 0xfe
 8003680:	611a      	str	r2, [r3, #16]
 8003682:	e01b      	b.n	80036bc <I2C_MasterRequestWrite+0xdc>
 8003684:	897b      	ldrh	r3, [r7, #10]
 8003686:	11db      	asrs	r3, r3, #7
 8003688:	b2db      	uxtb	r3, r3
 800368a:	f003 0306 	and.w	r3, r3, #6
 800368e:	b2db      	uxtb	r3, r3
 8003690:	f063 030f 	orn	r3, r3, #15
 8003694:	b2da      	uxtb	r2, r3
 8003696:	68fb      	ldr	r3, [r7, #12]
 8003698:	681b      	ldr	r3, [r3, #0]
 800369a:	611a      	str	r2, [r3, #16]
 800369c:	683b      	ldr	r3, [r7, #0]
 800369e:	687a      	ldr	r2, [r7, #4]
 80036a0:	490e      	ldr	r1, [pc, #56]	; (80036dc <I2C_MasterRequestWrite+0xfc>)
 80036a2:	68f8      	ldr	r0, [r7, #12]
 80036a4:	f000 f966 	bl	8003974 <I2C_WaitOnMasterAddressFlagUntilTimeout>
 80036a8:	4603      	mov	r3, r0
 80036aa:	2b00      	cmp	r3, #0
 80036ac:	d001      	beq.n	80036b2 <I2C_MasterRequestWrite+0xd2>
 80036ae:	2301      	movs	r3, #1
 80036b0:	e010      	b.n	80036d4 <I2C_MasterRequestWrite+0xf4>
 80036b2:	897b      	ldrh	r3, [r7, #10]
 80036b4:	b2da      	uxtb	r2, r3
 80036b6:	68fb      	ldr	r3, [r7, #12]
 80036b8:	681b      	ldr	r3, [r3, #0]
 80036ba:	611a      	str	r2, [r3, #16]
 80036bc:	683b      	ldr	r3, [r7, #0]
 80036be:	687a      	ldr	r2, [r7, #4]
 80036c0:	4907      	ldr	r1, [pc, #28]	; (80036e0 <I2C_MasterRequestWrite+0x100>)
 80036c2:	68f8      	ldr	r0, [r7, #12]
 80036c4:	f000 f956 	bl	8003974 <I2C_WaitOnMasterAddressFlagUntilTimeout>
 80036c8:	4603      	mov	r3, r0
 80036ca:	2b00      	cmp	r3, #0
 80036cc:	d001      	beq.n	80036d2 <I2C_MasterRequestWrite+0xf2>
 80036ce:	2301      	movs	r3, #1
 80036d0:	e000      	b.n	80036d4 <I2C_MasterRequestWrite+0xf4>
 80036d2:	2300      	movs	r3, #0
 80036d4:	4618      	mov	r0, r3
 80036d6:	3718      	adds	r7, #24
 80036d8:	46bd      	mov	sp, r7
 80036da:	bd80      	pop	{r7, pc}
 80036dc:	00010008 	.word	0x00010008
 80036e0:	00010002 	.word	0x00010002

080036e4 <I2C_MasterRequestRead>:
 80036e4:	b580      	push	{r7, lr}
 80036e6:	b088      	sub	sp, #32
 80036e8:	af02      	add	r7, sp, #8
 80036ea:	60f8      	str	r0, [r7, #12]
 80036ec:	607a      	str	r2, [r7, #4]
 80036ee:	603b      	str	r3, [r7, #0]
 80036f0:	460b      	mov	r3, r1
 80036f2:	817b      	strh	r3, [r7, #10]
 80036f4:	68fb      	ldr	r3, [r7, #12]
 80036f6:	6adb      	ldr	r3, [r3, #44]	; 0x2c
 80036f8:	617b      	str	r3, [r7, #20]
 80036fa:	68fb      	ldr	r3, [r7, #12]
 80036fc:	681b      	ldr	r3, [r3, #0]
 80036fe:	681a      	ldr	r2, [r3, #0]
 8003700:	68fb      	ldr	r3, [r7, #12]
 8003702:	681b      	ldr	r3, [r3, #0]
 8003704:	f442 6280 	orr.w	r2, r2, #1024	; 0x400
 8003708:	601a      	str	r2, [r3, #0]
 800370a:	697b      	ldr	r3, [r7, #20]
 800370c:	2b08      	cmp	r3, #8
 800370e:	d006      	beq.n	800371e <I2C_MasterRequestRead+0x3a>
 8003710:	697b      	ldr	r3, [r7, #20]
 8003712:	2b01      	cmp	r3, #1
 8003714:	d003      	beq.n	800371e <I2C_MasterRequestRead+0x3a>
 8003716:	697b      	ldr	r3, [r7, #20]
 8003718:	f513 3f80 	cmn.w	r3, #65536	; 0x10000
 800371c:	d108      	bne.n	8003730 <I2C_MasterRequestRead+0x4c>
 800371e:	68fb      	ldr	r3, [r7, #12]
 8003720:	681b      	ldr	r3, [r3, #0]
 8003722:	681a      	ldr	r2, [r3, #0]
 8003724:	68fb      	ldr	r3, [r7, #12]
 8003726:	681b      	ldr	r3, [r3, #0]
 8003728:	f442 7280 	orr.w	r2, r2, #256	; 0x100
 800372c:	601a      	str	r2, [r3, #0]
 800372e:	e00b      	b.n	8003748 <I2C_MasterRequestRead+0x64>
 8003730:	68fb      	ldr	r3, [r7, #12]
 8003732:	6b1b      	ldr	r3, [r3, #48]	; 0x30
 8003734:	2b11      	cmp	r3, #17
 8003736:	d107      	bne.n	8003748 <I2C_MasterRequestRead+0x64>
 8003738:	68fb      	ldr	r3, [r7, #12]
 800373a:	681b      	ldr	r3, [r3, #0]
 800373c:	681a      	ldr	r2, [r3, #0]
 800373e:	68fb      	ldr	r3, [r7, #12]
 8003740:	681b      	ldr	r3, [r3, #0]
 8003742:	f442 7280 	orr.w	r2, r2, #256	; 0x100
 8003746:	601a      	str	r2, [r3, #0]
 8003748:	683b      	ldr	r3, [r7, #0]
 800374a:	9300      	str	r3, [sp, #0]
 800374c:	687b      	ldr	r3, [r7, #4]
 800374e:	2200      	movs	r2, #0
 8003750:	f04f 1101 	mov.w	r1, #65537	; 0x10001
 8003754:	68f8      	ldr	r0, [r7, #12]
 8003756:	f000 f893 	bl	8003880 <I2C_WaitOnFlagUntilTimeout>
 800375a:	4603      	mov	r3, r0
 800375c:	2b00      	cmp	r3, #0
 800375e:	d00d      	beq.n	800377c <I2C_MasterRequestRead+0x98>
 8003760:	68fb      	ldr	r3, [r7, #12]
 8003762:	681b      	ldr	r3, [r3, #0]
 8003764:	681b      	ldr	r3, [r3, #0]
 8003766:	f403 7380 	and.w	r3, r3, #256	; 0x100
 800376a:	f5b3 7f80 	cmp.w	r3, #256	; 0x100
 800376e:	d103      	bne.n	8003778 <I2C_MasterRequestRead+0x94>
 8003770:	68fb      	ldr	r3, [r7, #12]
 8003772:	f44f 7200 	mov.w	r2, #512	; 0x200
 8003776:	641a      	str	r2, [r3, #64]	; 0x40
 8003778:	2303      	movs	r3, #3
 800377a:	e079      	b.n	8003870 <I2C_MasterRequestRead+0x18c>
 800377c:	68fb      	ldr	r3, [r7, #12]
 800377e:	691b      	ldr	r3, [r3, #16]
 8003780:	f5b3 4f80 	cmp.w	r3, #16384	; 0x4000
 8003784:	d108      	bne.n	8003798 <I2C_MasterRequestRead+0xb4>
 8003786:	897b      	ldrh	r3, [r7, #10]
 8003788:	b2db      	uxtb	r3, r3
 800378a:	f043 0301 	orr.w	r3, r3, #1
 800378e:	b2da      	uxtb	r2, r3
 8003790:	68fb      	ldr	r3, [r7, #12]
 8003792:	681b      	ldr	r3, [r3, #0]
 8003794:	611a      	str	r2, [r3, #16]
 8003796:	e05f      	b.n	8003858 <I2C_MasterRequestRead+0x174>
 8003798:	897b      	ldrh	r3, [r7, #10]
 800379a:	11db      	asrs	r3, r3, #7
 800379c:	b2db      	uxtb	r3, r3
 800379e:	f003 0306 	and.w	r3, r3, #6
 80037a2:	b2db      	uxtb	r3, r3
 80037a4:	f063 030f 	orn	r3, r3, #15
 80037a8:	b2da      	uxtb	r2, r3
 80037aa:	68fb      	ldr	r3, [r7, #12]
 80037ac:	681b      	ldr	r3, [r3, #0]
 80037ae:	611a      	str	r2, [r3, #16]
 80037b0:	683b      	ldr	r3, [r7, #0]
 80037b2:	687a      	ldr	r2, [r7, #4]
 80037b4:	4930      	ldr	r1, [pc, #192]	; (8003878 <I2C_MasterRequestRead+0x194>)
 80037b6:	68f8      	ldr	r0, [r7, #12]
 80037b8:	f000 f8dc 	bl	8003974 <I2C_WaitOnMasterAddressFlagUntilTimeout>
 80037bc:	4603      	mov	r3, r0
 80037be:	2b00      	cmp	r3, #0
 80037c0:	d001      	beq.n	80037c6 <I2C_MasterRequestRead+0xe2>
 80037c2:	2301      	movs	r3, #1
 80037c4:	e054      	b.n	8003870 <I2C_MasterRequestRead+0x18c>
 80037c6:	897b      	ldrh	r3, [r7, #10]
 80037c8:	b2da      	uxtb	r2, r3
 80037ca:	68fb      	ldr	r3, [r7, #12]
 80037cc:	681b      	ldr	r3, [r3, #0]
 80037ce:	611a      	str	r2, [r3, #16]
 80037d0:	683b      	ldr	r3, [r7, #0]
 80037d2:	687a      	ldr	r2, [r7, #4]
 80037d4:	4929      	ldr	r1, [pc, #164]	; (800387c <I2C_MasterRequestRead+0x198>)
 80037d6:	68f8      	ldr	r0, [r7, #12]
 80037d8:	f000 f8cc 	bl	8003974 <I2C_WaitOnMasterAddressFlagUntilTimeout>
 80037dc:	4603      	mov	r3, r0
 80037de:	2b00      	cmp	r3, #0
 80037e0:	d001      	beq.n	80037e6 <I2C_MasterRequestRead+0x102>
 80037e2:	2301      	movs	r3, #1
 80037e4:	e044      	b.n	8003870 <I2C_MasterRequestRead+0x18c>
 80037e6:	2300      	movs	r3, #0
 80037e8:	613b      	str	r3, [r7, #16]
 80037ea:	68fb      	ldr	r3, [r7, #12]
 80037ec:	681b      	ldr	r3, [r3, #0]
 80037ee:	695b      	ldr	r3, [r3, #20]
 80037f0:	613b      	str	r3, [r7, #16]
 80037f2:	68fb      	ldr	r3, [r7, #12]
 80037f4:	681b      	ldr	r3, [r3, #0]
 80037f6:	699b      	ldr	r3, [r3, #24]
 80037f8:	613b      	str	r3, [r7, #16]
 80037fa:	693b      	ldr	r3, [r7, #16]
 80037fc:	68fb      	ldr	r3, [r7, #12]
 80037fe:	681b      	ldr	r3, [r3, #0]
 8003800:	681a      	ldr	r2, [r3, #0]
 8003802:	68fb      	ldr	r3, [r7, #12]
 8003804:	681b      	ldr	r3, [r3, #0]
 8003806:	f442 7280 	orr.w	r2, r2, #256	; 0x100
 800380a:	601a      	str	r2, [r3, #0]
 800380c:	683b      	ldr	r3, [r7, #0]
 800380e:	9300      	str	r3, [sp, #0]
 8003810:	687b      	ldr	r3, [r7, #4]
 8003812:	2200      	movs	r2, #0
 8003814:	f04f 1101 	mov.w	r1, #65537	; 0x10001
 8003818:	68f8      	ldr	r0, [r7, #12]
 800381a:	f000 f831 	bl	8003880 <I2C_WaitOnFlagUntilTimeout>
 800381e:	4603      	mov	r3, r0
 8003820:	2b00      	cmp	r3, #0
 8003822:	d00d      	beq.n	8003840 <I2C_MasterRequestRead+0x15c>
 8003824:	68fb      	ldr	r3, [r7, #12]
 8003826:	681b      	ldr	r3, [r3, #0]
 8003828:	681b      	ldr	r3, [r3, #0]
 800382a:	f403 7380 	and.w	r3, r3, #256	; 0x100
 800382e:	f5b3 7f80 	cmp.w	r3, #256	; 0x100
 8003832:	d103      	bne.n	800383c <I2C_MasterRequestRead+0x158>
 8003834:	68fb      	ldr	r3, [r7, #12]
 8003836:	f44f 7200 	mov.w	r2, #512	; 0x200
 800383a:	641a      	str	r2, [r3, #64]	; 0x40
 800383c:	2303      	movs	r3, #3
 800383e:	e017      	b.n	8003870 <I2C_MasterRequestRead+0x18c>
 8003840:	897b      	ldrh	r3, [r7, #10]
 8003842:	11db      	asrs	r3, r3, #7
 8003844:	b2db      	uxtb	r3, r3
 8003846:	f003 0306 	and.w	r3, r3, #6
 800384a:	b2db      	uxtb	r3, r3
 800384c:	f063 030e 	orn	r3, r3, #14
 8003850:	b2da      	uxtb	r2, r3
 8003852:	68fb      	ldr	r3, [r7, #12]
 8003854:	681b      	ldr	r3, [r3, #0]
 8003856:	611a      	str	r2, [r3, #16]
 8003858:	683b      	ldr	r3, [r7, #0]
 800385a:	687a      	ldr	r2, [r7, #4]
 800385c:	4907      	ldr	r1, [pc, #28]	; (800387c <I2C_MasterRequestRead+0x198>)
 800385e:	68f8      	ldr	r0, [r7, #12]
 8003860:	f000 f888 	bl	8003974 <I2C_WaitOnMasterAddressFlagUntilTimeout>
 8003864:	4603      	mov	r3, r0
 8003866:	2b00      	cmp	r3, #0
 8003868:	d001      	beq.n	800386e <I2C_MasterRequestRead+0x18a>
 800386a:	2301      	movs	r3, #1
 800386c:	e000      	b.n	8003870 <I2C_MasterRequestRead+0x18c>
 800386e:	2300      	movs	r3, #0
 8003870:	4618      	mov	r0, r3
 8003872:	3718      	adds	r7, #24
 8003874:	46bd      	mov	sp, r7
 8003876:	bd80      	pop	{r7, pc}
 8003878:	00010008 	.word	0x00010008
 800387c:	00010002 	.word	0x00010002

08003880 <I2C_WaitOnFlagUntilTimeout>:
 8003880:	b580      	push	{r7, lr}
 8003882:	b084      	sub	sp, #16
 8003884:	af00      	add	r7, sp, #0
 8003886:	60f8      	str	r0, [r7, #12]
 8003888:	60b9      	str	r1, [r7, #8]
 800388a:	603b      	str	r3, [r7, #0]
 800388c:	4613      	mov	r3, r2
 800388e:	71fb      	strb	r3, [r7, #7]
 8003890:	e048      	b.n	8003924 <I2C_WaitOnFlagUntilTimeout+0xa4>
 8003892:	683b      	ldr	r3, [r7, #0]
 8003894:	f1b3 3fff 	cmp.w	r3, #4294967295
 8003898:	d044      	beq.n	8003924 <I2C_WaitOnFlagUntilTimeout+0xa4>
 800389a:	f7fe fdd3 	bl	8002444 <HAL_GetTick>
 800389e:	4602      	mov	r2, r0
 80038a0:	69bb      	ldr	r3, [r7, #24]
 80038a2:	1ad3      	subs	r3, r2, r3
 80038a4:	683a      	ldr	r2, [r7, #0]
 80038a6:	429a      	cmp	r2, r3
 80038a8:	d302      	bcc.n	80038b0 <I2C_WaitOnFlagUntilTimeout+0x30>
 80038aa:	683b      	ldr	r3, [r7, #0]
 80038ac:	2b00      	cmp	r3, #0
 80038ae:	d139      	bne.n	8003924 <I2C_WaitOnFlagUntilTimeout+0xa4>
 80038b0:	68bb      	ldr	r3, [r7, #8]
 80038b2:	0c1b      	lsrs	r3, r3, #16
 80038b4:	b2db      	uxtb	r3, r3
 80038b6:	2b01      	cmp	r3, #1
 80038b8:	d10d      	bne.n	80038d6 <I2C_WaitOnFlagUntilTimeout+0x56>
 80038ba:	68fb      	ldr	r3, [r7, #12]
 80038bc:	681b      	ldr	r3, [r3, #0]
 80038be:	695b      	ldr	r3, [r3, #20]
 80038c0:	43da      	mvns	r2, r3
 80038c2:	68bb      	ldr	r3, [r7, #8]
 80038c4:	4013      	ands	r3, r2
 80038c6:	b29b      	uxth	r3, r3
 80038c8:	2b00      	cmp	r3, #0
 80038ca:	bf0c      	ite	eq
 80038cc:	2301      	moveq	r3, #1
 80038ce:	2300      	movne	r3, #0
 80038d0:	b2db      	uxtb	r3, r3
 80038d2:	461a      	mov	r2, r3
 80038d4:	e00c      	b.n	80038f0 <I2C_WaitOnFlagUntilTimeout+0x70>
 80038d6:	68fb      	ldr	r3, [r7, #12]
 80038d8:	681b      	ldr	r3, [r3, #0]
 80038da:	699b      	ldr	r3, [r3, #24]
 80038dc:	43da      	mvns	r2, r3
 80038de:	68bb      	ldr	r3, [r7, #8]
 80038e0:	4013      	ands	r3, r2
 80038e2:	b29b      	uxth	r3, r3
 80038e4:	2b00      	cmp	r3, #0
 80038e6:	bf0c      	ite	eq
 80038e8:	2301      	moveq	r3, #1
 80038ea:	2300      	movne	r3, #0
 80038ec:	b2db      	uxtb	r3, r3
 80038ee:	461a      	mov	r2, r3
 80038f0:	79fb      	ldrb	r3, [r7, #7]
 80038f2:	429a      	cmp	r2, r3
 80038f4:	d116      	bne.n	8003924 <I2C_WaitOnFlagUntilTimeout+0xa4>
 80038f6:	68fb      	ldr	r3, [r7, #12]
 80038f8:	2200      	movs	r2, #0
 80038fa:	631a      	str	r2, [r3, #48]	; 0x30
 80038fc:	68fb      	ldr	r3, [r7, #12]
 80038fe:	2220      	movs	r2, #32
 8003900:	f883 203d 	strb.w	r2, [r3, #61]	; 0x3d
 8003904:	68fb      	ldr	r3, [r7, #12]
 8003906:	2200      	movs	r2, #0
 8003908:	f883 203e 	strb.w	r2, [r3, #62]	; 0x3e
 800390c:	68fb      	ldr	r3, [r7, #12]
 800390e:	6c1b      	ldr	r3, [r3, #64]	; 0x40
 8003910:	f043 0220 	orr.w	r2, r3, #32
 8003914:	68fb      	ldr	r3, [r7, #12]
 8003916:	641a      	str	r2, [r3, #64]	; 0x40
 8003918:	68fb      	ldr	r3, [r7, #12]
 800391a:	2200      	movs	r2, #0
 800391c:	f883 203c 	strb.w	r2, [r3, #60]	; 0x3c
 8003920:	2301      	movs	r3, #1
 8003922:	e023      	b.n	800396c <I2C_WaitOnFlagUntilTimeout+0xec>
 8003924:	68bb      	ldr	r3, [r7, #8]
 8003926:	0c1b      	lsrs	r3, r3, #16
 8003928:	b2db      	uxtb	r3, r3
 800392a:	2b01      	cmp	r3, #1
 800392c:	d10d      	bne.n	800394a <I2C_WaitOnFlagUntilTimeout+0xca>
 800392e:	68fb      	ldr	r3, [r7, #12]
 8003930:	681b      	ldr	r3, [r3, #0]
 8003932:	695b      	ldr	r3, [r3, #20]
 8003934:	43da      	mvns	r2, r3
 8003936:	68bb      	ldr	r3, [r7, #8]
 8003938:	4013      	ands	r3, r2
 800393a:	b29b      	uxth	r3, r3
 800393c:	2b00      	cmp	r3, #0
 800393e:	bf0c      	ite	eq
 8003940:	2301      	moveq	r3, #1
 8003942:	2300      	movne	r3, #0
 8003944:	b2db      	uxtb	r3, r3
 8003946:	461a      	mov	r2, r3
 8003948:	e00c      	b.n	8003964 <I2C_WaitOnFlagUntilTimeout+0xe4>
 800394a:	68fb      	ldr	r3, [r7, #12]
 800394c:	681b      	ldr	r3, [r3, #0]
 800394e:	699b      	ldr	r3, [r3, #24]
 8003950:	43da      	mvns	r2, r3
 8003952:	68bb      	ldr	r3, [r7, #8]
 8003954:	4013      	ands	r3, r2
 8003956:	b29b      	uxth	r3, r3
 8003958:	2b00      	cmp	r3, #0
 800395a:	bf0c      	ite	eq
 800395c:	2301      	moveq	r3, #1
 800395e:	2300      	movne	r3, #0
 8003960:	b2db      	uxtb	r3, r3
 8003962:	461a      	mov	r2, r3
 8003964:	79fb      	ldrb	r3, [r7, #7]
 8003966:	429a      	cmp	r2, r3
 8003968:	d093      	beq.n	8003892 <I2C_WaitOnFlagUntilTimeout+0x12>
 800396a:	2300      	movs	r3, #0
 800396c:	4618      	mov	r0, r3
 800396e:	3710      	adds	r7, #16
 8003970:	46bd      	mov	sp, r7
 8003972:	bd80      	pop	{r7, pc}

08003974 <I2C_WaitOnMasterAddressFlagUntilTimeout>:
 8003974:	b580      	push	{r7, lr}
 8003976:	b084      	sub	sp, #16
 8003978:	af00      	add	r7, sp, #0
 800397a:	60f8      	str	r0, [r7, #12]
 800397c:	60b9      	str	r1, [r7, #8]
 800397e:	607a      	str	r2, [r7, #4]
 8003980:	603b      	str	r3, [r7, #0]
 8003982:	e071      	b.n	8003a68 <I2C_WaitOnMasterAddressFlagUntilTimeout+0xf4>
 8003984:	68fb      	ldr	r3, [r7, #12]
 8003986:	681b      	ldr	r3, [r3, #0]
 8003988:	695b      	ldr	r3, [r3, #20]
 800398a:	f403 6380 	and.w	r3, r3, #1024	; 0x400
 800398e:	f5b3 6f80 	cmp.w	r3, #1024	; 0x400
 8003992:	d123      	bne.n	80039dc <I2C_WaitOnMasterAddressFlagUntilTimeout+0x68>
 8003994:	68fb      	ldr	r3, [r7, #12]
 8003996:	681b      	ldr	r3, [r3, #0]
 8003998:	681a      	ldr	r2, [r3, #0]
 800399a:	68fb      	ldr	r3, [r7, #12]
 800399c:	681b      	ldr	r3, [r3, #0]
 800399e:	f442 7200 	orr.w	r2, r2, #512	; 0x200
 80039a2:	601a      	str	r2, [r3, #0]
 80039a4:	68fb      	ldr	r3, [r7, #12]
 80039a6:	681b      	ldr	r3, [r3, #0]
 80039a8:	f46f 6280 	mvn.w	r2, #1024	; 0x400
 80039ac:	615a      	str	r2, [r3, #20]
 80039ae:	68fb      	ldr	r3, [r7, #12]
 80039b0:	2200      	movs	r2, #0
 80039b2:	631a      	str	r2, [r3, #48]	; 0x30
 80039b4:	68fb      	ldr	r3, [r7, #12]
 80039b6:	2220      	movs	r2, #32
 80039b8:	f883 203d 	strb.w	r2, [r3, #61]	; 0x3d
 80039bc:	68fb      	ldr	r3, [r7, #12]
 80039be:	2200      	movs	r2, #0
 80039c0:	f883 203e 	strb.w	r2, [r3, #62]	; 0x3e
 80039c4:	68fb      	ldr	r3, [r7, #12]
 80039c6:	6c1b      	ldr	r3, [r3, #64]	; 0x40
 80039c8:	f043 0204 	orr.w	r2, r3, #4
 80039cc:	68fb      	ldr	r3, [r7, #12]
 80039ce:	641a      	str	r2, [r3, #64]	; 0x40
 80039d0:	68fb      	ldr	r3, [r7, #12]
 80039d2:	2200      	movs	r2, #0
 80039d4:	f883 203c 	strb.w	r2, [r3, #60]	; 0x3c
 80039d8:	2301      	movs	r3, #1
 80039da:	e067      	b.n	8003aac <I2C_WaitOnMasterAddressFlagUntilTimeout+0x138>
 80039dc:	687b      	ldr	r3, [r7, #4]
 80039de:	f1b3 3fff 	cmp.w	r3, #4294967295
 80039e2:	d041      	beq.n	8003a68 <I2C_WaitOnMasterAddressFlagUntilTimeout+0xf4>
 80039e4:	f7fe fd2e 	bl	8002444 <HAL_GetTick>
 80039e8:	4602      	mov	r2, r0
 80039ea:	683b      	ldr	r3, [r7, #0]
 80039ec:	1ad3      	subs	r3, r2, r3
 80039ee:	687a      	ldr	r2, [r7, #4]
 80039f0:	429a      	cmp	r2, r3
 80039f2:	d302      	bcc.n	80039fa <I2C_WaitOnMasterAddressFlagUntilTimeout+0x86>
 80039f4:	687b      	ldr	r3, [r7, #4]
 80039f6:	2b00      	cmp	r3, #0
 80039f8:	d136      	bne.n	8003a68 <I2C_WaitOnMasterAddressFlagUntilTimeout+0xf4>
 80039fa:	68bb      	ldr	r3, [r7, #8]
 80039fc:	0c1b      	lsrs	r3, r3, #16
 80039fe:	b2db      	uxtb	r3, r3
 8003a00:	2b01      	cmp	r3, #1
 8003a02:	d10c      	bne.n	8003a1e <I2C_WaitOnMasterAddressFlagUntilTimeout+0xaa>
 8003a04:	68fb      	ldr	r3, [r7, #12]
 8003a06:	681b      	ldr	r3, [r3, #0]
 8003a08:	695b      	ldr	r3, [r3, #20]
 8003a0a:	43da      	mvns	r2, r3
 8003a0c:	68bb      	ldr	r3, [r7, #8]
 8003a0e:	4013      	ands	r3, r2
 8003a10:	b29b      	uxth	r3, r3
 8003a12:	2b00      	cmp	r3, #0
 8003a14:	bf14      	ite	ne
 8003a16:	2301      	movne	r3, #1
 8003a18:	2300      	moveq	r3, #0
 8003a1a:	b2db      	uxtb	r3, r3
 8003a1c:	e00b      	b.n	8003a36 <I2C_WaitOnMasterAddressFlagUntilTimeout+0xc2>
 8003a1e:	68fb      	ldr	r3, [r7, #12]
 8003a20:	681b      	ldr	r3, [r3, #0]
 8003a22:	699b      	ldr	r3, [r3, #24]
 8003a24:	43da      	mvns	r2, r3
 8003a26:	68bb      	ldr	r3, [r7, #8]
 8003a28:	4013      	ands	r3, r2
 8003a2a:	b29b      	uxth	r3, r3
 8003a2c:	2b00      	cmp	r3, #0
 8003a2e:	bf14      	ite	ne
 8003a30:	2301      	movne	r3, #1
 8003a32:	2300      	moveq	r3, #0
 8003a34:	b2db      	uxtb	r3, r3
 8003a36:	2b00      	cmp	r3, #0
 8003a38:	d016      	beq.n	8003a68 <I2C_WaitOnMasterAddressFlagUntilTimeout+0xf4>
 8003a3a:	68fb      	ldr	r3, [r7, #12]
 8003a3c:	2200      	movs	r2, #0
 8003a3e:	631a      	str	r2, [r3, #48]	; 0x30
 8003a40:	68fb      	ldr	r3, [r7, #12]
 8003a42:	2220      	movs	r2, #32
 8003a44:	f883 203d 	strb.w	r2, [r3, #61]	; 0x3d
 8003a48:	68fb      	ldr	r3, [r7, #12]
 8003a4a:	2200      	movs	r2, #0
 8003a4c:	f883 203e 	strb.w	r2, [r3, #62]	; 0x3e
 8003a50:	68fb      	ldr	r3, [r7, #12]
 8003a52:	6c1b      	ldr	r3, [r3, #64]	; 0x40
 8003a54:	f043 0220 	orr.w	r2, r3, #32
 8003a58:	68fb      	ldr	r3, [r7, #12]
 8003a5a:	641a      	str	r2, [r3, #64]	; 0x40
 8003a5c:	68fb      	ldr	r3, [r7, #12]
 8003a5e:	2200      	movs	r2, #0
 8003a60:	f883 203c 	strb.w	r2, [r3, #60]	; 0x3c
 8003a64:	2301      	movs	r3, #1
 8003a66:	e021      	b.n	8003aac <I2C_WaitOnMasterAddressFlagUntilTimeout+0x138>
 8003a68:	68bb      	ldr	r3, [r7, #8]
 8003a6a:	0c1b      	lsrs	r3, r3, #16
 8003a6c:	b2db      	uxtb	r3, r3
 8003a6e:	2b01      	cmp	r3, #1
 8003a70:	d10c      	bne.n	8003a8c <I2C_WaitOnMasterAddressFlagUntilTimeout+0x118>
 8003a72:	68fb      	ldr	r3, [r7, #12]
 8003a74:	681b      	ldr	r3, [r3, #0]
 8003a76:	695b      	ldr	r3, [r3, #20]
 8003a78:	43da      	mvns	r2, r3
 8003a7a:	68bb      	ldr	r3, [r7, #8]
 8003a7c:	4013      	ands	r3, r2
 8003a7e:	b29b      	uxth	r3, r3
 8003a80:	2b00      	cmp	r3, #0
 8003a82:	bf14      	ite	ne
 8003a84:	2301      	movne	r3, #1
 8003a86:	2300      	moveq	r3, #0
 8003a88:	b2db      	uxtb	r3, r3
 8003a8a:	e00b      	b.n	8003aa4 <I2C_WaitOnMasterAddressFlagUntilTimeout+0x130>
 8003a8c:	68fb      	ldr	r3, [r7, #12]
 8003a8e:	681b      	ldr	r3, [r3, #0]
 8003a90:	699b      	ldr	r3, [r3, #24]
 8003a92:	43da      	mvns	r2, r3
 8003a94:	68bb      	ldr	r3, [r7, #8]
 8003a96:	4013      	ands	r3, r2
 8003a98:	b29b      	uxth	r3, r3
 8003a9a:	2b00      	cmp	r3, #0
 8003a9c:	bf14      	ite	ne
 8003a9e:	2301      	movne	r3, #1
 8003aa0:	2300      	moveq	r3, #0
 8003aa2:	b2db      	uxtb	r3, r3
 8003aa4:	2b00      	cmp	r3, #0
 8003aa6:	f47f af6d 	bne.w	8003984 <I2C_WaitOnMasterAddressFlagUntilTimeout+0x10>
 8003aaa:	2300      	movs	r3, #0
 8003aac:	4618      	mov	r0, r3
 8003aae:	3710      	adds	r7, #16
 8003ab0:	46bd      	mov	sp, r7
 8003ab2:	bd80      	pop	{r7, pc}

08003ab4 <I2C_WaitOnTXEFlagUntilTimeout>:
 8003ab4:	b580      	push	{r7, lr}
 8003ab6:	b084      	sub	sp, #16
 8003ab8:	af00      	add	r7, sp, #0
 8003aba:	60f8      	str	r0, [r7, #12]
 8003abc:	60b9      	str	r1, [r7, #8]
 8003abe:	607a      	str	r2, [r7, #4]
 8003ac0:	e034      	b.n	8003b2c <I2C_WaitOnTXEFlagUntilTimeout+0x78>
 8003ac2:	68f8      	ldr	r0, [r7, #12]
 8003ac4:	f000 f8e3 	bl	8003c8e <I2C_IsAcknowledgeFailed>
 8003ac8:	4603      	mov	r3, r0
 8003aca:	2b00      	cmp	r3, #0
 8003acc:	d001      	beq.n	8003ad2 <I2C_WaitOnTXEFlagUntilTimeout+0x1e>
 8003ace:	2301      	movs	r3, #1
 8003ad0:	e034      	b.n	8003b3c <I2C_WaitOnTXEFlagUntilTimeout+0x88>
 8003ad2:	68bb      	ldr	r3, [r7, #8]
 8003ad4:	f1b3 3fff 	cmp.w	r3, #4294967295
 8003ad8:	d028      	beq.n	8003b2c <I2C_WaitOnTXEFlagUntilTimeout+0x78>
 8003ada:	f7fe fcb3 	bl	8002444 <HAL_GetTick>
 8003ade:	4602      	mov	r2, r0
 8003ae0:	687b      	ldr	r3, [r7, #4]
 8003ae2:	1ad3      	subs	r3, r2, r3
 8003ae4:	68ba      	ldr	r2, [r7, #8]
 8003ae6:	429a      	cmp	r2, r3
 8003ae8:	d302      	bcc.n	8003af0 <I2C_WaitOnTXEFlagUntilTimeout+0x3c>
 8003aea:	68bb      	ldr	r3, [r7, #8]
 8003aec:	2b00      	cmp	r3, #0
 8003aee:	d11d      	bne.n	8003b2c <I2C_WaitOnTXEFlagUntilTimeout+0x78>
 8003af0:	68fb      	ldr	r3, [r7, #12]
 8003af2:	681b      	ldr	r3, [r3, #0]
 8003af4:	695b      	ldr	r3, [r3, #20]
 8003af6:	f003 0380 	and.w	r3, r3, #128	; 0x80
 8003afa:	2b80      	cmp	r3, #128	; 0x80
 8003afc:	d016      	beq.n	8003b2c <I2C_WaitOnTXEFlagUntilTimeout+0x78>
 8003afe:	68fb      	ldr	r3, [r7, #12]
 8003b00:	2200      	movs	r2, #0
 8003b02:	631a      	str	r2, [r3, #48]	; 0x30
 8003b04:	68fb      	ldr	r3, [r7, #12]
 8003b06:	2220      	movs	r2, #32
 8003b08:	f883 203d 	strb.w	r2, [r3, #61]	; 0x3d
 8003b0c:	68fb      	ldr	r3, [r7, #12]
 8003b0e:	2200      	movs	r2, #0
 8003b10:	f883 203e 	strb.w	r2, [r3, #62]	; 0x3e
 8003b14:	68fb      	ldr	r3, [r7, #12]
 8003b16:	6c1b      	ldr	r3, [r3, #64]	; 0x40
 8003b18:	f043 0220 	orr.w	r2, r3, #32
 8003b1c:	68fb      	ldr	r3, [r7, #12]
 8003b1e:	641a      	str	r2, [r3, #64]	; 0x40
 8003b20:	68fb      	ldr	r3, [r7, #12]
 8003b22:	2200      	movs	r2, #0
 8003b24:	f883 203c 	strb.w	r2, [r3, #60]	; 0x3c
 8003b28:	2301      	movs	r3, #1
 8003b2a:	e007      	b.n	8003b3c <I2C_WaitOnTXEFlagUntilTimeout+0x88>
 8003b2c:	68fb      	ldr	r3, [r7, #12]
 8003b2e:	681b      	ldr	r3, [r3, #0]
 8003b30:	695b      	ldr	r3, [r3, #20]
 8003b32:	f003 0380 	and.w	r3, r3, #128	; 0x80
 8003b36:	2b80      	cmp	r3, #128	; 0x80
 8003b38:	d1c3      	bne.n	8003ac2 <I2C_WaitOnTXEFlagUntilTimeout+0xe>
 8003b3a:	2300      	movs	r3, #0
 8003b3c:	4618      	mov	r0, r3
 8003b3e:	3710      	adds	r7, #16
 8003b40:	46bd      	mov	sp, r7
 8003b42:	bd80      	pop	{r7, pc}

08003b44 <I2C_WaitOnBTFFlagUntilTimeout>:
 8003b44:	b580      	push	{r7, lr}
 8003b46:	b084      	sub	sp, #16
 8003b48:	af00      	add	r7, sp, #0
 8003b4a:	60f8      	str	r0, [r7, #12]
 8003b4c:	60b9      	str	r1, [r7, #8]
 8003b4e:	607a      	str	r2, [r7, #4]
 8003b50:	e034      	b.n	8003bbc <I2C_WaitOnBTFFlagUntilTimeout+0x78>
 8003b52:	68f8      	ldr	r0, [r7, #12]
 8003b54:	f000 f89b 	bl	8003c8e <I2C_IsAcknowledgeFailed>
 8003b58:	4603      	mov	r3, r0
 8003b5a:	2b00      	cmp	r3, #0
 8003b5c:	d001      	beq.n	8003b62 <I2C_WaitOnBTFFlagUntilTimeout+0x1e>
 8003b5e:	2301      	movs	r3, #1
 8003b60:	e034      	b.n	8003bcc <I2C_WaitOnBTFFlagUntilTimeout+0x88>
 8003b62:	68bb      	ldr	r3, [r7, #8]
 8003b64:	f1b3 3fff 	cmp.w	r3, #4294967295
 8003b68:	d028      	beq.n	8003bbc <I2C_WaitOnBTFFlagUntilTimeout+0x78>
 8003b6a:	f7fe fc6b 	bl	8002444 <HAL_GetTick>
 8003b6e:	4602      	mov	r2, r0
 8003b70:	687b      	ldr	r3, [r7, #4]
 8003b72:	1ad3      	subs	r3, r2, r3
 8003b74:	68ba      	ldr	r2, [r7, #8]
 8003b76:	429a      	cmp	r2, r3
 8003b78:	d302      	bcc.n	8003b80 <I2C_WaitOnBTFFlagUntilTimeout+0x3c>
 8003b7a:	68bb      	ldr	r3, [r7, #8]
 8003b7c:	2b00      	cmp	r3, #0
 8003b7e:	d11d      	bne.n	8003bbc <I2C_WaitOnBTFFlagUntilTimeout+0x78>
 8003b80:	68fb      	ldr	r3, [r7, #12]
 8003b82:	681b      	ldr	r3, [r3, #0]
 8003b84:	695b      	ldr	r3, [r3, #20]
 8003b86:	f003 0304 	and.w	r3, r3, #4
 8003b8a:	2b04      	cmp	r3, #4
 8003b8c:	d016      	beq.n	8003bbc <I2C_WaitOnBTFFlagUntilTimeout+0x78>
 8003b8e:	68fb      	ldr	r3, [r7, #12]
 8003b90:	2200      	movs	r2, #0
 8003b92:	631a      	str	r2, [r3, #48]	; 0x30
 8003b94:	68fb      	ldr	r3, [r7, #12]
 8003b96:	2220      	movs	r2, #32
 8003b98:	f883 203d 	strb.w	r2, [r3, #61]	; 0x3d
 8003b9c:	68fb      	ldr	r3, [r7, #12]
 8003b9e:	2200      	movs	r2, #0
 8003ba0:	f883 203e 	strb.w	r2, [r3, #62]	; 0x3e
 8003ba4:	68fb      	ldr	r3, [r7, #12]
 8003ba6:	6c1b      	ldr	r3, [r3, #64]	; 0x40
 8003ba8:	f043 0220 	orr.w	r2, r3, #32
 8003bac:	68fb      	ldr	r3, [r7, #12]
 8003bae:	641a      	str	r2, [r3, #64]	; 0x40
 8003bb0:	68fb      	ldr	r3, [r7, #12]
 8003bb2:	2200      	movs	r2, #0
 8003bb4:	f883 203c 	strb.w	r2, [r3, #60]	; 0x3c
 8003bb8:	2301      	movs	r3, #1
 8003bba:	e007      	b.n	8003bcc <I2C_WaitOnBTFFlagUntilTimeout+0x88>
 8003bbc:	68fb      	ldr	r3, [r7, #12]
 8003bbe:	681b      	ldr	r3, [r3, #0]
 8003bc0:	695b      	ldr	r3, [r3, #20]
 8003bc2:	f003 0304 	and.w	r3, r3, #4
 8003bc6:	2b04      	cmp	r3, #4
 8003bc8:	d1c3      	bne.n	8003b52 <I2C_WaitOnBTFFlagUntilTimeout+0xe>
 8003bca:	2300      	movs	r3, #0
 8003bcc:	4618      	mov	r0, r3
 8003bce:	3710      	adds	r7, #16
 8003bd0:	46bd      	mov	sp, r7
 8003bd2:	bd80      	pop	{r7, pc}

08003bd4 <I2C_WaitOnRXNEFlagUntilTimeout>:
 8003bd4:	b580      	push	{r7, lr}
 8003bd6:	b084      	sub	sp, #16
 8003bd8:	af00      	add	r7, sp, #0
 8003bda:	60f8      	str	r0, [r7, #12]
 8003bdc:	60b9      	str	r1, [r7, #8]
 8003bde:	607a      	str	r2, [r7, #4]
 8003be0:	e049      	b.n	8003c76 <I2C_WaitOnRXNEFlagUntilTimeout+0xa2>
 8003be2:	68fb      	ldr	r3, [r7, #12]
 8003be4:	681b      	ldr	r3, [r3, #0]
 8003be6:	695b      	ldr	r3, [r3, #20]
 8003be8:	f003 0310 	and.w	r3, r3, #16
 8003bec:	2b10      	cmp	r3, #16
 8003bee:	d119      	bne.n	8003c24 <I2C_WaitOnRXNEFlagUntilTimeout+0x50>
 8003bf0:	68fb      	ldr	r3, [r7, #12]
 8003bf2:	681b      	ldr	r3, [r3, #0]
 8003bf4:	f06f 0210 	mvn.w	r2, #16
 8003bf8:	615a      	str	r2, [r3, #20]
 8003bfa:	68fb      	ldr	r3, [r7, #12]
 8003bfc:	2200      	movs	r2, #0
 8003bfe:	631a      	str	r2, [r3, #48]	; 0x30
 8003c00:	68fb      	ldr	r3, [r7, #12]
 8003c02:	2220      	movs	r2, #32
 8003c04:	f883 203d 	strb.w	r2, [r3, #61]	; 0x3d
 8003c08:	68fb      	ldr	r3, [r7, #12]
 8003c0a:	2200      	movs	r2, #0
 8003c0c:	f883 203e 	strb.w	r2, [r3, #62]	; 0x3e
 8003c10:	68fb      	ldr	r3, [r7, #12]
 8003c12:	6c1a      	ldr	r2, [r3, #64]	; 0x40
 8003c14:	68fb      	ldr	r3, [r7, #12]
 8003c16:	641a      	str	r2, [r3, #64]	; 0x40
 8003c18:	68fb      	ldr	r3, [r7, #12]
 8003c1a:	2200      	movs	r2, #0
 8003c1c:	f883 203c 	strb.w	r2, [r3, #60]	; 0x3c
 8003c20:	2301      	movs	r3, #1
 8003c22:	e030      	b.n	8003c86 <I2C_WaitOnRXNEFlagUntilTimeout+0xb2>
 8003c24:	f7fe fc0e 	bl	8002444 <HAL_GetTick>
 8003c28:	4602      	mov	r2, r0
 8003c2a:	687b      	ldr	r3, [r7, #4]
 8003c2c:	1ad3      	subs	r3, r2, r3
 8003c2e:	68ba      	ldr	r2, [r7, #8]
 8003c30:	429a      	cmp	r2, r3
 8003c32:	d302      	bcc.n	8003c3a <I2C_WaitOnRXNEFlagUntilTimeout+0x66>
 8003c34:	68bb      	ldr	r3, [r7, #8]
 8003c36:	2b00      	cmp	r3, #0
 8003c38:	d11d      	bne.n	8003c76 <I2C_WaitOnRXNEFlagUntilTimeout+0xa2>
 8003c3a:	68fb      	ldr	r3, [r7, #12]
 8003c3c:	681b      	ldr	r3, [r3, #0]
 8003c3e:	695b      	ldr	r3, [r3, #20]
 8003c40:	f003 0340 	and.w	r3, r3, #64	; 0x40
 8003c44:	2b40      	cmp	r3, #64	; 0x40
 8003c46:	d016      	beq.n	8003c76 <I2C_WaitOnRXNEFlagUntilTimeout+0xa2>
 8003c48:	68fb      	ldr	r3, [r7, #12]
 8003c4a:	2200      	movs	r2, #0
 8003c4c:	631a      	str	r2, [r3, #48]	; 0x30
 8003c4e:	68fb      	ldr	r3, [r7, #12]
 8003c50:	2220      	movs	r2, #32
 8003c52:	f883 203d 	strb.w	r2, [r3, #61]	; 0x3d
 8003c56:	68fb      	ldr	r3, [r7, #12]
 8003c58:	2200      	movs	r2, #0
 8003c5a:	f883 203e 	strb.w	r2, [r3, #62]	; 0x3e
 8003c5e:	68fb      	ldr	r3, [r7, #12]
 8003c60:	6c1b      	ldr	r3, [r3, #64]	; 0x40
 8003c62:	f043 0220 	orr.w	r2, r3, #32
 8003c66:	68fb      	ldr	r3, [r7, #12]
 8003c68:	641a      	str	r2, [r3, #64]	; 0x40
 8003c6a:	68fb      	ldr	r3, [r7, #12]
 8003c6c:	2200      	movs	r2, #0
 8003c6e:	f883 203c 	strb.w	r2, [r3, #60]	; 0x3c
 8003c72:	2301      	movs	r3, #1
 8003c74:	e007      	b.n	8003c86 <I2C_WaitOnRXNEFlagUntilTimeout+0xb2>
 8003c76:	68fb      	ldr	r3, [r7, #12]
 8003c78:	681b      	ldr	r3, [r3, #0]
 8003c7a:	695b      	ldr	r3, [r3, #20]
 8003c7c:	f003 0340 	and.w	r3, r3, #64	; 0x40
 8003c80:	2b40      	cmp	r3, #64	; 0x40
 8003c82:	d1ae      	bne.n	8003be2 <I2C_WaitOnRXNEFlagUntilTimeout+0xe>
 8003c84:	2300      	movs	r3, #0
 8003c86:	4618      	mov	r0, r3
 8003c88:	3710      	adds	r7, #16
 8003c8a:	46bd      	mov	sp, r7
 8003c8c:	bd80      	pop	{r7, pc}

08003c8e <I2C_IsAcknowledgeFailed>:
 8003c8e:	b480      	push	{r7}
 8003c90:	b083      	sub	sp, #12
 8003c92:	af00      	add	r7, sp, #0
 8003c94:	6078      	str	r0, [r7, #4]
 8003c96:	687b      	ldr	r3, [r7, #4]
 8003c98:	681b      	ldr	r3, [r3, #0]
 8003c9a:	695b      	ldr	r3, [r3, #20]
 8003c9c:	f403 6380 	and.w	r3, r3, #1024	; 0x400
 8003ca0:	f5b3 6f80 	cmp.w	r3, #1024	; 0x400
 8003ca4:	d11b      	bne.n	8003cde <I2C_IsAcknowledgeFailed+0x50>
 8003ca6:	687b      	ldr	r3, [r7, #4]
 8003ca8:	681b      	ldr	r3, [r3, #0]
 8003caa:	f46f 6280 	mvn.w	r2, #1024	; 0x400
 8003cae:	615a      	str	r2, [r3, #20]
 8003cb0:	687b      	ldr	r3, [r7, #4]
 8003cb2:	2200      	movs	r2, #0
 8003cb4:	631a      	str	r2, [r3, #48]	; 0x30
 8003cb6:	687b      	ldr	r3, [r7, #4]
 8003cb8:	2220      	movs	r2, #32
 8003cba:	f883 203d 	strb.w	r2, [r3, #61]	; 0x3d
 8003cbe:	687b      	ldr	r3, [r7, #4]
 8003cc0:	2200      	movs	r2, #0
 8003cc2:	f883 203e 	strb.w	r2, [r3, #62]	; 0x3e
 8003cc6:	687b      	ldr	r3, [r7, #4]
 8003cc8:	6c1b      	ldr	r3, [r3, #64]	; 0x40
 8003cca:	f043 0204 	orr.w	r2, r3, #4
 8003cce:	687b      	ldr	r3, [r7, #4]
 8003cd0:	641a      	str	r2, [r3, #64]	; 0x40
 8003cd2:	687b      	ldr	r3, [r7, #4]
 8003cd4:	2200      	movs	r2, #0
 8003cd6:	f883 203c 	strb.w	r2, [r3, #60]	; 0x3c
 8003cda:	2301      	movs	r3, #1
 8003cdc:	e000      	b.n	8003ce0 <I2C_IsAcknowledgeFailed+0x52>
 8003cde:	2300      	movs	r3, #0
 8003ce0:	4618      	mov	r0, r3
 8003ce2:	370c      	adds	r7, #12
 8003ce4:	46bd      	mov	sp, r7
 8003ce6:	bc80      	pop	{r7}
 8003ce8:	4770      	bx	lr
	...

08003cec <HAL_RCC_OscConfig>:
 8003cec:	b580      	push	{r7, lr}
 8003cee:	b086      	sub	sp, #24
 8003cf0:	af00      	add	r7, sp, #0
 8003cf2:	6078      	str	r0, [r7, #4]
 8003cf4:	687b      	ldr	r3, [r7, #4]
 8003cf6:	2b00      	cmp	r3, #0
 8003cf8:	d101      	bne.n	8003cfe <HAL_RCC_OscConfig+0x12>
 8003cfa:	2301      	movs	r3, #1
 8003cfc:	e272      	b.n	80041e4 <HAL_RCC_OscConfig+0x4f8>
 8003cfe:	687b      	ldr	r3, [r7, #4]
 8003d00:	681b      	ldr	r3, [r3, #0]
 8003d02:	f003 0301 	and.w	r3, r3, #1
 8003d06:	2b00      	cmp	r3, #0
 8003d08:	f000 8087 	beq.w	8003e1a <HAL_RCC_OscConfig+0x12e>
 8003d0c:	4b92      	ldr	r3, [pc, #584]	; (8003f58 <HAL_RCC_OscConfig+0x26c>)
 8003d0e:	685b      	ldr	r3, [r3, #4]
 8003d10:	f003 030c 	and.w	r3, r3, #12
 8003d14:	2b04      	cmp	r3, #4
 8003d16:	d00c      	beq.n	8003d32 <HAL_RCC_OscConfig+0x46>
 8003d18:	4b8f      	ldr	r3, [pc, #572]	; (8003f58 <HAL_RCC_OscConfig+0x26c>)
 8003d1a:	685b      	ldr	r3, [r3, #4]
 8003d1c:	f003 030c 	and.w	r3, r3, #12
 8003d20:	2b08      	cmp	r3, #8
 8003d22:	d112      	bne.n	8003d4a <HAL_RCC_OscConfig+0x5e>
 8003d24:	4b8c      	ldr	r3, [pc, #560]	; (8003f58 <HAL_RCC_OscConfig+0x26c>)
 8003d26:	685b      	ldr	r3, [r3, #4]
 8003d28:	f403 3380 	and.w	r3, r3, #65536	; 0x10000
 8003d2c:	f5b3 3f80 	cmp.w	r3, #65536	; 0x10000
 8003d30:	d10b      	bne.n	8003d4a <HAL_RCC_OscConfig+0x5e>
 8003d32:	4b89      	ldr	r3, [pc, #548]	; (8003f58 <HAL_RCC_OscConfig+0x26c>)
 8003d34:	681b      	ldr	r3, [r3, #0]
 8003d36:	f403 3300 	and.w	r3, r3, #131072	; 0x20000
 8003d3a:	2b00      	cmp	r3, #0
 8003d3c:	d06c      	beq.n	8003e18 <HAL_RCC_OscConfig+0x12c>
 8003d3e:	687b      	ldr	r3, [r7, #4]
 8003d40:	685b      	ldr	r3, [r3, #4]
 8003d42:	2b00      	cmp	r3, #0
 8003d44:	d168      	bne.n	8003e18 <HAL_RCC_OscConfig+0x12c>
 8003d46:	2301      	movs	r3, #1
 8003d48:	e24c      	b.n	80041e4 <HAL_RCC_OscConfig+0x4f8>
 8003d4a:	687b      	ldr	r3, [r7, #4]
 8003d4c:	685b      	ldr	r3, [r3, #4]
 8003d4e:	f5b3 3f80 	cmp.w	r3, #65536	; 0x10000
 8003d52:	d106      	bne.n	8003d62 <HAL_RCC_OscConfig+0x76>
 8003d54:	4b80      	ldr	r3, [pc, #512]	; (8003f58 <HAL_RCC_OscConfig+0x26c>)
 8003d56:	681b      	ldr	r3, [r3, #0]
 8003d58:	4a7f      	ldr	r2, [pc, #508]	; (8003f58 <HAL_RCC_OscConfig+0x26c>)
 8003d5a:	f443 3380 	orr.w	r3, r3, #65536	; 0x10000
 8003d5e:	6013      	str	r3, [r2, #0]
 8003d60:	e02e      	b.n	8003dc0 <HAL_RCC_OscConfig+0xd4>
 8003d62:	687b      	ldr	r3, [r7, #4]
 8003d64:	685b      	ldr	r3, [r3, #4]
 8003d66:	2b00      	cmp	r3, #0
 8003d68:	d10c      	bne.n	8003d84 <HAL_RCC_OscConfig+0x98>
 8003d6a:	4b7b      	ldr	r3, [pc, #492]	; (8003f58 <HAL_RCC_OscConfig+0x26c>)
 8003d6c:	681b      	ldr	r3, [r3, #0]
 8003d6e:	4a7a      	ldr	r2, [pc, #488]	; (8003f58 <HAL_RCC_OscConfig+0x26c>)
 8003d70:	f423 3380 	bic.w	r3, r3, #65536	; 0x10000
 8003d74:	6013      	str	r3, [r2, #0]
 8003d76:	4b78      	ldr	r3, [pc, #480]	; (8003f58 <HAL_RCC_OscConfig+0x26c>)
 8003d78:	681b      	ldr	r3, [r3, #0]
 8003d7a:	4a77      	ldr	r2, [pc, #476]	; (8003f58 <HAL_RCC_OscConfig+0x26c>)
 8003d7c:	f423 2380 	bic.w	r3, r3, #262144	; 0x40000
 8003d80:	6013      	str	r3, [r2, #0]
 8003d82:	e01d      	b.n	8003dc0 <HAL_RCC_OscConfig+0xd4>
 8003d84:	687b      	ldr	r3, [r7, #4]
 8003d86:	685b      	ldr	r3, [r3, #4]
 8003d88:	f5b3 2fa0 	cmp.w	r3, #327680	; 0x50000
 8003d8c:	d10c      	bne.n	8003da8 <HAL_RCC_OscConfig+0xbc>
 8003d8e:	4b72      	ldr	r3, [pc, #456]	; (8003f58 <HAL_RCC_OscConfig+0x26c>)
 8003d90:	681b      	ldr	r3, [r3, #0]
 8003d92:	4a71      	ldr	r2, [pc, #452]	; (8003f58 <HAL_RCC_OscConfig+0x26c>)
 8003d94:	f443 2380 	orr.w	r3, r3, #262144	; 0x40000
 8003d98:	6013      	str	r3, [r2, #0]
 8003d9a:	4b6f      	ldr	r3, [pc, #444]	; (8003f58 <HAL_RCC_OscConfig+0x26c>)
 8003d9c:	681b      	ldr	r3, [r3, #0]
 8003d9e:	4a6e      	ldr	r2, [pc, #440]	; (8003f58 <HAL_RCC_OscConfig+0x26c>)
 8003da0:	f443 3380 	orr.w	r3, r3, #65536	; 0x10000
 8003da4:	6013      	str	r3, [r2, #0]
 8003da6:	e00b      	b.n	8003dc0 <HAL_RCC_OscConfig+0xd4>
 8003da8:	4b6b      	ldr	r3, [pc, #428]	; (8003f58 <HAL_RCC_OscConfig+0x26c>)
 8003daa:	681b      	ldr	r3, [r3, #0]
 8003dac:	4a6a      	ldr	r2, [pc, #424]	; (8003f58 <HAL_RCC_OscConfig+0x26c>)
 8003dae:	f423 3380 	bic.w	r3, r3, #65536	; 0x10000
 8003db2:	6013      	str	r3, [r2, #0]
 8003db4:	4b68      	ldr	r3, [pc, #416]	; (8003f58 <HAL_RCC_OscConfig+0x26c>)
 8003db6:	681b      	ldr	r3, [r3, #0]
 8003db8:	4a67      	ldr	r2, [pc, #412]	; (8003f58 <HAL_RCC_OscConfig+0x26c>)
 8003dba:	f423 2380 	bic.w	r3, r3, #262144	; 0x40000
 8003dbe:	6013      	str	r3, [r2, #0]
 8003dc0:	687b      	ldr	r3, [r7, #4]
 8003dc2:	685b      	ldr	r3, [r3, #4]
 8003dc4:	2b00      	cmp	r3, #0
 8003dc6:	d013      	beq.n	8003df0 <HAL_RCC_OscConfig+0x104>
 8003dc8:	f7fe fb3c 	bl	8002444 <HAL_GetTick>
 8003dcc:	6138      	str	r0, [r7, #16]
 8003dce:	e008      	b.n	8003de2 <HAL_RCC_OscConfig+0xf6>
 8003dd0:	f7fe fb38 	bl	8002444 <HAL_GetTick>
 8003dd4:	4602      	mov	r2, r0
 8003dd6:	693b      	ldr	r3, [r7, #16]
 8003dd8:	1ad3      	subs	r3, r2, r3
 8003dda:	2b64      	cmp	r3, #100	; 0x64
 8003ddc:	d901      	bls.n	8003de2 <HAL_RCC_OscConfig+0xf6>
 8003dde:	2303      	movs	r3, #3
 8003de0:	e200      	b.n	80041e4 <HAL_RCC_OscConfig+0x4f8>
 8003de2:	4b5d      	ldr	r3, [pc, #372]	; (8003f58 <HAL_RCC_OscConfig+0x26c>)
 8003de4:	681b      	ldr	r3, [r3, #0]
 8003de6:	f403 3300 	and.w	r3, r3, #131072	; 0x20000
 8003dea:	2b00      	cmp	r3, #0
 8003dec:	d0f0      	beq.n	8003dd0 <HAL_RCC_OscConfig+0xe4>
 8003dee:	e014      	b.n	8003e1a <HAL_RCC_OscConfig+0x12e>
 8003df0:	f7fe fb28 	bl	8002444 <HAL_GetTick>
 8003df4:	6138      	str	r0, [r7, #16]
 8003df6:	e008      	b.n	8003e0a <HAL_RCC_OscConfig+0x11e>
 8003df8:	f7fe fb24 	bl	8002444 <HAL_GetTick>
 8003dfc:	4602      	mov	r2, r0
 8003dfe:	693b      	ldr	r3, [r7, #16]
 8003e00:	1ad3      	subs	r3, r2, r3
 8003e02:	2b64      	cmp	r3, #100	; 0x64
 8003e04:	d901      	bls.n	8003e0a <HAL_RCC_OscConfig+0x11e>
 8003e06:	2303      	movs	r3, #3
 8003e08:	e1ec      	b.n	80041e4 <HAL_RCC_OscConfig+0x4f8>
 8003e0a:	4b53      	ldr	r3, [pc, #332]	; (8003f58 <HAL_RCC_OscConfig+0x26c>)
 8003e0c:	681b      	ldr	r3, [r3, #0]
 8003e0e:	f403 3300 	and.w	r3, r3, #131072	; 0x20000
 8003e12:	2b00      	cmp	r3, #0
 8003e14:	d1f0      	bne.n	8003df8 <HAL_RCC_OscConfig+0x10c>
 8003e16:	e000      	b.n	8003e1a <HAL_RCC_OscConfig+0x12e>
 8003e18:	bf00      	nop
 8003e1a:	687b      	ldr	r3, [r7, #4]
 8003e1c:	681b      	ldr	r3, [r3, #0]
 8003e1e:	f003 0302 	and.w	r3, r3, #2
 8003e22:	2b00      	cmp	r3, #0
 8003e24:	d063      	beq.n	8003eee <HAL_RCC_OscConfig+0x202>
 8003e26:	4b4c      	ldr	r3, [pc, #304]	; (8003f58 <HAL_RCC_OscConfig+0x26c>)
 8003e28:	685b      	ldr	r3, [r3, #4]
 8003e2a:	f003 030c 	and.w	r3, r3, #12
 8003e2e:	2b00      	cmp	r3, #0
 8003e30:	d00b      	beq.n	8003e4a <HAL_RCC_OscConfig+0x15e>
 8003e32:	4b49      	ldr	r3, [pc, #292]	; (8003f58 <HAL_RCC_OscConfig+0x26c>)
 8003e34:	685b      	ldr	r3, [r3, #4]
 8003e36:	f003 030c 	and.w	r3, r3, #12
 8003e3a:	2b08      	cmp	r3, #8
 8003e3c:	d11c      	bne.n	8003e78 <HAL_RCC_OscConfig+0x18c>
 8003e3e:	4b46      	ldr	r3, [pc, #280]	; (8003f58 <HAL_RCC_OscConfig+0x26c>)
 8003e40:	685b      	ldr	r3, [r3, #4]
 8003e42:	f403 3380 	and.w	r3, r3, #65536	; 0x10000
 8003e46:	2b00      	cmp	r3, #0
 8003e48:	d116      	bne.n	8003e78 <HAL_RCC_OscConfig+0x18c>
 8003e4a:	4b43      	ldr	r3, [pc, #268]	; (8003f58 <HAL_RCC_OscConfig+0x26c>)
 8003e4c:	681b      	ldr	r3, [r3, #0]
 8003e4e:	f003 0302 	and.w	r3, r3, #2
 8003e52:	2b00      	cmp	r3, #0
 8003e54:	d005      	beq.n	8003e62 <HAL_RCC_OscConfig+0x176>
 8003e56:	687b      	ldr	r3, [r7, #4]
 8003e58:	691b      	ldr	r3, [r3, #16]
 8003e5a:	2b01      	cmp	r3, #1
 8003e5c:	d001      	beq.n	8003e62 <HAL_RCC_OscConfig+0x176>
 8003e5e:	2301      	movs	r3, #1
 8003e60:	e1c0      	b.n	80041e4 <HAL_RCC_OscConfig+0x4f8>
 8003e62:	4b3d      	ldr	r3, [pc, #244]	; (8003f58 <HAL_RCC_OscConfig+0x26c>)
 8003e64:	681b      	ldr	r3, [r3, #0]
 8003e66:	f023 02f8 	bic.w	r2, r3, #248	; 0xf8
 8003e6a:	687b      	ldr	r3, [r7, #4]
 8003e6c:	695b      	ldr	r3, [r3, #20]
 8003e6e:	00db      	lsls	r3, r3, #3
 8003e70:	4939      	ldr	r1, [pc, #228]	; (8003f58 <HAL_RCC_OscConfig+0x26c>)
 8003e72:	4313      	orrs	r3, r2
 8003e74:	600b      	str	r3, [r1, #0]
 8003e76:	e03a      	b.n	8003eee <HAL_RCC_OscConfig+0x202>
 8003e78:	687b      	ldr	r3, [r7, #4]
 8003e7a:	691b      	ldr	r3, [r3, #16]
 8003e7c:	2b00      	cmp	r3, #0
 8003e7e:	d020      	beq.n	8003ec2 <HAL_RCC_OscConfig+0x1d6>
 8003e80:	4b36      	ldr	r3, [pc, #216]	; (8003f5c <HAL_RCC_OscConfig+0x270>)
 8003e82:	2201      	movs	r2, #1
 8003e84:	601a      	str	r2, [r3, #0]
 8003e86:	f7fe fadd 	bl	8002444 <HAL_GetTick>
 8003e8a:	6138      	str	r0, [r7, #16]
 8003e8c:	e008      	b.n	8003ea0 <HAL_RCC_OscConfig+0x1b4>
 8003e8e:	f7fe fad9 	bl	8002444 <HAL_GetTick>
 8003e92:	4602      	mov	r2, r0
 8003e94:	693b      	ldr	r3, [r7, #16]
 8003e96:	1ad3      	subs	r3, r2, r3
 8003e98:	2b02      	cmp	r3, #2
 8003e9a:	d901      	bls.n	8003ea0 <HAL_RCC_OscConfig+0x1b4>
 8003e9c:	2303      	movs	r3, #3
 8003e9e:	e1a1      	b.n	80041e4 <HAL_RCC_OscConfig+0x4f8>
 8003ea0:	4b2d      	ldr	r3, [pc, #180]	; (8003f58 <HAL_RCC_OscConfig+0x26c>)
 8003ea2:	681b      	ldr	r3, [r3, #0]
 8003ea4:	f003 0302 	and.w	r3, r3, #2
 8003ea8:	2b00      	cmp	r3, #0
 8003eaa:	d0f0      	beq.n	8003e8e <HAL_RCC_OscConfig+0x1a2>
 8003eac:	4b2a      	ldr	r3, [pc, #168]	; (8003f58 <HAL_RCC_OscConfig+0x26c>)
 8003eae:	681b      	ldr	r3, [r3, #0]
 8003eb0:	f023 02f8 	bic.w	r2, r3, #248	; 0xf8
 8003eb4:	687b      	ldr	r3, [r7, #4]
 8003eb6:	695b      	ldr	r3, [r3, #20]
 8003eb8:	00db      	lsls	r3, r3, #3
 8003eba:	4927      	ldr	r1, [pc, #156]	; (8003f58 <HAL_RCC_OscConfig+0x26c>)
 8003ebc:	4313      	orrs	r3, r2
 8003ebe:	600b      	str	r3, [r1, #0]
 8003ec0:	e015      	b.n	8003eee <HAL_RCC_OscConfig+0x202>
 8003ec2:	4b26      	ldr	r3, [pc, #152]	; (8003f5c <HAL_RCC_OscConfig+0x270>)
 8003ec4:	2200      	movs	r2, #0
 8003ec6:	601a      	str	r2, [r3, #0]
 8003ec8:	f7fe fabc 	bl	8002444 <HAL_GetTick>
 8003ecc:	6138      	str	r0, [r7, #16]
 8003ece:	e008      	b.n	8003ee2 <HAL_RCC_OscConfig+0x1f6>
 8003ed0:	f7fe fab8 	bl	8002444 <HAL_GetTick>
 8003ed4:	4602      	mov	r2, r0
 8003ed6:	693b      	ldr	r3, [r7, #16]
 8003ed8:	1ad3      	subs	r3, r2, r3
 8003eda:	2b02      	cmp	r3, #2
 8003edc:	d901      	bls.n	8003ee2 <HAL_RCC_OscConfig+0x1f6>
 8003ede:	2303      	movs	r3, #3
 8003ee0:	e180      	b.n	80041e4 <HAL_RCC_OscConfig+0x4f8>
 8003ee2:	4b1d      	ldr	r3, [pc, #116]	; (8003f58 <HAL_RCC_OscConfig+0x26c>)
 8003ee4:	681b      	ldr	r3, [r3, #0]
 8003ee6:	f003 0302 	and.w	r3, r3, #2
 8003eea:	2b00      	cmp	r3, #0
 8003eec:	d1f0      	bne.n	8003ed0 <HAL_RCC_OscConfig+0x1e4>
 8003eee:	687b      	ldr	r3, [r7, #4]
 8003ef0:	681b      	ldr	r3, [r3, #0]
 8003ef2:	f003 0308 	and.w	r3, r3, #8
 8003ef6:	2b00      	cmp	r3, #0
 8003ef8:	d03a      	beq.n	8003f70 <HAL_RCC_OscConfig+0x284>
 8003efa:	687b      	ldr	r3, [r7, #4]
 8003efc:	699b      	ldr	r3, [r3, #24]
 8003efe:	2b00      	cmp	r3, #0
 8003f00:	d019      	beq.n	8003f36 <HAL_RCC_OscConfig+0x24a>
 8003f02:	4b17      	ldr	r3, [pc, #92]	; (8003f60 <HAL_RCC_OscConfig+0x274>)
 8003f04:	2201      	movs	r2, #1
 8003f06:	601a      	str	r2, [r3, #0]
 8003f08:	f7fe fa9c 	bl	8002444 <HAL_GetTick>
 8003f0c:	6138      	str	r0, [r7, #16]
 8003f0e:	e008      	b.n	8003f22 <HAL_RCC_OscConfig+0x236>
 8003f10:	f7fe fa98 	bl	8002444 <HAL_GetTick>
 8003f14:	4602      	mov	r2, r0
 8003f16:	693b      	ldr	r3, [r7, #16]
 8003f18:	1ad3      	subs	r3, r2, r3
 8003f1a:	2b02      	cmp	r3, #2
 8003f1c:	d901      	bls.n	8003f22 <HAL_RCC_OscConfig+0x236>
 8003f1e:	2303      	movs	r3, #3
 8003f20:	e160      	b.n	80041e4 <HAL_RCC_OscConfig+0x4f8>
 8003f22:	4b0d      	ldr	r3, [pc, #52]	; (8003f58 <HAL_RCC_OscConfig+0x26c>)
 8003f24:	6a5b      	ldr	r3, [r3, #36]	; 0x24
 8003f26:	f003 0302 	and.w	r3, r3, #2
 8003f2a:	2b00      	cmp	r3, #0
 8003f2c:	d0f0      	beq.n	8003f10 <HAL_RCC_OscConfig+0x224>
 8003f2e:	2001      	movs	r0, #1
 8003f30:	f000 faba 	bl	80044a8 <RCC_Delay>
 8003f34:	e01c      	b.n	8003f70 <HAL_RCC_OscConfig+0x284>
 8003f36:	4b0a      	ldr	r3, [pc, #40]	; (8003f60 <HAL_RCC_OscConfig+0x274>)
 8003f38:	2200      	movs	r2, #0
 8003f3a:	601a      	str	r2, [r3, #0]
 8003f3c:	f7fe fa82 	bl	8002444 <HAL_GetTick>
 8003f40:	6138      	str	r0, [r7, #16]
 8003f42:	e00f      	b.n	8003f64 <HAL_RCC_OscConfig+0x278>
 8003f44:	f7fe fa7e 	bl	8002444 <HAL_GetTick>
 8003f48:	4602      	mov	r2, r0
 8003f4a:	693b      	ldr	r3, [r7, #16]
 8003f4c:	1ad3      	subs	r3, r2, r3
 8003f4e:	2b02      	cmp	r3, #2
 8003f50:	d908      	bls.n	8003f64 <HAL_RCC_OscConfig+0x278>
 8003f52:	2303      	movs	r3, #3
 8003f54:	e146      	b.n	80041e4 <HAL_RCC_OscConfig+0x4f8>
 8003f56:	bf00      	nop
 8003f58:	40021000 	.word	0x40021000
 8003f5c:	42420000 	.word	0x42420000
 8003f60:	42420480 	.word	0x42420480
 8003f64:	4b92      	ldr	r3, [pc, #584]	; (80041b0 <HAL_RCC_OscConfig+0x4c4>)
 8003f66:	6a5b      	ldr	r3, [r3, #36]	; 0x24
 8003f68:	f003 0302 	and.w	r3, r3, #2
 8003f6c:	2b00      	cmp	r3, #0
 8003f6e:	d1e9      	bne.n	8003f44 <HAL_RCC_OscConfig+0x258>
 8003f70:	687b      	ldr	r3, [r7, #4]
 8003f72:	681b      	ldr	r3, [r3, #0]
 8003f74:	f003 0304 	and.w	r3, r3, #4
 8003f78:	2b00      	cmp	r3, #0
 8003f7a:	f000 80a6 	beq.w	80040ca <HAL_RCC_OscConfig+0x3de>
 8003f7e:	2300      	movs	r3, #0
 8003f80:	75fb      	strb	r3, [r7, #23]
 8003f82:	4b8b      	ldr	r3, [pc, #556]	; (80041b0 <HAL_RCC_OscConfig+0x4c4>)
 8003f84:	69db      	ldr	r3, [r3, #28]
 8003f86:	f003 5380 	and.w	r3, r3, #268435456	; 0x10000000
 8003f8a:	2b00      	cmp	r3, #0
 8003f8c:	d10d      	bne.n	8003faa <HAL_RCC_OscConfig+0x2be>
 8003f8e:	4b88      	ldr	r3, [pc, #544]	; (80041b0 <HAL_RCC_OscConfig+0x4c4>)
 8003f90:	69db      	ldr	r3, [r3, #28]
 8003f92:	4a87      	ldr	r2, [pc, #540]	; (80041b0 <HAL_RCC_OscConfig+0x4c4>)
 8003f94:	f043 5380 	orr.w	r3, r3, #268435456	; 0x10000000
 8003f98:	61d3      	str	r3, [r2, #28]
 8003f9a:	4b85      	ldr	r3, [pc, #532]	; (80041b0 <HAL_RCC_OscConfig+0x4c4>)
 8003f9c:	69db      	ldr	r3, [r3, #28]
 8003f9e:	f003 5380 	and.w	r3, r3, #268435456	; 0x10000000
 8003fa2:	60bb      	str	r3, [r7, #8]
 8003fa4:	68bb      	ldr	r3, [r7, #8]
 8003fa6:	2301      	movs	r3, #1
 8003fa8:	75fb      	strb	r3, [r7, #23]
 8003faa:	4b82      	ldr	r3, [pc, #520]	; (80041b4 <HAL_RCC_OscConfig+0x4c8>)
 8003fac:	681b      	ldr	r3, [r3, #0]
 8003fae:	f403 7380 	and.w	r3, r3, #256	; 0x100
 8003fb2:	2b00      	cmp	r3, #0
 8003fb4:	d118      	bne.n	8003fe8 <HAL_RCC_OscConfig+0x2fc>
 8003fb6:	4b7f      	ldr	r3, [pc, #508]	; (80041b4 <HAL_RCC_OscConfig+0x4c8>)
 8003fb8:	681b      	ldr	r3, [r3, #0]
 8003fba:	4a7e      	ldr	r2, [pc, #504]	; (80041b4 <HAL_RCC_OscConfig+0x4c8>)
 8003fbc:	f443 7380 	orr.w	r3, r3, #256	; 0x100
 8003fc0:	6013      	str	r3, [r2, #0]
 8003fc2:	f7fe fa3f 	bl	8002444 <HAL_GetTick>
 8003fc6:	6138      	str	r0, [r7, #16]
 8003fc8:	e008      	b.n	8003fdc <HAL_RCC_OscConfig+0x2f0>
 8003fca:	f7fe fa3b 	bl	8002444 <HAL_GetTick>
 8003fce:	4602      	mov	r2, r0
 8003fd0:	693b      	ldr	r3, [r7, #16]
 8003fd2:	1ad3      	subs	r3, r2, r3
 8003fd4:	2b64      	cmp	r3, #100	; 0x64
 8003fd6:	d901      	bls.n	8003fdc <HAL_RCC_OscConfig+0x2f0>
 8003fd8:	2303      	movs	r3, #3
 8003fda:	e103      	b.n	80041e4 <HAL_RCC_OscConfig+0x4f8>
 8003fdc:	4b75      	ldr	r3, [pc, #468]	; (80041b4 <HAL_RCC_OscConfig+0x4c8>)
 8003fde:	681b      	ldr	r3, [r3, #0]
 8003fe0:	f403 7380 	and.w	r3, r3, #256	; 0x100
 8003fe4:	2b00      	cmp	r3, #0
 8003fe6:	d0f0      	beq.n	8003fca <HAL_RCC_OscConfig+0x2de>
 8003fe8:	687b      	ldr	r3, [r7, #4]
 8003fea:	68db      	ldr	r3, [r3, #12]
 8003fec:	2b01      	cmp	r3, #1
 8003fee:	d106      	bne.n	8003ffe <HAL_RCC_OscConfig+0x312>
 8003ff0:	4b6f      	ldr	r3, [pc, #444]	; (80041b0 <HAL_RCC_OscConfig+0x4c4>)
 8003ff2:	6a1b      	ldr	r3, [r3, #32]
 8003ff4:	4a6e      	ldr	r2, [pc, #440]	; (80041b0 <HAL_RCC_OscConfig+0x4c4>)
 8003ff6:	f043 0301 	orr.w	r3, r3, #1
 8003ffa:	6213      	str	r3, [r2, #32]
 8003ffc:	e02d      	b.n	800405a <HAL_RCC_OscConfig+0x36e>
 8003ffe:	687b      	ldr	r3, [r7, #4]
 8004000:	68db      	ldr	r3, [r3, #12]
 8004002:	2b00      	cmp	r3, #0
 8004004:	d10c      	bne.n	8004020 <HAL_RCC_OscConfig+0x334>
 8004006:	4b6a      	ldr	r3, [pc, #424]	; (80041b0 <HAL_RCC_OscConfig+0x4c4>)
 8004008:	6a1b      	ldr	r3, [r3, #32]
 800400a:	4a69      	ldr	r2, [pc, #420]	; (80041b0 <HAL_RCC_OscConfig+0x4c4>)
 800400c:	f023 0301 	bic.w	r3, r3, #1
 8004010:	6213      	str	r3, [r2, #32]
 8004012:	4b67      	ldr	r3, [pc, #412]	; (80041b0 <HAL_RCC_OscConfig+0x4c4>)
 8004014:	6a1b      	ldr	r3, [r3, #32]
 8004016:	4a66      	ldr	r2, [pc, #408]	; (80041b0 <HAL_RCC_OscConfig+0x4c4>)
 8004018:	f023 0304 	bic.w	r3, r3, #4
 800401c:	6213      	str	r3, [r2, #32]
 800401e:	e01c      	b.n	800405a <HAL_RCC_OscConfig+0x36e>
 8004020:	687b      	ldr	r3, [r7, #4]
 8004022:	68db      	ldr	r3, [r3, #12]
 8004024:	2b05      	cmp	r3, #5
 8004026:	d10c      	bne.n	8004042 <HAL_RCC_OscConfig+0x356>
 8004028:	4b61      	ldr	r3, [pc, #388]	; (80041b0 <HAL_RCC_OscConfig+0x4c4>)
 800402a:	6a1b      	ldr	r3, [r3, #32]
 800402c:	4a60      	ldr	r2, [pc, #384]	; (80041b0 <HAL_RCC_OscConfig+0x4c4>)
 800402e:	f043 0304 	orr.w	r3, r3, #4
 8004032:	6213      	str	r3, [r2, #32]
 8004034:	4b5e      	ldr	r3, [pc, #376]	; (80041b0 <HAL_RCC_OscConfig+0x4c4>)
 8004036:	6a1b      	ldr	r3, [r3, #32]
 8004038:	4a5d      	ldr	r2, [pc, #372]	; (80041b0 <HAL_RCC_OscConfig+0x4c4>)
 800403a:	f043 0301 	orr.w	r3, r3, #1
 800403e:	6213      	str	r3, [r2, #32]
 8004040:	e00b      	b.n	800405a <HAL_RCC_OscConfig+0x36e>
 8004042:	4b5b      	ldr	r3, [pc, #364]	; (80041b0 <HAL_RCC_OscConfig+0x4c4>)
 8004044:	6a1b      	ldr	r3, [r3, #32]
 8004046:	4a5a      	ldr	r2, [pc, #360]	; (80041b0 <HAL_RCC_OscConfig+0x4c4>)
 8004048:	f023 0301 	bic.w	r3, r3, #1
 800404c:	6213      	str	r3, [r2, #32]
 800404e:	4b58      	ldr	r3, [pc, #352]	; (80041b0 <HAL_RCC_OscConfig+0x4c4>)
 8004050:	6a1b      	ldr	r3, [r3, #32]
 8004052:	4a57      	ldr	r2, [pc, #348]	; (80041b0 <HAL_RCC_OscConfig+0x4c4>)
 8004054:	f023 0304 	bic.w	r3, r3, #4
 8004058:	6213      	str	r3, [r2, #32]
 800405a:	687b      	ldr	r3, [r7, #4]
 800405c:	68db      	ldr	r3, [r3, #12]
 800405e:	2b00      	cmp	r3, #0
 8004060:	d015      	beq.n	800408e <HAL_RCC_OscConfig+0x3a2>
 8004062:	f7fe f9ef 	bl	8002444 <HAL_GetTick>
 8004066:	6138      	str	r0, [r7, #16]
 8004068:	e00a      	b.n	8004080 <HAL_RCC_OscConfig+0x394>
 800406a:	f7fe f9eb 	bl	8002444 <HAL_GetTick>
 800406e:	4602      	mov	r2, r0
 8004070:	693b      	ldr	r3, [r7, #16]
 8004072:	1ad3      	subs	r3, r2, r3
 8004074:	f241 3288 	movw	r2, #5000	; 0x1388
 8004078:	4293      	cmp	r3, r2
 800407a:	d901      	bls.n	8004080 <HAL_RCC_OscConfig+0x394>
 800407c:	2303      	movs	r3, #3
 800407e:	e0b1      	b.n	80041e4 <HAL_RCC_OscConfig+0x4f8>
 8004080:	4b4b      	ldr	r3, [pc, #300]	; (80041b0 <HAL_RCC_OscConfig+0x4c4>)
 8004082:	6a1b      	ldr	r3, [r3, #32]
 8004084:	f003 0302 	and.w	r3, r3, #2
 8004088:	2b00      	cmp	r3, #0
 800408a:	d0ee      	beq.n	800406a <HAL_RCC_OscConfig+0x37e>
 800408c:	e014      	b.n	80040b8 <HAL_RCC_OscConfig+0x3cc>
 800408e:	f7fe f9d9 	bl	8002444 <HAL_GetTick>
 8004092:	6138      	str	r0, [r7, #16]
 8004094:	e00a      	b.n	80040ac <HAL_RCC_OscConfig+0x3c0>
 8004096:	f7fe f9d5 	bl	8002444 <HAL_GetTick>
 800409a:	4602      	mov	r2, r0
 800409c:	693b      	ldr	r3, [r7, #16]
 800409e:	1ad3      	subs	r3, r2, r3
 80040a0:	f241 3288 	movw	r2, #5000	; 0x1388
 80040a4:	4293      	cmp	r3, r2
 80040a6:	d901      	bls.n	80040ac <HAL_RCC_OscConfig+0x3c0>
 80040a8:	2303      	movs	r3, #3
 80040aa:	e09b      	b.n	80041e4 <HAL_RCC_OscConfig+0x4f8>
 80040ac:	4b40      	ldr	r3, [pc, #256]	; (80041b0 <HAL_RCC_OscConfig+0x4c4>)
 80040ae:	6a1b      	ldr	r3, [r3, #32]
 80040b0:	f003 0302 	and.w	r3, r3, #2
 80040b4:	2b00      	cmp	r3, #0
 80040b6:	d1ee      	bne.n	8004096 <HAL_RCC_OscConfig+0x3aa>
 80040b8:	7dfb      	ldrb	r3, [r7, #23]
 80040ba:	2b01      	cmp	r3, #1
 80040bc:	d105      	bne.n	80040ca <HAL_RCC_OscConfig+0x3de>
 80040be:	4b3c      	ldr	r3, [pc, #240]	; (80041b0 <HAL_RCC_OscConfig+0x4c4>)
 80040c0:	69db      	ldr	r3, [r3, #28]
 80040c2:	4a3b      	ldr	r2, [pc, #236]	; (80041b0 <HAL_RCC_OscConfig+0x4c4>)
 80040c4:	f023 5380 	bic.w	r3, r3, #268435456	; 0x10000000
 80040c8:	61d3      	str	r3, [r2, #28]
 80040ca:	687b      	ldr	r3, [r7, #4]
 80040cc:	69db      	ldr	r3, [r3, #28]
 80040ce:	2b00      	cmp	r3, #0
 80040d0:	f000 8087 	beq.w	80041e2 <HAL_RCC_OscConfig+0x4f6>
 80040d4:	4b36      	ldr	r3, [pc, #216]	; (80041b0 <HAL_RCC_OscConfig+0x4c4>)
 80040d6:	685b      	ldr	r3, [r3, #4]
 80040d8:	f003 030c 	and.w	r3, r3, #12
 80040dc:	2b08      	cmp	r3, #8
 80040de:	d061      	beq.n	80041a4 <HAL_RCC_OscConfig+0x4b8>
 80040e0:	687b      	ldr	r3, [r7, #4]
 80040e2:	69db      	ldr	r3, [r3, #28]
 80040e4:	2b02      	cmp	r3, #2
 80040e6:	d146      	bne.n	8004176 <HAL_RCC_OscConfig+0x48a>
 80040e8:	4b33      	ldr	r3, [pc, #204]	; (80041b8 <HAL_RCC_OscConfig+0x4cc>)
 80040ea:	2200      	movs	r2, #0
 80040ec:	601a      	str	r2, [r3, #0]
 80040ee:	f7fe f9a9 	bl	8002444 <HAL_GetTick>
 80040f2:	6138      	str	r0, [r7, #16]
 80040f4:	e008      	b.n	8004108 <HAL_RCC_OscConfig+0x41c>
 80040f6:	f7fe f9a5 	bl	8002444 <HAL_GetTick>
 80040fa:	4602      	mov	r2, r0
 80040fc:	693b      	ldr	r3, [r7, #16]
 80040fe:	1ad3      	subs	r3, r2, r3
 8004100:	2b02      	cmp	r3, #2
 8004102:	d901      	bls.n	8004108 <HAL_RCC_OscConfig+0x41c>
 8004104:	2303      	movs	r3, #3
 8004106:	e06d      	b.n	80041e4 <HAL_RCC_OscConfig+0x4f8>
 8004108:	4b29      	ldr	r3, [pc, #164]	; (80041b0 <HAL_RCC_OscConfig+0x4c4>)
 800410a:	681b      	ldr	r3, [r3, #0]
 800410c:	f003 7300 	and.w	r3, r3, #33554432	; 0x2000000
 8004110:	2b00      	cmp	r3, #0
 8004112:	d1f0      	bne.n	80040f6 <HAL_RCC_OscConfig+0x40a>
 8004114:	687b      	ldr	r3, [r7, #4]
 8004116:	6a1b      	ldr	r3, [r3, #32]
 8004118:	f5b3 3f80 	cmp.w	r3, #65536	; 0x10000
 800411c:	d108      	bne.n	8004130 <HAL_RCC_OscConfig+0x444>
 800411e:	4b24      	ldr	r3, [pc, #144]	; (80041b0 <HAL_RCC_OscConfig+0x4c4>)
 8004120:	685b      	ldr	r3, [r3, #4]
 8004122:	f423 3200 	bic.w	r2, r3, #131072	; 0x20000
 8004126:	687b      	ldr	r3, [r7, #4]
 8004128:	689b      	ldr	r3, [r3, #8]
 800412a:	4921      	ldr	r1, [pc, #132]	; (80041b0 <HAL_RCC_OscConfig+0x4c4>)
 800412c:	4313      	orrs	r3, r2
 800412e:	604b      	str	r3, [r1, #4]
 8004130:	4b1f      	ldr	r3, [pc, #124]	; (80041b0 <HAL_RCC_OscConfig+0x4c4>)
 8004132:	685b      	ldr	r3, [r3, #4]
 8004134:	f423 1274 	bic.w	r2, r3, #3997696	; 0x3d0000
 8004138:	687b      	ldr	r3, [r7, #4]
 800413a:	6a19      	ldr	r1, [r3, #32]
 800413c:	687b      	ldr	r3, [r7, #4]
 800413e:	6a5b      	ldr	r3, [r3, #36]	; 0x24
 8004140:	430b      	orrs	r3, r1
 8004142:	491b      	ldr	r1, [pc, #108]	; (80041b0 <HAL_RCC_OscConfig+0x4c4>)
 8004144:	4313      	orrs	r3, r2
 8004146:	604b      	str	r3, [r1, #4]
 8004148:	4b1b      	ldr	r3, [pc, #108]	; (80041b8 <HAL_RCC_OscConfig+0x4cc>)
 800414a:	2201      	movs	r2, #1
 800414c:	601a      	str	r2, [r3, #0]
 800414e:	f7fe f979 	bl	8002444 <HAL_GetTick>
 8004152:	6138      	str	r0, [r7, #16]
 8004154:	e008      	b.n	8004168 <HAL_RCC_OscConfig+0x47c>
 8004156:	f7fe f975 	bl	8002444 <HAL_GetTick>
 800415a:	4602      	mov	r2, r0
 800415c:	693b      	ldr	r3, [r7, #16]
 800415e:	1ad3      	subs	r3, r2, r3
 8004160:	2b02      	cmp	r3, #2
 8004162:	d901      	bls.n	8004168 <HAL_RCC_OscConfig+0x47c>
 8004164:	2303      	movs	r3, #3
 8004166:	e03d      	b.n	80041e4 <HAL_RCC_OscConfig+0x4f8>
 8004168:	4b11      	ldr	r3, [pc, #68]	; (80041b0 <HAL_RCC_OscConfig+0x4c4>)
 800416a:	681b      	ldr	r3, [r3, #0]
 800416c:	f003 7300 	and.w	r3, r3, #33554432	; 0x2000000
 8004170:	2b00      	cmp	r3, #0
 8004172:	d0f0      	beq.n	8004156 <HAL_RCC_OscConfig+0x46a>
 8004174:	e035      	b.n	80041e2 <HAL_RCC_OscConfig+0x4f6>
 8004176:	4b10      	ldr	r3, [pc, #64]	; (80041b8 <HAL_RCC_OscConfig+0x4cc>)
 8004178:	2200      	movs	r2, #0
 800417a:	601a      	str	r2, [r3, #0]
 800417c:	f7fe f962 	bl	8002444 <HAL_GetTick>
 8004180:	6138      	str	r0, [r7, #16]
 8004182:	e008      	b.n	8004196 <HAL_RCC_OscConfig+0x4aa>
 8004184:	f7fe f95e 	bl	8002444 <HAL_GetTick>
 8004188:	4602      	mov	r2, r0
 800418a:	693b      	ldr	r3, [r7, #16]
 800418c:	1ad3      	subs	r3, r2, r3
 800418e:	2b02      	cmp	r3, #2
 8004190:	d901      	bls.n	8004196 <HAL_RCC_OscConfig+0x4aa>
 8004192:	2303      	movs	r3, #3
 8004194:	e026      	b.n	80041e4 <HAL_RCC_OscConfig+0x4f8>
 8004196:	4b06      	ldr	r3, [pc, #24]	; (80041b0 <HAL_RCC_OscConfig+0x4c4>)
 8004198:	681b      	ldr	r3, [r3, #0]
 800419a:	f003 7300 	and.w	r3, r3, #33554432	; 0x2000000
 800419e:	2b00      	cmp	r3, #0
 80041a0:	d1f0      	bne.n	8004184 <HAL_RCC_OscConfig+0x498>
 80041a2:	e01e      	b.n	80041e2 <HAL_RCC_OscConfig+0x4f6>
 80041a4:	687b      	ldr	r3, [r7, #4]
 80041a6:	69db      	ldr	r3, [r3, #28]
 80041a8:	2b01      	cmp	r3, #1
 80041aa:	d107      	bne.n	80041bc <HAL_RCC_OscConfig+0x4d0>
 80041ac:	2301      	movs	r3, #1
 80041ae:	e019      	b.n	80041e4 <HAL_RCC_OscConfig+0x4f8>
 80041b0:	40021000 	.word	0x40021000
 80041b4:	40007000 	.word	0x40007000
 80041b8:	42420060 	.word	0x42420060
 80041bc:	4b0b      	ldr	r3, [pc, #44]	; (80041ec <HAL_RCC_OscConfig+0x500>)
 80041be:	685b      	ldr	r3, [r3, #4]
 80041c0:	60fb      	str	r3, [r7, #12]
 80041c2:	68fb      	ldr	r3, [r7, #12]
 80041c4:	f403 3280 	and.w	r2, r3, #65536	; 0x10000
 80041c8:	687b      	ldr	r3, [r7, #4]
 80041ca:	6a1b      	ldr	r3, [r3, #32]
 80041cc:	429a      	cmp	r2, r3
 80041ce:	d106      	bne.n	80041de <HAL_RCC_OscConfig+0x4f2>
 80041d0:	68fb      	ldr	r3, [r7, #12]
 80041d2:	f403 1270 	and.w	r2, r3, #3932160	; 0x3c0000
 80041d6:	687b      	ldr	r3, [r7, #4]
 80041d8:	6a5b      	ldr	r3, [r3, #36]	; 0x24
 80041da:	429a      	cmp	r2, r3
 80041dc:	d001      	beq.n	80041e2 <HAL_RCC_OscConfig+0x4f6>
 80041de:	2301      	movs	r3, #1
 80041e0:	e000      	b.n	80041e4 <HAL_RCC_OscConfig+0x4f8>
 80041e2:	2300      	movs	r3, #0
 80041e4:	4618      	mov	r0, r3
 80041e6:	3718      	adds	r7, #24
 80041e8:	46bd      	mov	sp, r7
 80041ea:	bd80      	pop	{r7, pc}
 80041ec:	40021000 	.word	0x40021000

080041f0 <HAL_RCC_ClockConfig>:
 80041f0:	b580      	push	{r7, lr}
 80041f2:	b084      	sub	sp, #16
 80041f4:	af00      	add	r7, sp, #0
 80041f6:	6078      	str	r0, [r7, #4]
 80041f8:	6039      	str	r1, [r7, #0]
 80041fa:	687b      	ldr	r3, [r7, #4]
 80041fc:	2b00      	cmp	r3, #0
 80041fe:	d101      	bne.n	8004204 <HAL_RCC_ClockConfig+0x14>
 8004200:	2301      	movs	r3, #1
 8004202:	e0d0      	b.n	80043a6 <HAL_RCC_ClockConfig+0x1b6>
 8004204:	4b6a      	ldr	r3, [pc, #424]	; (80043b0 <HAL_RCC_ClockConfig+0x1c0>)
 8004206:	681b      	ldr	r3, [r3, #0]
 8004208:	f003 0307 	and.w	r3, r3, #7
 800420c:	683a      	ldr	r2, [r7, #0]
 800420e:	429a      	cmp	r2, r3
 8004210:	d910      	bls.n	8004234 <HAL_RCC_ClockConfig+0x44>
 8004212:	4b67      	ldr	r3, [pc, #412]	; (80043b0 <HAL_RCC_ClockConfig+0x1c0>)
 8004214:	681b      	ldr	r3, [r3, #0]
 8004216:	f023 0207 	bic.w	r2, r3, #7
 800421a:	4965      	ldr	r1, [pc, #404]	; (80043b0 <HAL_RCC_ClockConfig+0x1c0>)
 800421c:	683b      	ldr	r3, [r7, #0]
 800421e:	4313      	orrs	r3, r2
 8004220:	600b      	str	r3, [r1, #0]
 8004222:	4b63      	ldr	r3, [pc, #396]	; (80043b0 <HAL_RCC_ClockConfig+0x1c0>)
 8004224:	681b      	ldr	r3, [r3, #0]
 8004226:	f003 0307 	and.w	r3, r3, #7
 800422a:	683a      	ldr	r2, [r7, #0]
 800422c:	429a      	cmp	r2, r3
 800422e:	d001      	beq.n	8004234 <HAL_RCC_ClockConfig+0x44>
 8004230:	2301      	movs	r3, #1
 8004232:	e0b8      	b.n	80043a6 <HAL_RCC_ClockConfig+0x1b6>
 8004234:	687b      	ldr	r3, [r7, #4]
 8004236:	681b      	ldr	r3, [r3, #0]
 8004238:	f003 0302 	and.w	r3, r3, #2
 800423c:	2b00      	cmp	r3, #0
 800423e:	d020      	beq.n	8004282 <HAL_RCC_ClockConfig+0x92>
 8004240:	687b      	ldr	r3, [r7, #4]
 8004242:	681b      	ldr	r3, [r3, #0]
 8004244:	f003 0304 	and.w	r3, r3, #4
 8004248:	2b00      	cmp	r3, #0
 800424a:	d005      	beq.n	8004258 <HAL_RCC_ClockConfig+0x68>
 800424c:	4b59      	ldr	r3, [pc, #356]	; (80043b4 <HAL_RCC_ClockConfig+0x1c4>)
 800424e:	685b      	ldr	r3, [r3, #4]
 8004250:	4a58      	ldr	r2, [pc, #352]	; (80043b4 <HAL_RCC_ClockConfig+0x1c4>)
 8004252:	f443 63e0 	orr.w	r3, r3, #1792	; 0x700
 8004256:	6053      	str	r3, [r2, #4]
 8004258:	687b      	ldr	r3, [r7, #4]
 800425a:	681b      	ldr	r3, [r3, #0]
 800425c:	f003 0308 	and.w	r3, r3, #8
 8004260:	2b00      	cmp	r3, #0
 8004262:	d005      	beq.n	8004270 <HAL_RCC_ClockConfig+0x80>
 8004264:	4b53      	ldr	r3, [pc, #332]	; (80043b4 <HAL_RCC_ClockConfig+0x1c4>)
 8004266:	685b      	ldr	r3, [r3, #4]
 8004268:	4a52      	ldr	r2, [pc, #328]	; (80043b4 <HAL_RCC_ClockConfig+0x1c4>)
 800426a:	f443 5360 	orr.w	r3, r3, #14336	; 0x3800
 800426e:	6053      	str	r3, [r2, #4]
 8004270:	4b50      	ldr	r3, [pc, #320]	; (80043b4 <HAL_RCC_ClockConfig+0x1c4>)
 8004272:	685b      	ldr	r3, [r3, #4]
 8004274:	f023 02f0 	bic.w	r2, r3, #240	; 0xf0
 8004278:	687b      	ldr	r3, [r7, #4]
 800427a:	689b      	ldr	r3, [r3, #8]
 800427c:	494d      	ldr	r1, [pc, #308]	; (80043b4 <HAL_RCC_ClockConfig+0x1c4>)
 800427e:	4313      	orrs	r3, r2
 8004280:	604b      	str	r3, [r1, #4]
 8004282:	687b      	ldr	r3, [r7, #4]
 8004284:	681b      	ldr	r3, [r3, #0]
 8004286:	f003 0301 	and.w	r3, r3, #1
 800428a:	2b00      	cmp	r3, #0
 800428c:	d040      	beq.n	8004310 <HAL_RCC_ClockConfig+0x120>
 800428e:	687b      	ldr	r3, [r7, #4]
 8004290:	685b      	ldr	r3, [r3, #4]
 8004292:	2b01      	cmp	r3, #1
 8004294:	d107      	bne.n	80042a6 <HAL_RCC_ClockConfig+0xb6>
 8004296:	4b47      	ldr	r3, [pc, #284]	; (80043b4 <HAL_RCC_ClockConfig+0x1c4>)
 8004298:	681b      	ldr	r3, [r3, #0]
 800429a:	f403 3300 	and.w	r3, r3, #131072	; 0x20000
 800429e:	2b00      	cmp	r3, #0
 80042a0:	d115      	bne.n	80042ce <HAL_RCC_ClockConfig+0xde>
 80042a2:	2301      	movs	r3, #1
 80042a4:	e07f      	b.n	80043a6 <HAL_RCC_ClockConfig+0x1b6>
 80042a6:	687b      	ldr	r3, [r7, #4]
 80042a8:	685b      	ldr	r3, [r3, #4]
 80042aa:	2b02      	cmp	r3, #2
 80042ac:	d107      	bne.n	80042be <HAL_RCC_ClockConfig+0xce>
 80042ae:	4b41      	ldr	r3, [pc, #260]	; (80043b4 <HAL_RCC_ClockConfig+0x1c4>)
 80042b0:	681b      	ldr	r3, [r3, #0]
 80042b2:	f003 7300 	and.w	r3, r3, #33554432	; 0x2000000
 80042b6:	2b00      	cmp	r3, #0
 80042b8:	d109      	bne.n	80042ce <HAL_RCC_ClockConfig+0xde>
 80042ba:	2301      	movs	r3, #1
 80042bc:	e073      	b.n	80043a6 <HAL_RCC_ClockConfig+0x1b6>
 80042be:	4b3d      	ldr	r3, [pc, #244]	; (80043b4 <HAL_RCC_ClockConfig+0x1c4>)
 80042c0:	681b      	ldr	r3, [r3, #0]
 80042c2:	f003 0302 	and.w	r3, r3, #2
 80042c6:	2b00      	cmp	r3, #0
 80042c8:	d101      	bne.n	80042ce <HAL_RCC_ClockConfig+0xde>
 80042ca:	2301      	movs	r3, #1
 80042cc:	e06b      	b.n	80043a6 <HAL_RCC_ClockConfig+0x1b6>
 80042ce:	4b39      	ldr	r3, [pc, #228]	; (80043b4 <HAL_RCC_ClockConfig+0x1c4>)
 80042d0:	685b      	ldr	r3, [r3, #4]
 80042d2:	f023 0203 	bic.w	r2, r3, #3
 80042d6:	687b      	ldr	r3, [r7, #4]
 80042d8:	685b      	ldr	r3, [r3, #4]
 80042da:	4936      	ldr	r1, [pc, #216]	; (80043b4 <HAL_RCC_ClockConfig+0x1c4>)
 80042dc:	4313      	orrs	r3, r2
 80042de:	604b      	str	r3, [r1, #4]
 80042e0:	f7fe f8b0 	bl	8002444 <HAL_GetTick>
 80042e4:	60f8      	str	r0, [r7, #12]
 80042e6:	e00a      	b.n	80042fe <HAL_RCC_ClockConfig+0x10e>
 80042e8:	f7fe f8ac 	bl	8002444 <HAL_GetTick>
 80042ec:	4602      	mov	r2, r0
 80042ee:	68fb      	ldr	r3, [r7, #12]
 80042f0:	1ad3      	subs	r3, r2, r3
 80042f2:	f241 3288 	movw	r2, #5000	; 0x1388
 80042f6:	4293      	cmp	r3, r2
 80042f8:	d901      	bls.n	80042fe <HAL_RCC_ClockConfig+0x10e>
 80042fa:	2303      	movs	r3, #3
 80042fc:	e053      	b.n	80043a6 <HAL_RCC_ClockConfig+0x1b6>
 80042fe:	4b2d      	ldr	r3, [pc, #180]	; (80043b4 <HAL_RCC_ClockConfig+0x1c4>)
 8004300:	685b      	ldr	r3, [r3, #4]
 8004302:	f003 020c 	and.w	r2, r3, #12
 8004306:	687b      	ldr	r3, [r7, #4]
 8004308:	685b      	ldr	r3, [r3, #4]
 800430a:	009b      	lsls	r3, r3, #2
 800430c:	429a      	cmp	r2, r3
 800430e:	d1eb      	bne.n	80042e8 <HAL_RCC_ClockConfig+0xf8>
 8004310:	4b27      	ldr	r3, [pc, #156]	; (80043b0 <HAL_RCC_ClockConfig+0x1c0>)
 8004312:	681b      	ldr	r3, [r3, #0]
 8004314:	f003 0307 	and.w	r3, r3, #7
 8004318:	683a      	ldr	r2, [r7, #0]
 800431a:	429a      	cmp	r2, r3
 800431c:	d210      	bcs.n	8004340 <HAL_RCC_ClockConfig+0x150>
 800431e:	4b24      	ldr	r3, [pc, #144]	; (80043b0 <HAL_RCC_ClockConfig+0x1c0>)
 8004320:	681b      	ldr	r3, [r3, #0]
 8004322:	f023 0207 	bic.w	r2, r3, #7
 8004326:	4922      	ldr	r1, [pc, #136]	; (80043b0 <HAL_RCC_ClockConfig+0x1c0>)
 8004328:	683b      	ldr	r3, [r7, #0]
 800432a:	4313      	orrs	r3, r2
 800432c:	600b      	str	r3, [r1, #0]
 800432e:	4b20      	ldr	r3, [pc, #128]	; (80043b0 <HAL_RCC_ClockConfig+0x1c0>)
 8004330:	681b      	ldr	r3, [r3, #0]
 8004332:	f003 0307 	and.w	r3, r3, #7
 8004336:	683a      	ldr	r2, [r7, #0]
 8004338:	429a      	cmp	r2, r3
 800433a:	d001      	beq.n	8004340 <HAL_RCC_ClockConfig+0x150>
 800433c:	2301      	movs	r3, #1
 800433e:	e032      	b.n	80043a6 <HAL_RCC_ClockConfig+0x1b6>
 8004340:	687b      	ldr	r3, [r7, #4]
 8004342:	681b      	ldr	r3, [r3, #0]
 8004344:	f003 0304 	and.w	r3, r3, #4
 8004348:	2b00      	cmp	r3, #0
 800434a:	d008      	beq.n	800435e <HAL_RCC_ClockConfig+0x16e>
 800434c:	4b19      	ldr	r3, [pc, #100]	; (80043b4 <HAL_RCC_ClockConfig+0x1c4>)
 800434e:	685b      	ldr	r3, [r3, #4]
 8004350:	f423 62e0 	bic.w	r2, r3, #1792	; 0x700
 8004354:	687b      	ldr	r3, [r7, #4]
 8004356:	68db      	ldr	r3, [r3, #12]
 8004358:	4916      	ldr	r1, [pc, #88]	; (80043b4 <HAL_RCC_ClockConfig+0x1c4>)
 800435a:	4313      	orrs	r3, r2
 800435c:	604b      	str	r3, [r1, #4]
 800435e:	687b      	ldr	r3, [r7, #4]
 8004360:	681b      	ldr	r3, [r3, #0]
 8004362:	f003 0308 	and.w	r3, r3, #8
 8004366:	2b00      	cmp	r3, #0
 8004368:	d009      	beq.n	800437e <HAL_RCC_ClockConfig+0x18e>
 800436a:	4b12      	ldr	r3, [pc, #72]	; (80043b4 <HAL_RCC_ClockConfig+0x1c4>)
 800436c:	685b      	ldr	r3, [r3, #4]
 800436e:	f423 5260 	bic.w	r2, r3, #14336	; 0x3800
 8004372:	687b      	ldr	r3, [r7, #4]
 8004374:	691b      	ldr	r3, [r3, #16]
 8004376:	00db      	lsls	r3, r3, #3
 8004378:	490e      	ldr	r1, [pc, #56]	; (80043b4 <HAL_RCC_ClockConfig+0x1c4>)
 800437a:	4313      	orrs	r3, r2
 800437c:	604b      	str	r3, [r1, #4]
 800437e:	f000 f821 	bl	80043c4 <HAL_RCC_GetSysClockFreq>
 8004382:	4602      	mov	r2, r0
 8004384:	4b0b      	ldr	r3, [pc, #44]	; (80043b4 <HAL_RCC_ClockConfig+0x1c4>)
 8004386:	685b      	ldr	r3, [r3, #4]
 8004388:	091b      	lsrs	r3, r3, #4
 800438a:	f003 030f 	and.w	r3, r3, #15
 800438e:	490a      	ldr	r1, [pc, #40]	; (80043b8 <HAL_RCC_ClockConfig+0x1c8>)
 8004390:	5ccb      	ldrb	r3, [r1, r3]
 8004392:	fa22 f303 	lsr.w	r3, r2, r3
 8004396:	4a09      	ldr	r2, [pc, #36]	; (80043bc <HAL_RCC_ClockConfig+0x1cc>)
 8004398:	6013      	str	r3, [r2, #0]
 800439a:	4b09      	ldr	r3, [pc, #36]	; (80043c0 <HAL_RCC_ClockConfig+0x1d0>)
 800439c:	681b      	ldr	r3, [r3, #0]
 800439e:	4618      	mov	r0, r3
 80043a0:	f7fe f80e 	bl	80023c0 <HAL_InitTick>
 80043a4:	2300      	movs	r3, #0
 80043a6:	4618      	mov	r0, r3
 80043a8:	3710      	adds	r7, #16
 80043aa:	46bd      	mov	sp, r7
 80043ac:	bd80      	pop	{r7, pc}
 80043ae:	bf00      	nop
 80043b0:	40022000 	.word	0x40022000
 80043b4:	40021000 	.word	0x40021000
 80043b8:	08005a3c 	.word	0x08005a3c
 80043bc:	20000000 	.word	0x20000000
 80043c0:	20000004 	.word	0x20000004

080043c4 <HAL_RCC_GetSysClockFreq>:
 80043c4:	b480      	push	{r7}
 80043c6:	b087      	sub	sp, #28
 80043c8:	af00      	add	r7, sp, #0
 80043ca:	2300      	movs	r3, #0
 80043cc:	60fb      	str	r3, [r7, #12]
 80043ce:	2300      	movs	r3, #0
 80043d0:	60bb      	str	r3, [r7, #8]
 80043d2:	2300      	movs	r3, #0
 80043d4:	617b      	str	r3, [r7, #20]
 80043d6:	2300      	movs	r3, #0
 80043d8:	607b      	str	r3, [r7, #4]
 80043da:	2300      	movs	r3, #0
 80043dc:	613b      	str	r3, [r7, #16]
 80043de:	4b1e      	ldr	r3, [pc, #120]	; (8004458 <HAL_RCC_GetSysClockFreq+0x94>)
 80043e0:	685b      	ldr	r3, [r3, #4]
 80043e2:	60fb      	str	r3, [r7, #12]
 80043e4:	68fb      	ldr	r3, [r7, #12]
 80043e6:	f003 030c 	and.w	r3, r3, #12
 80043ea:	2b04      	cmp	r3, #4
 80043ec:	d002      	beq.n	80043f4 <HAL_RCC_GetSysClockFreq+0x30>
 80043ee:	2b08      	cmp	r3, #8
 80043f0:	d003      	beq.n	80043fa <HAL_RCC_GetSysClockFreq+0x36>
 80043f2:	e027      	b.n	8004444 <HAL_RCC_GetSysClockFreq+0x80>
 80043f4:	4b19      	ldr	r3, [pc, #100]	; (800445c <HAL_RCC_GetSysClockFreq+0x98>)
 80043f6:	613b      	str	r3, [r7, #16]
 80043f8:	e027      	b.n	800444a <HAL_RCC_GetSysClockFreq+0x86>
 80043fa:	68fb      	ldr	r3, [r7, #12]
 80043fc:	0c9b      	lsrs	r3, r3, #18
 80043fe:	f003 030f 	and.w	r3, r3, #15
 8004402:	4a17      	ldr	r2, [pc, #92]	; (8004460 <HAL_RCC_GetSysClockFreq+0x9c>)
 8004404:	5cd3      	ldrb	r3, [r2, r3]
 8004406:	607b      	str	r3, [r7, #4]
 8004408:	68fb      	ldr	r3, [r7, #12]
 800440a:	f403 3380 	and.w	r3, r3, #65536	; 0x10000
 800440e:	2b00      	cmp	r3, #0
 8004410:	d010      	beq.n	8004434 <HAL_RCC_GetSysClockFreq+0x70>
 8004412:	4b11      	ldr	r3, [pc, #68]	; (8004458 <HAL_RCC_GetSysClockFreq+0x94>)
 8004414:	685b      	ldr	r3, [r3, #4]
 8004416:	0c5b      	lsrs	r3, r3, #17
 8004418:	f003 0301 	and.w	r3, r3, #1
 800441c:	4a11      	ldr	r2, [pc, #68]	; (8004464 <HAL_RCC_GetSysClockFreq+0xa0>)
 800441e:	5cd3      	ldrb	r3, [r2, r3]
 8004420:	60bb      	str	r3, [r7, #8]
 8004422:	687b      	ldr	r3, [r7, #4]
 8004424:	4a0d      	ldr	r2, [pc, #52]	; (800445c <HAL_RCC_GetSysClockFreq+0x98>)
 8004426:	fb03 f202 	mul.w	r2, r3, r2
 800442a:	68bb      	ldr	r3, [r7, #8]
 800442c:	fbb2 f3f3 	udiv	r3, r2, r3
 8004430:	617b      	str	r3, [r7, #20]
 8004432:	e004      	b.n	800443e <HAL_RCC_GetSysClockFreq+0x7a>
 8004434:	687b      	ldr	r3, [r7, #4]
 8004436:	4a0c      	ldr	r2, [pc, #48]	; (8004468 <HAL_RCC_GetSysClockFreq+0xa4>)
 8004438:	fb02 f303 	mul.w	r3, r2, r3
 800443c:	617b      	str	r3, [r7, #20]
 800443e:	697b      	ldr	r3, [r7, #20]
 8004440:	613b      	str	r3, [r7, #16]
 8004442:	e002      	b.n	800444a <HAL_RCC_GetSysClockFreq+0x86>
 8004444:	4b05      	ldr	r3, [pc, #20]	; (800445c <HAL_RCC_GetSysClockFreq+0x98>)
 8004446:	613b      	str	r3, [r7, #16]
 8004448:	bf00      	nop
 800444a:	693b      	ldr	r3, [r7, #16]
 800444c:	4618      	mov	r0, r3
 800444e:	371c      	adds	r7, #28
 8004450:	46bd      	mov	sp, r7
 8004452:	bc80      	pop	{r7}
 8004454:	4770      	bx	lr
 8004456:	bf00      	nop
 8004458:	40021000 	.word	0x40021000
 800445c:	007a1200 	.word	0x007a1200
 8004460:	08005a54 	.word	0x08005a54
 8004464:	08005a64 	.word	0x08005a64
 8004468:	003d0900 	.word	0x003d0900

0800446c <HAL_RCC_GetHCLKFreq>:
 800446c:	b480      	push	{r7}
 800446e:	af00      	add	r7, sp, #0
 8004470:	4b02      	ldr	r3, [pc, #8]	; (800447c <HAL_RCC_GetHCLKFreq+0x10>)
 8004472:	681b      	ldr	r3, [r3, #0]
 8004474:	4618      	mov	r0, r3
 8004476:	46bd      	mov	sp, r7
 8004478:	bc80      	pop	{r7}
 800447a:	4770      	bx	lr
 800447c:	20000000 	.word	0x20000000

08004480 <HAL_RCC_GetPCLK1Freq>:
 8004480:	b580      	push	{r7, lr}
 8004482:	af00      	add	r7, sp, #0
 8004484:	f7ff fff2 	bl	800446c <HAL_RCC_GetHCLKFreq>
 8004488:	4602      	mov	r2, r0
 800448a:	4b05      	ldr	r3, [pc, #20]	; (80044a0 <HAL_RCC_GetPCLK1Freq+0x20>)
 800448c:	685b      	ldr	r3, [r3, #4]
 800448e:	0a1b      	lsrs	r3, r3, #8
 8004490:	f003 0307 	and.w	r3, r3, #7
 8004494:	4903      	ldr	r1, [pc, #12]	; (80044a4 <HAL_RCC_GetPCLK1Freq+0x24>)
 8004496:	5ccb      	ldrb	r3, [r1, r3]
 8004498:	fa22 f303 	lsr.w	r3, r2, r3
 800449c:	4618      	mov	r0, r3
 800449e:	bd80      	pop	{r7, pc}
 80044a0:	40021000 	.word	0x40021000
 80044a4:	08005a4c 	.word	0x08005a4c

080044a8 <RCC_Delay>:
 80044a8:	b480      	push	{r7}
 80044aa:	b085      	sub	sp, #20
 80044ac:	af00      	add	r7, sp, #0
 80044ae:	6078      	str	r0, [r7, #4]
 80044b0:	4b0a      	ldr	r3, [pc, #40]	; (80044dc <RCC_Delay+0x34>)
 80044b2:	681b      	ldr	r3, [r3, #0]
 80044b4:	4a0a      	ldr	r2, [pc, #40]	; (80044e0 <RCC_Delay+0x38>)
 80044b6:	fba2 2303 	umull	r2, r3, r2, r3
 80044ba:	0a5b      	lsrs	r3, r3, #9
 80044bc:	687a      	ldr	r2, [r7, #4]
 80044be:	fb02 f303 	mul.w	r3, r2, r3
 80044c2:	60fb      	str	r3, [r7, #12]
 80044c4:	bf00      	nop
 80044c6:	68fb      	ldr	r3, [r7, #12]
 80044c8:	1e5a      	subs	r2, r3, #1
 80044ca:	60fa      	str	r2, [r7, #12]
 80044cc:	2b00      	cmp	r3, #0
 80044ce:	d1f9      	bne.n	80044c4 <RCC_Delay+0x1c>
 80044d0:	bf00      	nop
 80044d2:	bf00      	nop
 80044d4:	3714      	adds	r7, #20
 80044d6:	46bd      	mov	sp, r7
 80044d8:	bc80      	pop	{r7}
 80044da:	4770      	bx	lr
 80044dc:	20000000 	.word	0x20000000
 80044e0:	10624dd3 	.word	0x10624dd3

080044e4 <HAL_TIM_Base_Init>:
 80044e4:	b580      	push	{r7, lr}
 80044e6:	b082      	sub	sp, #8
 80044e8:	af00      	add	r7, sp, #0
 80044ea:	6078      	str	r0, [r7, #4]
 80044ec:	687b      	ldr	r3, [r7, #4]
 80044ee:	2b00      	cmp	r3, #0
 80044f0:	d101      	bne.n	80044f6 <HAL_TIM_Base_Init+0x12>
 80044f2:	2301      	movs	r3, #1
 80044f4:	e041      	b.n	800457a <HAL_TIM_Base_Init+0x96>
 80044f6:	687b      	ldr	r3, [r7, #4]
 80044f8:	f893 303d 	ldrb.w	r3, [r3, #61]	; 0x3d
 80044fc:	b2db      	uxtb	r3, r3
 80044fe:	2b00      	cmp	r3, #0
 8004500:	d106      	bne.n	8004510 <HAL_TIM_Base_Init+0x2c>
 8004502:	687b      	ldr	r3, [r7, #4]
 8004504:	2200      	movs	r2, #0
 8004506:	f883 203c 	strb.w	r2, [r3, #60]	; 0x3c
 800450a:	6878      	ldr	r0, [r7, #4]
 800450c:	f7fd fe10 	bl	8002130 <HAL_TIM_Base_MspInit>
 8004510:	687b      	ldr	r3, [r7, #4]
 8004512:	2202      	movs	r2, #2
 8004514:	f883 203d 	strb.w	r2, [r3, #61]	; 0x3d
 8004518:	687b      	ldr	r3, [r7, #4]
 800451a:	681a      	ldr	r2, [r3, #0]
 800451c:	687b      	ldr	r3, [r7, #4]
 800451e:	3304      	adds	r3, #4
 8004520:	4619      	mov	r1, r3
 8004522:	4610      	mov	r0, r2
 8004524:	f000 fdde 	bl	80050e4 <TIM_Base_SetConfig>
 8004528:	687b      	ldr	r3, [r7, #4]
 800452a:	2201      	movs	r2, #1
 800452c:	f883 2046 	strb.w	r2, [r3, #70]	; 0x46
 8004530:	687b      	ldr	r3, [r7, #4]
 8004532:	2201      	movs	r2, #1
 8004534:	f883 203e 	strb.w	r2, [r3, #62]	; 0x3e
 8004538:	687b      	ldr	r3, [r7, #4]
 800453a:	2201      	movs	r2, #1
 800453c:	f883 203f 	strb.w	r2, [r3, #63]	; 0x3f
 8004540:	687b      	ldr	r3, [r7, #4]
 8004542:	2201      	movs	r2, #1
 8004544:	f883 2040 	strb.w	r2, [r3, #64]	; 0x40
 8004548:	687b      	ldr	r3, [r7, #4]
 800454a:	2201      	movs	r2, #1
 800454c:	f883 2041 	strb.w	r2, [r3, #65]	; 0x41
 8004550:	687b      	ldr	r3, [r7, #4]
 8004552:	2201      	movs	r2, #1
 8004554:	f883 2042 	strb.w	r2, [r3, #66]	; 0x42
 8004558:	687b      	ldr	r3, [r7, #4]
 800455a:	2201      	movs	r2, #1
 800455c:	f883 2043 	strb.w	r2, [r3, #67]	; 0x43
 8004560:	687b      	ldr	r3, [r7, #4]
 8004562:	2201      	movs	r2, #1
 8004564:	f883 2044 	strb.w	r2, [r3, #68]	; 0x44
 8004568:	687b      	ldr	r3, [r7, #4]
 800456a:	2201      	movs	r2, #1
 800456c:	f883 2045 	strb.w	r2, [r3, #69]	; 0x45
 8004570:	687b      	ldr	r3, [r7, #4]
 8004572:	2201      	movs	r2, #1
 8004574:	f883 203d 	strb.w	r2, [r3, #61]	; 0x3d
 8004578:	2300      	movs	r3, #0
 800457a:	4618      	mov	r0, r3
 800457c:	3708      	adds	r7, #8
 800457e:	46bd      	mov	sp, r7
 8004580:	bd80      	pop	{r7, pc}

08004582 <HAL_TIM_PWM_Init>:
 8004582:	b580      	push	{r7, lr}
 8004584:	b082      	sub	sp, #8
 8004586:	af00      	add	r7, sp, #0
 8004588:	6078      	str	r0, [r7, #4]
 800458a:	687b      	ldr	r3, [r7, #4]
 800458c:	2b00      	cmp	r3, #0
 800458e:	d101      	bne.n	8004594 <HAL_TIM_PWM_Init+0x12>
 8004590:	2301      	movs	r3, #1
 8004592:	e041      	b.n	8004618 <HAL_TIM_PWM_Init+0x96>
 8004594:	687b      	ldr	r3, [r7, #4]
 8004596:	f893 303d 	ldrb.w	r3, [r3, #61]	; 0x3d
 800459a:	b2db      	uxtb	r3, r3
 800459c:	2b00      	cmp	r3, #0
 800459e:	d106      	bne.n	80045ae <HAL_TIM_PWM_Init+0x2c>
 80045a0:	687b      	ldr	r3, [r7, #4]
 80045a2:	2200      	movs	r2, #0
 80045a4:	f883 203c 	strb.w	r2, [r3, #60]	; 0x3c
 80045a8:	6878      	ldr	r0, [r7, #4]
 80045aa:	f000 f839 	bl	8004620 <HAL_TIM_PWM_MspInit>
 80045ae:	687b      	ldr	r3, [r7, #4]
 80045b0:	2202      	movs	r2, #2
 80045b2:	f883 203d 	strb.w	r2, [r3, #61]	; 0x3d
 80045b6:	687b      	ldr	r3, [r7, #4]
 80045b8:	681a      	ldr	r2, [r3, #0]
 80045ba:	687b      	ldr	r3, [r7, #4]
 80045bc:	3304      	adds	r3, #4
 80045be:	4619      	mov	r1, r3
 80045c0:	4610      	mov	r0, r2
 80045c2:	f000 fd8f 	bl	80050e4 <TIM_Base_SetConfig>
 80045c6:	687b      	ldr	r3, [r7, #4]
 80045c8:	2201      	movs	r2, #1
 80045ca:	f883 2046 	strb.w	r2, [r3, #70]	; 0x46
 80045ce:	687b      	ldr	r3, [r7, #4]
 80045d0:	2201      	movs	r2, #1
 80045d2:	f883 203e 	strb.w	r2, [r3, #62]	; 0x3e
 80045d6:	687b      	ldr	r3, [r7, #4]
 80045d8:	2201      	movs	r2, #1
 80045da:	f883 203f 	strb.w	r2, [r3, #63]	; 0x3f
 80045de:	687b      	ldr	r3, [r7, #4]
 80045e0:	2201      	movs	r2, #1
 80045e2:	f883 2040 	strb.w	r2, [r3, #64]	; 0x40
 80045e6:	687b      	ldr	r3, [r7, #4]
 80045e8:	2201      	movs	r2, #1
 80045ea:	f883 2041 	strb.w	r2, [r3, #65]	; 0x41
 80045ee:	687b      	ldr	r3, [r7, #4]
 80045f0:	2201      	movs	r2, #1
 80045f2:	f883 2042 	strb.w	r2, [r3, #66]	; 0x42
 80045f6:	687b      	ldr	r3, [r7, #4]
 80045f8:	2201      	movs	r2, #1
 80045fa:	f883 2043 	strb.w	r2, [r3, #67]	; 0x43
 80045fe:	687b      	ldr	r3, [r7, #4]
 8004600:	2201      	movs	r2, #1
 8004602:	f883 2044 	strb.w	r2, [r3, #68]	; 0x44
 8004606:	687b      	ldr	r3, [r7, #4]
 8004608:	2201      	movs	r2, #1
 800460a:	f883 2045 	strb.w	r2, [r3, #69]	; 0x45
 800460e:	687b      	ldr	r3, [r7, #4]
 8004610:	2201      	movs	r2, #1
 8004612:	f883 203d 	strb.w	r2, [r3, #61]	; 0x3d
 8004616:	2300      	movs	r3, #0
 8004618:	4618      	mov	r0, r3
 800461a:	3708      	adds	r7, #8
 800461c:	46bd      	mov	sp, r7
 800461e:	bd80      	pop	{r7, pc}

08004620 <HAL_TIM_PWM_MspInit>:
 8004620:	b480      	push	{r7}
 8004622:	b083      	sub	sp, #12
 8004624:	af00      	add	r7, sp, #0
 8004626:	6078      	str	r0, [r7, #4]
 8004628:	bf00      	nop
 800462a:	370c      	adds	r7, #12
 800462c:	46bd      	mov	sp, r7
 800462e:	bc80      	pop	{r7}
 8004630:	4770      	bx	lr
	...

08004634 <HAL_TIM_PWM_Start>:
 8004634:	b580      	push	{r7, lr}
 8004636:	b084      	sub	sp, #16
 8004638:	af00      	add	r7, sp, #0
 800463a:	6078      	str	r0, [r7, #4]
 800463c:	6039      	str	r1, [r7, #0]
 800463e:	683b      	ldr	r3, [r7, #0]
 8004640:	2b00      	cmp	r3, #0
 8004642:	d109      	bne.n	8004658 <HAL_TIM_PWM_Start+0x24>
 8004644:	687b      	ldr	r3, [r7, #4]
 8004646:	f893 303e 	ldrb.w	r3, [r3, #62]	; 0x3e
 800464a:	b2db      	uxtb	r3, r3
 800464c:	2b01      	cmp	r3, #1
 800464e:	bf14      	ite	ne
 8004650:	2301      	movne	r3, #1
 8004652:	2300      	moveq	r3, #0
 8004654:	b2db      	uxtb	r3, r3
 8004656:	e022      	b.n	800469e <HAL_TIM_PWM_Start+0x6a>
 8004658:	683b      	ldr	r3, [r7, #0]
 800465a:	2b04      	cmp	r3, #4
 800465c:	d109      	bne.n	8004672 <HAL_TIM_PWM_Start+0x3e>
 800465e:	687b      	ldr	r3, [r7, #4]
 8004660:	f893 303f 	ldrb.w	r3, [r3, #63]	; 0x3f
 8004664:	b2db      	uxtb	r3, r3
 8004666:	2b01      	cmp	r3, #1
 8004668:	bf14      	ite	ne
 800466a:	2301      	movne	r3, #1
 800466c:	2300      	moveq	r3, #0
 800466e:	b2db      	uxtb	r3, r3
 8004670:	e015      	b.n	800469e <HAL_TIM_PWM_Start+0x6a>
 8004672:	683b      	ldr	r3, [r7, #0]
 8004674:	2b08      	cmp	r3, #8
 8004676:	d109      	bne.n	800468c <HAL_TIM_PWM_Start+0x58>
 8004678:	687b      	ldr	r3, [r7, #4]
 800467a:	f893 3040 	ldrb.w	r3, [r3, #64]	; 0x40
 800467e:	b2db      	uxtb	r3, r3
 8004680:	2b01      	cmp	r3, #1
 8004682:	bf14      	ite	ne
 8004684:	2301      	movne	r3, #1
 8004686:	2300      	moveq	r3, #0
 8004688:	b2db      	uxtb	r3, r3
 800468a:	e008      	b.n	800469e <HAL_TIM_PWM_Start+0x6a>
 800468c:	687b      	ldr	r3, [r7, #4]
 800468e:	f893 3041 	ldrb.w	r3, [r3, #65]	; 0x41
 8004692:	b2db      	uxtb	r3, r3
 8004694:	2b01      	cmp	r3, #1
 8004696:	bf14      	ite	ne
 8004698:	2301      	movne	r3, #1
 800469a:	2300      	moveq	r3, #0
 800469c:	b2db      	uxtb	r3, r3
 800469e:	2b00      	cmp	r3, #0
 80046a0:	d001      	beq.n	80046a6 <HAL_TIM_PWM_Start+0x72>
 80046a2:	2301      	movs	r3, #1
 80046a4:	e05e      	b.n	8004764 <HAL_TIM_PWM_Start+0x130>
 80046a6:	683b      	ldr	r3, [r7, #0]
 80046a8:	2b00      	cmp	r3, #0
 80046aa:	d104      	bne.n	80046b6 <HAL_TIM_PWM_Start+0x82>
 80046ac:	687b      	ldr	r3, [r7, #4]
 80046ae:	2202      	movs	r2, #2
 80046b0:	f883 203e 	strb.w	r2, [r3, #62]	; 0x3e
 80046b4:	e013      	b.n	80046de <HAL_TIM_PWM_Start+0xaa>
 80046b6:	683b      	ldr	r3, [r7, #0]
 80046b8:	2b04      	cmp	r3, #4
 80046ba:	d104      	bne.n	80046c6 <HAL_TIM_PWM_Start+0x92>
 80046bc:	687b      	ldr	r3, [r7, #4]
 80046be:	2202      	movs	r2, #2
 80046c0:	f883 203f 	strb.w	r2, [r3, #63]	; 0x3f
 80046c4:	e00b      	b.n	80046de <HAL_TIM_PWM_Start+0xaa>
 80046c6:	683b      	ldr	r3, [r7, #0]
 80046c8:	2b08      	cmp	r3, #8
 80046ca:	d104      	bne.n	80046d6 <HAL_TIM_PWM_Start+0xa2>
 80046cc:	687b      	ldr	r3, [r7, #4]
 80046ce:	2202      	movs	r2, #2
 80046d0:	f883 2040 	strb.w	r2, [r3, #64]	; 0x40
 80046d4:	e003      	b.n	80046de <HAL_TIM_PWM_Start+0xaa>
 80046d6:	687b      	ldr	r3, [r7, #4]
 80046d8:	2202      	movs	r2, #2
 80046da:	f883 2041 	strb.w	r2, [r3, #65]	; 0x41
 80046de:	687b      	ldr	r3, [r7, #4]
 80046e0:	681b      	ldr	r3, [r3, #0]
 80046e2:	2201      	movs	r2, #1
 80046e4:	6839      	ldr	r1, [r7, #0]
 80046e6:	4618      	mov	r0, r3
 80046e8:	f001 f889 	bl	80057fe <TIM_CCxChannelCmd>
 80046ec:	687b      	ldr	r3, [r7, #4]
 80046ee:	681b      	ldr	r3, [r3, #0]
 80046f0:	4a1e      	ldr	r2, [pc, #120]	; (800476c <HAL_TIM_PWM_Start+0x138>)
 80046f2:	4293      	cmp	r3, r2
 80046f4:	d107      	bne.n	8004706 <HAL_TIM_PWM_Start+0xd2>
 80046f6:	687b      	ldr	r3, [r7, #4]
 80046f8:	681b      	ldr	r3, [r3, #0]
 80046fa:	6c5a      	ldr	r2, [r3, #68]	; 0x44
 80046fc:	687b      	ldr	r3, [r7, #4]
 80046fe:	681b      	ldr	r3, [r3, #0]
 8004700:	f442 4200 	orr.w	r2, r2, #32768	; 0x8000
 8004704:	645a      	str	r2, [r3, #68]	; 0x44
 8004706:	687b      	ldr	r3, [r7, #4]
 8004708:	681b      	ldr	r3, [r3, #0]
 800470a:	4a18      	ldr	r2, [pc, #96]	; (800476c <HAL_TIM_PWM_Start+0x138>)
 800470c:	4293      	cmp	r3, r2
 800470e:	d00e      	beq.n	800472e <HAL_TIM_PWM_Start+0xfa>
 8004710:	687b      	ldr	r3, [r7, #4]
 8004712:	681b      	ldr	r3, [r3, #0]
 8004714:	f1b3 4f80 	cmp.w	r3, #1073741824	; 0x40000000
 8004718:	d009      	beq.n	800472e <HAL_TIM_PWM_Start+0xfa>
 800471a:	687b      	ldr	r3, [r7, #4]
 800471c:	681b      	ldr	r3, [r3, #0]
 800471e:	4a14      	ldr	r2, [pc, #80]	; (8004770 <HAL_TIM_PWM_Start+0x13c>)
 8004720:	4293      	cmp	r3, r2
 8004722:	d004      	beq.n	800472e <HAL_TIM_PWM_Start+0xfa>
 8004724:	687b      	ldr	r3, [r7, #4]
 8004726:	681b      	ldr	r3, [r3, #0]
 8004728:	4a12      	ldr	r2, [pc, #72]	; (8004774 <HAL_TIM_PWM_Start+0x140>)
 800472a:	4293      	cmp	r3, r2
 800472c:	d111      	bne.n	8004752 <HAL_TIM_PWM_Start+0x11e>
 800472e:	687b      	ldr	r3, [r7, #4]
 8004730:	681b      	ldr	r3, [r3, #0]
 8004732:	689b      	ldr	r3, [r3, #8]
 8004734:	f003 0307 	and.w	r3, r3, #7
 8004738:	60fb      	str	r3, [r7, #12]
 800473a:	68fb      	ldr	r3, [r7, #12]
 800473c:	2b06      	cmp	r3, #6
 800473e:	d010      	beq.n	8004762 <HAL_TIM_PWM_Start+0x12e>
 8004740:	687b      	ldr	r3, [r7, #4]
 8004742:	681b      	ldr	r3, [r3, #0]
 8004744:	681a      	ldr	r2, [r3, #0]
 8004746:	687b      	ldr	r3, [r7, #4]
 8004748:	681b      	ldr	r3, [r3, #0]
 800474a:	f042 0201 	orr.w	r2, r2, #1
 800474e:	601a      	str	r2, [r3, #0]
 8004750:	e007      	b.n	8004762 <HAL_TIM_PWM_Start+0x12e>
 8004752:	687b      	ldr	r3, [r7, #4]
 8004754:	681b      	ldr	r3, [r3, #0]
 8004756:	681a      	ldr	r2, [r3, #0]
 8004758:	687b      	ldr	r3, [r7, #4]
 800475a:	681b      	ldr	r3, [r3, #0]
 800475c:	f042 0201 	orr.w	r2, r2, #1
 8004760:	601a      	str	r2, [r3, #0]
 8004762:	2300      	movs	r3, #0
 8004764:	4618      	mov	r0, r3
 8004766:	3710      	adds	r7, #16
 8004768:	46bd      	mov	sp, r7
 800476a:	bd80      	pop	{r7, pc}
 800476c:	40012c00 	.word	0x40012c00
 8004770:	40000400 	.word	0x40000400
 8004774:	40000800 	.word	0x40000800

08004778 <HAL_TIM_IC_Init>:
 8004778:	b580      	push	{r7, lr}
 800477a:	b082      	sub	sp, #8
 800477c:	af00      	add	r7, sp, #0
 800477e:	6078      	str	r0, [r7, #4]
 8004780:	687b      	ldr	r3, [r7, #4]
 8004782:	2b00      	cmp	r3, #0
 8004784:	d101      	bne.n	800478a <HAL_TIM_IC_Init+0x12>
 8004786:	2301      	movs	r3, #1
 8004788:	e041      	b.n	800480e <HAL_TIM_IC_Init+0x96>
 800478a:	687b      	ldr	r3, [r7, #4]
 800478c:	f893 303d 	ldrb.w	r3, [r3, #61]	; 0x3d
 8004790:	b2db      	uxtb	r3, r3
 8004792:	2b00      	cmp	r3, #0
 8004794:	d106      	bne.n	80047a4 <HAL_TIM_IC_Init+0x2c>
 8004796:	687b      	ldr	r3, [r7, #4]
 8004798:	2200      	movs	r2, #0
 800479a:	f883 203c 	strb.w	r2, [r3, #60]	; 0x3c
 800479e:	6878      	ldr	r0, [r7, #4]
 80047a0:	f000 f839 	bl	8004816 <HAL_TIM_IC_MspInit>
 80047a4:	687b      	ldr	r3, [r7, #4]
 80047a6:	2202      	movs	r2, #2
 80047a8:	f883 203d 	strb.w	r2, [r3, #61]	; 0x3d
 80047ac:	687b      	ldr	r3, [r7, #4]
 80047ae:	681a      	ldr	r2, [r3, #0]
 80047b0:	687b      	ldr	r3, [r7, #4]
 80047b2:	3304      	adds	r3, #4
 80047b4:	4619      	mov	r1, r3
 80047b6:	4610      	mov	r0, r2
 80047b8:	f000 fc94 	bl	80050e4 <TIM_Base_SetConfig>
 80047bc:	687b      	ldr	r3, [r7, #4]
 80047be:	2201      	movs	r2, #1
 80047c0:	f883 2046 	strb.w	r2, [r3, #70]	; 0x46
 80047c4:	687b      	ldr	r3, [r7, #4]
 80047c6:	2201      	movs	r2, #1
 80047c8:	f883 203e 	strb.w	r2, [r3, #62]	; 0x3e
 80047cc:	687b      	ldr	r3, [r7, #4]
 80047ce:	2201      	movs	r2, #1
 80047d0:	f883 203f 	strb.w	r2, [r3, #63]	; 0x3f
 80047d4:	687b      	ldr	r3, [r7, #4]
 80047d6:	2201      	movs	r2, #1
 80047d8:	f883 2040 	strb.w	r2, [r3, #64]	; 0x40
 80047dc:	687b      	ldr	r3, [r7, #4]
 80047de:	2201      	movs	r2, #1
 80047e0:	f883 2041 	strb.w	r2, [r3, #65]	; 0x41
 80047e4:	687b      	ldr	r3, [r7, #4]
 80047e6:	2201      	movs	r2, #1
 80047e8:	f883 2042 	strb.w	r2, [r3, #66]	; 0x42
 80047ec:	687b      	ldr	r3, [r7, #4]
 80047ee:	2201      	movs	r2, #1
 80047f0:	f883 2043 	strb.w	r2, [r3, #67]	; 0x43
 80047f4:	687b      	ldr	r3, [r7, #4]
 80047f6:	2201      	movs	r2, #1
 80047f8:	f883 2044 	strb.w	r2, [r3, #68]	; 0x44
 80047fc:	687b      	ldr	r3, [r7, #4]
 80047fe:	2201      	movs	r2, #1
 8004800:	f883 2045 	strb.w	r2, [r3, #69]	; 0x45
 8004804:	687b      	ldr	r3, [r7, #4]
 8004806:	2201      	movs	r2, #1
 8004808:	f883 203d 	strb.w	r2, [r3, #61]	; 0x3d
 800480c:	2300      	movs	r3, #0
 800480e:	4618      	mov	r0, r3
 8004810:	3708      	adds	r7, #8
 8004812:	46bd      	mov	sp, r7
 8004814:	bd80      	pop	{r7, pc}

08004816 <HAL_TIM_IC_MspInit>:
 8004816:	b480      	push	{r7}
 8004818:	b083      	sub	sp, #12
 800481a:	af00      	add	r7, sp, #0
 800481c:	6078      	str	r0, [r7, #4]
 800481e:	bf00      	nop
 8004820:	370c      	adds	r7, #12
 8004822:	46bd      	mov	sp, r7
 8004824:	bc80      	pop	{r7}
 8004826:	4770      	bx	lr

08004828 <HAL_TIM_IC_Start_IT>:
 8004828:	b580      	push	{r7, lr}
 800482a:	b084      	sub	sp, #16
 800482c:	af00      	add	r7, sp, #0
 800482e:	6078      	str	r0, [r7, #4]
 8004830:	6039      	str	r1, [r7, #0]
 8004832:	2300      	movs	r3, #0
 8004834:	73fb      	strb	r3, [r7, #15]
 8004836:	683b      	ldr	r3, [r7, #0]
 8004838:	2b00      	cmp	r3, #0
 800483a:	d104      	bne.n	8004846 <HAL_TIM_IC_Start_IT+0x1e>
 800483c:	687b      	ldr	r3, [r7, #4]
 800483e:	f893 303e 	ldrb.w	r3, [r3, #62]	; 0x3e
 8004842:	b2db      	uxtb	r3, r3
 8004844:	e013      	b.n	800486e <HAL_TIM_IC_Start_IT+0x46>
 8004846:	683b      	ldr	r3, [r7, #0]
 8004848:	2b04      	cmp	r3, #4
 800484a:	d104      	bne.n	8004856 <HAL_TIM_IC_Start_IT+0x2e>
 800484c:	687b      	ldr	r3, [r7, #4]
 800484e:	f893 303f 	ldrb.w	r3, [r3, #63]	; 0x3f
 8004852:	b2db      	uxtb	r3, r3
 8004854:	e00b      	b.n	800486e <HAL_TIM_IC_Start_IT+0x46>
 8004856:	683b      	ldr	r3, [r7, #0]
 8004858:	2b08      	cmp	r3, #8
 800485a:	d104      	bne.n	8004866 <HAL_TIM_IC_Start_IT+0x3e>
 800485c:	687b      	ldr	r3, [r7, #4]
 800485e:	f893 3040 	ldrb.w	r3, [r3, #64]	; 0x40
 8004862:	b2db      	uxtb	r3, r3
 8004864:	e003      	b.n	800486e <HAL_TIM_IC_Start_IT+0x46>
 8004866:	687b      	ldr	r3, [r7, #4]
 8004868:	f893 3041 	ldrb.w	r3, [r3, #65]	; 0x41
 800486c:	b2db      	uxtb	r3, r3
 800486e:	73bb      	strb	r3, [r7, #14]
 8004870:	683b      	ldr	r3, [r7, #0]
 8004872:	2b00      	cmp	r3, #0
 8004874:	d104      	bne.n	8004880 <HAL_TIM_IC_Start_IT+0x58>
 8004876:	687b      	ldr	r3, [r7, #4]
 8004878:	f893 3042 	ldrb.w	r3, [r3, #66]	; 0x42
 800487c:	b2db      	uxtb	r3, r3
 800487e:	e013      	b.n	80048a8 <HAL_TIM_IC_Start_IT+0x80>
 8004880:	683b      	ldr	r3, [r7, #0]
 8004882:	2b04      	cmp	r3, #4
 8004884:	d104      	bne.n	8004890 <HAL_TIM_IC_Start_IT+0x68>
 8004886:	687b      	ldr	r3, [r7, #4]
 8004888:	f893 3043 	ldrb.w	r3, [r3, #67]	; 0x43
 800488c:	b2db      	uxtb	r3, r3
 800488e:	e00b      	b.n	80048a8 <HAL_TIM_IC_Start_IT+0x80>
 8004890:	683b      	ldr	r3, [r7, #0]
 8004892:	2b08      	cmp	r3, #8
 8004894:	d104      	bne.n	80048a0 <HAL_TIM_IC_Start_IT+0x78>
 8004896:	687b      	ldr	r3, [r7, #4]
 8004898:	f893 3044 	ldrb.w	r3, [r3, #68]	; 0x44
 800489c:	b2db      	uxtb	r3, r3
 800489e:	e003      	b.n	80048a8 <HAL_TIM_IC_Start_IT+0x80>
 80048a0:	687b      	ldr	r3, [r7, #4]
 80048a2:	f893 3045 	ldrb.w	r3, [r3, #69]	; 0x45
 80048a6:	b2db      	uxtb	r3, r3
 80048a8:	737b      	strb	r3, [r7, #13]
 80048aa:	7bbb      	ldrb	r3, [r7, #14]
 80048ac:	2b01      	cmp	r3, #1
 80048ae:	d102      	bne.n	80048b6 <HAL_TIM_IC_Start_IT+0x8e>
 80048b0:	7b7b      	ldrb	r3, [r7, #13]
 80048b2:	2b01      	cmp	r3, #1
 80048b4:	d001      	beq.n	80048ba <HAL_TIM_IC_Start_IT+0x92>
 80048b6:	2301      	movs	r3, #1
 80048b8:	e0b8      	b.n	8004a2c <HAL_TIM_IC_Start_IT+0x204>
 80048ba:	683b      	ldr	r3, [r7, #0]
 80048bc:	2b00      	cmp	r3, #0
 80048be:	d104      	bne.n	80048ca <HAL_TIM_IC_Start_IT+0xa2>
 80048c0:	687b      	ldr	r3, [r7, #4]
 80048c2:	2202      	movs	r2, #2
 80048c4:	f883 203e 	strb.w	r2, [r3, #62]	; 0x3e
 80048c8:	e013      	b.n	80048f2 <HAL_TIM_IC_Start_IT+0xca>
 80048ca:	683b      	ldr	r3, [r7, #0]
 80048cc:	2b04      	cmp	r3, #4
 80048ce:	d104      	bne.n	80048da <HAL_TIM_IC_Start_IT+0xb2>
 80048d0:	687b      	ldr	r3, [r7, #4]
 80048d2:	2202      	movs	r2, #2
 80048d4:	f883 203f 	strb.w	r2, [r3, #63]	; 0x3f
 80048d8:	e00b      	b.n	80048f2 <HAL_TIM_IC_Start_IT+0xca>
 80048da:	683b      	ldr	r3, [r7, #0]
 80048dc:	2b08      	cmp	r3, #8
 80048de:	d104      	bne.n	80048ea <HAL_TIM_IC_Start_IT+0xc2>
 80048e0:	687b      	ldr	r3, [r7, #4]
 80048e2:	2202      	movs	r2, #2
 80048e4:	f883 2040 	strb.w	r2, [r3, #64]	; 0x40
 80048e8:	e003      	b.n	80048f2 <HAL_TIM_IC_Start_IT+0xca>
 80048ea:	687b      	ldr	r3, [r7, #4]
 80048ec:	2202      	movs	r2, #2
 80048ee:	f883 2041 	strb.w	r2, [r3, #65]	; 0x41
 80048f2:	683b      	ldr	r3, [r7, #0]
 80048f4:	2b00      	cmp	r3, #0
 80048f6:	d104      	bne.n	8004902 <HAL_TIM_IC_Start_IT+0xda>
 80048f8:	687b      	ldr	r3, [r7, #4]
 80048fa:	2202      	movs	r2, #2
 80048fc:	f883 2042 	strb.w	r2, [r3, #66]	; 0x42
 8004900:	e013      	b.n	800492a <HAL_TIM_IC_Start_IT+0x102>
 8004902:	683b      	ldr	r3, [r7, #0]
 8004904:	2b04      	cmp	r3, #4
 8004906:	d104      	bne.n	8004912 <HAL_TIM_IC_Start_IT+0xea>
 8004908:	687b      	ldr	r3, [r7, #4]
 800490a:	2202      	movs	r2, #2
 800490c:	f883 2043 	strb.w	r2, [r3, #67]	; 0x43
 8004910:	e00b      	b.n	800492a <HAL_TIM_IC_Start_IT+0x102>
 8004912:	683b      	ldr	r3, [r7, #0]
 8004914:	2b08      	cmp	r3, #8
 8004916:	d104      	bne.n	8004922 <HAL_TIM_IC_Start_IT+0xfa>
 8004918:	687b      	ldr	r3, [r7, #4]
 800491a:	2202      	movs	r2, #2
 800491c:	f883 2044 	strb.w	r2, [r3, #68]	; 0x44
 8004920:	e003      	b.n	800492a <HAL_TIM_IC_Start_IT+0x102>
 8004922:	687b      	ldr	r3, [r7, #4]
 8004924:	2202      	movs	r2, #2
 8004926:	f883 2045 	strb.w	r2, [r3, #69]	; 0x45
 800492a:	683b      	ldr	r3, [r7, #0]
 800492c:	2b0c      	cmp	r3, #12
 800492e:	d841      	bhi.n	80049b4 <HAL_TIM_IC_Start_IT+0x18c>
 8004930:	a201      	add	r2, pc, #4	; (adr r2, 8004938 <HAL_TIM_IC_Start_IT+0x110>)
 8004932:	f852 f023 	ldr.w	pc, [r2, r3, lsl #2]
 8004936:	bf00      	nop
 8004938:	0800496d 	.word	0x0800496d
 800493c:	080049b5 	.word	0x080049b5
 8004940:	080049b5 	.word	0x080049b5
 8004944:	080049b5 	.word	0x080049b5
 8004948:	0800497f 	.word	0x0800497f
 800494c:	080049b5 	.word	0x080049b5
 8004950:	080049b5 	.word	0x080049b5
 8004954:	080049b5 	.word	0x080049b5
 8004958:	08004991 	.word	0x08004991
 800495c:	080049b5 	.word	0x080049b5
 8004960:	080049b5 	.word	0x080049b5
 8004964:	080049b5 	.word	0x080049b5
 8004968:	080049a3 	.word	0x080049a3
 800496c:	687b      	ldr	r3, [r7, #4]
 800496e:	681b      	ldr	r3, [r3, #0]
 8004970:	68da      	ldr	r2, [r3, #12]
 8004972:	687b      	ldr	r3, [r7, #4]
 8004974:	681b      	ldr	r3, [r3, #0]
 8004976:	f042 0202 	orr.w	r2, r2, #2
 800497a:	60da      	str	r2, [r3, #12]
 800497c:	e01d      	b.n	80049ba <HAL_TIM_IC_Start_IT+0x192>
 800497e:	687b      	ldr	r3, [r7, #4]
 8004980:	681b      	ldr	r3, [r3, #0]
 8004982:	68da      	ldr	r2, [r3, #12]
 8004984:	687b      	ldr	r3, [r7, #4]
 8004986:	681b      	ldr	r3, [r3, #0]
 8004988:	f042 0204 	orr.w	r2, r2, #4
 800498c:	60da      	str	r2, [r3, #12]
 800498e:	e014      	b.n	80049ba <HAL_TIM_IC_Start_IT+0x192>
 8004990:	687b      	ldr	r3, [r7, #4]
 8004992:	681b      	ldr	r3, [r3, #0]
 8004994:	68da      	ldr	r2, [r3, #12]
 8004996:	687b      	ldr	r3, [r7, #4]
 8004998:	681b      	ldr	r3, [r3, #0]
 800499a:	f042 0208 	orr.w	r2, r2, #8
 800499e:	60da      	str	r2, [r3, #12]
 80049a0:	e00b      	b.n	80049ba <HAL_TIM_IC_Start_IT+0x192>
 80049a2:	687b      	ldr	r3, [r7, #4]
 80049a4:	681b      	ldr	r3, [r3, #0]
 80049a6:	68da      	ldr	r2, [r3, #12]
 80049a8:	687b      	ldr	r3, [r7, #4]
 80049aa:	681b      	ldr	r3, [r3, #0]
 80049ac:	f042 0210 	orr.w	r2, r2, #16
 80049b0:	60da      	str	r2, [r3, #12]
 80049b2:	e002      	b.n	80049ba <HAL_TIM_IC_Start_IT+0x192>
 80049b4:	2301      	movs	r3, #1
 80049b6:	73fb      	strb	r3, [r7, #15]
 80049b8:	bf00      	nop
 80049ba:	7bfb      	ldrb	r3, [r7, #15]
 80049bc:	2b00      	cmp	r3, #0
 80049be:	d134      	bne.n	8004a2a <HAL_TIM_IC_Start_IT+0x202>
 80049c0:	687b      	ldr	r3, [r7, #4]
 80049c2:	681b      	ldr	r3, [r3, #0]
 80049c4:	2201      	movs	r2, #1
 80049c6:	6839      	ldr	r1, [r7, #0]
 80049c8:	4618      	mov	r0, r3
 80049ca:	f000 ff18 	bl	80057fe <TIM_CCxChannelCmd>
 80049ce:	687b      	ldr	r3, [r7, #4]
 80049d0:	681b      	ldr	r3, [r3, #0]
 80049d2:	4a18      	ldr	r2, [pc, #96]	; (8004a34 <HAL_TIM_IC_Start_IT+0x20c>)
 80049d4:	4293      	cmp	r3, r2
 80049d6:	d00e      	beq.n	80049f6 <HAL_TIM_IC_Start_IT+0x1ce>
 80049d8:	687b      	ldr	r3, [r7, #4]
 80049da:	681b      	ldr	r3, [r3, #0]
 80049dc:	f1b3 4f80 	cmp.w	r3, #1073741824	; 0x40000000
 80049e0:	d009      	beq.n	80049f6 <HAL_TIM_IC_Start_IT+0x1ce>
 80049e2:	687b      	ldr	r3, [r7, #4]
 80049e4:	681b      	ldr	r3, [r3, #0]
 80049e6:	4a14      	ldr	r2, [pc, #80]	; (8004a38 <HAL_TIM_IC_Start_IT+0x210>)
 80049e8:	4293      	cmp	r3, r2
 80049ea:	d004      	beq.n	80049f6 <HAL_TIM_IC_Start_IT+0x1ce>
 80049ec:	687b      	ldr	r3, [r7, #4]
 80049ee:	681b      	ldr	r3, [r3, #0]
 80049f0:	4a12      	ldr	r2, [pc, #72]	; (8004a3c <HAL_TIM_IC_Start_IT+0x214>)
 80049f2:	4293      	cmp	r3, r2
 80049f4:	d111      	bne.n	8004a1a <HAL_TIM_IC_Start_IT+0x1f2>
 80049f6:	687b      	ldr	r3, [r7, #4]
 80049f8:	681b      	ldr	r3, [r3, #0]
 80049fa:	689b      	ldr	r3, [r3, #8]
 80049fc:	f003 0307 	and.w	r3, r3, #7
 8004a00:	60bb      	str	r3, [r7, #8]
 8004a02:	68bb      	ldr	r3, [r7, #8]
 8004a04:	2b06      	cmp	r3, #6
 8004a06:	d010      	beq.n	8004a2a <HAL_TIM_IC_Start_IT+0x202>
 8004a08:	687b      	ldr	r3, [r7, #4]
 8004a0a:	681b      	ldr	r3, [r3, #0]
 8004a0c:	681a      	ldr	r2, [r3, #0]
 8004a0e:	687b      	ldr	r3, [r7, #4]
 8004a10:	681b      	ldr	r3, [r3, #0]
 8004a12:	f042 0201 	orr.w	r2, r2, #1
 8004a16:	601a      	str	r2, [r3, #0]
 8004a18:	e007      	b.n	8004a2a <HAL_TIM_IC_Start_IT+0x202>
 8004a1a:	687b      	ldr	r3, [r7, #4]
 8004a1c:	681b      	ldr	r3, [r3, #0]
 8004a1e:	681a      	ldr	r2, [r3, #0]
 8004a20:	687b      	ldr	r3, [r7, #4]
 8004a22:	681b      	ldr	r3, [r3, #0]
 8004a24:	f042 0201 	orr.w	r2, r2, #1
 8004a28:	601a      	str	r2, [r3, #0]
 8004a2a:	7bfb      	ldrb	r3, [r7, #15]
 8004a2c:	4618      	mov	r0, r3
 8004a2e:	3710      	adds	r7, #16
 8004a30:	46bd      	mov	sp, r7
 8004a32:	bd80      	pop	{r7, pc}
 8004a34:	40012c00 	.word	0x40012c00
 8004a38:	40000400 	.word	0x40000400
 8004a3c:	40000800 	.word	0x40000800

08004a40 <HAL_TIM_IRQHandler>:
 8004a40:	b580      	push	{r7, lr}
 8004a42:	b082      	sub	sp, #8
 8004a44:	af00      	add	r7, sp, #0
 8004a46:	6078      	str	r0, [r7, #4]
 8004a48:	687b      	ldr	r3, [r7, #4]
 8004a4a:	681b      	ldr	r3, [r3, #0]
 8004a4c:	691b      	ldr	r3, [r3, #16]
 8004a4e:	f003 0302 	and.w	r3, r3, #2
 8004a52:	2b02      	cmp	r3, #2
 8004a54:	d122      	bne.n	8004a9c <HAL_TIM_IRQHandler+0x5c>
 8004a56:	687b      	ldr	r3, [r7, #4]
 8004a58:	681b      	ldr	r3, [r3, #0]
 8004a5a:	68db      	ldr	r3, [r3, #12]
 8004a5c:	f003 0302 	and.w	r3, r3, #2
 8004a60:	2b02      	cmp	r3, #2
 8004a62:	d11b      	bne.n	8004a9c <HAL_TIM_IRQHandler+0x5c>
 8004a64:	687b      	ldr	r3, [r7, #4]
 8004a66:	681b      	ldr	r3, [r3, #0]
 8004a68:	f06f 0202 	mvn.w	r2, #2
 8004a6c:	611a      	str	r2, [r3, #16]
 8004a6e:	687b      	ldr	r3, [r7, #4]
 8004a70:	2201      	movs	r2, #1
 8004a72:	771a      	strb	r2, [r3, #28]
 8004a74:	687b      	ldr	r3, [r7, #4]
 8004a76:	681b      	ldr	r3, [r3, #0]
 8004a78:	699b      	ldr	r3, [r3, #24]
 8004a7a:	f003 0303 	and.w	r3, r3, #3
 8004a7e:	2b00      	cmp	r3, #0
 8004a80:	d003      	beq.n	8004a8a <HAL_TIM_IRQHandler+0x4a>
 8004a82:	6878      	ldr	r0, [r7, #4]
 8004a84:	f7fc fc3a 	bl	80012fc <HAL_TIM_IC_CaptureCallback>
 8004a88:	e005      	b.n	8004a96 <HAL_TIM_IRQHandler+0x56>
 8004a8a:	6878      	ldr	r0, [r7, #4]
 8004a8c:	f000 fb0e 	bl	80050ac <HAL_TIM_OC_DelayElapsedCallback>
 8004a90:	6878      	ldr	r0, [r7, #4]
 8004a92:	f000 fb14 	bl	80050be <HAL_TIM_PWM_PulseFinishedCallback>
 8004a96:	687b      	ldr	r3, [r7, #4]
 8004a98:	2200      	movs	r2, #0
 8004a9a:	771a      	strb	r2, [r3, #28]
 8004a9c:	687b      	ldr	r3, [r7, #4]
 8004a9e:	681b      	ldr	r3, [r3, #0]
 8004aa0:	691b      	ldr	r3, [r3, #16]
 8004aa2:	f003 0304 	and.w	r3, r3, #4
 8004aa6:	2b04      	cmp	r3, #4
 8004aa8:	d122      	bne.n	8004af0 <HAL_TIM_IRQHandler+0xb0>
 8004aaa:	687b      	ldr	r3, [r7, #4]
 8004aac:	681b      	ldr	r3, [r3, #0]
 8004aae:	68db      	ldr	r3, [r3, #12]
 8004ab0:	f003 0304 	and.w	r3, r3, #4
 8004ab4:	2b04      	cmp	r3, #4
 8004ab6:	d11b      	bne.n	8004af0 <HAL_TIM_IRQHandler+0xb0>
 8004ab8:	687b      	ldr	r3, [r7, #4]
 8004aba:	681b      	ldr	r3, [r3, #0]
 8004abc:	f06f 0204 	mvn.w	r2, #4
 8004ac0:	611a      	str	r2, [r3, #16]
 8004ac2:	687b      	ldr	r3, [r7, #4]
 8004ac4:	2202      	movs	r2, #2
 8004ac6:	771a      	strb	r2, [r3, #28]
 8004ac8:	687b      	ldr	r3, [r7, #4]
 8004aca:	681b      	ldr	r3, [r3, #0]
 8004acc:	699b      	ldr	r3, [r3, #24]
 8004ace:	f403 7340 	and.w	r3, r3, #768	; 0x300
 8004ad2:	2b00      	cmp	r3, #0
 8004ad4:	d003      	beq.n	8004ade <HAL_TIM_IRQHandler+0x9e>
 8004ad6:	6878      	ldr	r0, [r7, #4]
 8004ad8:	f7fc fc10 	bl	80012fc <HAL_TIM_IC_CaptureCallback>
 8004adc:	e005      	b.n	8004aea <HAL_TIM_IRQHandler+0xaa>
 8004ade:	6878      	ldr	r0, [r7, #4]
 8004ae0:	f000 fae4 	bl	80050ac <HAL_TIM_OC_DelayElapsedCallback>
 8004ae4:	6878      	ldr	r0, [r7, #4]
 8004ae6:	f000 faea 	bl	80050be <HAL_TIM_PWM_PulseFinishedCallback>
 8004aea:	687b      	ldr	r3, [r7, #4]
 8004aec:	2200      	movs	r2, #0
 8004aee:	771a      	strb	r2, [r3, #28]
 8004af0:	687b      	ldr	r3, [r7, #4]
 8004af2:	681b      	ldr	r3, [r3, #0]
 8004af4:	691b      	ldr	r3, [r3, #16]
 8004af6:	f003 0308 	and.w	r3, r3, #8
 8004afa:	2b08      	cmp	r3, #8
 8004afc:	d122      	bne.n	8004b44 <HAL_TIM_IRQHandler+0x104>
 8004afe:	687b      	ldr	r3, [r7, #4]
 8004b00:	681b      	ldr	r3, [r3, #0]
 8004b02:	68db      	ldr	r3, [r3, #12]
 8004b04:	f003 0308 	and.w	r3, r3, #8
 8004b08:	2b08      	cmp	r3, #8
 8004b0a:	d11b      	bne.n	8004b44 <HAL_TIM_IRQHandler+0x104>
 8004b0c:	687b      	ldr	r3, [r7, #4]
 8004b0e:	681b      	ldr	r3, [r3, #0]
 8004b10:	f06f 0208 	mvn.w	r2, #8
 8004b14:	611a      	str	r2, [r3, #16]
 8004b16:	687b      	ldr	r3, [r7, #4]
 8004b18:	2204      	movs	r2, #4
 8004b1a:	771a      	strb	r2, [r3, #28]
 8004b1c:	687b      	ldr	r3, [r7, #4]
 8004b1e:	681b      	ldr	r3, [r3, #0]
 8004b20:	69db      	ldr	r3, [r3, #28]
 8004b22:	f003 0303 	and.w	r3, r3, #3
 8004b26:	2b00      	cmp	r3, #0
 8004b28:	d003      	beq.n	8004b32 <HAL_TIM_IRQHandler+0xf2>
 8004b2a:	6878      	ldr	r0, [r7, #4]
 8004b2c:	f7fc fbe6 	bl	80012fc <HAL_TIM_IC_CaptureCallback>
 8004b30:	e005      	b.n	8004b3e <HAL_TIM_IRQHandler+0xfe>
 8004b32:	6878      	ldr	r0, [r7, #4]
 8004b34:	f000 faba 	bl	80050ac <HAL_TIM_OC_DelayElapsedCallback>
 8004b38:	6878      	ldr	r0, [r7, #4]
 8004b3a:	f000 fac0 	bl	80050be <HAL_TIM_PWM_PulseFinishedCallback>
 8004b3e:	687b      	ldr	r3, [r7, #4]
 8004b40:	2200      	movs	r2, #0
 8004b42:	771a      	strb	r2, [r3, #28]
 8004b44:	687b      	ldr	r3, [r7, #4]
 8004b46:	681b      	ldr	r3, [r3, #0]
 8004b48:	691b      	ldr	r3, [r3, #16]
 8004b4a:	f003 0310 	and.w	r3, r3, #16
 8004b4e:	2b10      	cmp	r3, #16
 8004b50:	d122      	bne.n	8004b98 <HAL_TIM_IRQHandler+0x158>
 8004b52:	687b      	ldr	r3, [r7, #4]
 8004b54:	681b      	ldr	r3, [r3, #0]
 8004b56:	68db      	ldr	r3, [r3, #12]
 8004b58:	f003 0310 	and.w	r3, r3, #16
 8004b5c:	2b10      	cmp	r3, #16
 8004b5e:	d11b      	bne.n	8004b98 <HAL_TIM_IRQHandler+0x158>
 8004b60:	687b      	ldr	r3, [r7, #4]
 8004b62:	681b      	ldr	r3, [r3, #0]
 8004b64:	f06f 0210 	mvn.w	r2, #16
 8004b68:	611a      	str	r2, [r3, #16]
 8004b6a:	687b      	ldr	r3, [r7, #4]
 8004b6c:	2208      	movs	r2, #8
 8004b6e:	771a      	strb	r2, [r3, #28]
 8004b70:	687b      	ldr	r3, [r7, #4]
 8004b72:	681b      	ldr	r3, [r3, #0]
 8004b74:	69db      	ldr	r3, [r3, #28]
 8004b76:	f403 7340 	and.w	r3, r3, #768	; 0x300
 8004b7a:	2b00      	cmp	r3, #0
 8004b7c:	d003      	beq.n	8004b86 <HAL_TIM_IRQHandler+0x146>
 8004b7e:	6878      	ldr	r0, [r7, #4]
 8004b80:	f7fc fbbc 	bl	80012fc <HAL_TIM_IC_CaptureCallback>
 8004b84:	e005      	b.n	8004b92 <HAL_TIM_IRQHandler+0x152>
 8004b86:	6878      	ldr	r0, [r7, #4]
 8004b88:	f000 fa90 	bl	80050ac <HAL_TIM_OC_DelayElapsedCallback>
 8004b8c:	6878      	ldr	r0, [r7, #4]
 8004b8e:	f000 fa96 	bl	80050be <HAL_TIM_PWM_PulseFinishedCallback>
 8004b92:	687b      	ldr	r3, [r7, #4]
 8004b94:	2200      	movs	r2, #0
 8004b96:	771a      	strb	r2, [r3, #28]
 8004b98:	687b      	ldr	r3, [r7, #4]
 8004b9a:	681b      	ldr	r3, [r3, #0]
 8004b9c:	691b      	ldr	r3, [r3, #16]
 8004b9e:	f003 0301 	and.w	r3, r3, #1
 8004ba2:	2b01      	cmp	r3, #1
 8004ba4:	d10e      	bne.n	8004bc4 <HAL_TIM_IRQHandler+0x184>
 8004ba6:	687b      	ldr	r3, [r7, #4]
 8004ba8:	681b      	ldr	r3, [r3, #0]
 8004baa:	68db      	ldr	r3, [r3, #12]
 8004bac:	f003 0301 	and.w	r3, r3, #1
 8004bb0:	2b01      	cmp	r3, #1
 8004bb2:	d107      	bne.n	8004bc4 <HAL_TIM_IRQHandler+0x184>
 8004bb4:	687b      	ldr	r3, [r7, #4]
 8004bb6:	681b      	ldr	r3, [r3, #0]
 8004bb8:	f06f 0201 	mvn.w	r2, #1
 8004bbc:	611a      	str	r2, [r3, #16]
 8004bbe:	6878      	ldr	r0, [r7, #4]
 8004bc0:	f000 fa6b 	bl	800509a <HAL_TIM_PeriodElapsedCallback>
 8004bc4:	687b      	ldr	r3, [r7, #4]
 8004bc6:	681b      	ldr	r3, [r3, #0]
 8004bc8:	691b      	ldr	r3, [r3, #16]
 8004bca:	f003 0380 	and.w	r3, r3, #128	; 0x80
 8004bce:	2b80      	cmp	r3, #128	; 0x80
 8004bd0:	d10e      	bne.n	8004bf0 <HAL_TIM_IRQHandler+0x1b0>
 8004bd2:	687b      	ldr	r3, [r7, #4]
 8004bd4:	681b      	ldr	r3, [r3, #0]
 8004bd6:	68db      	ldr	r3, [r3, #12]
 8004bd8:	f003 0380 	and.w	r3, r3, #128	; 0x80
 8004bdc:	2b80      	cmp	r3, #128	; 0x80
 8004bde:	d107      	bne.n	8004bf0 <HAL_TIM_IRQHandler+0x1b0>
 8004be0:	687b      	ldr	r3, [r7, #4]
 8004be2:	681b      	ldr	r3, [r3, #0]
 8004be4:	f06f 0280 	mvn.w	r2, #128	; 0x80
 8004be8:	611a      	str	r2, [r3, #16]
 8004bea:	6878      	ldr	r0, [r7, #4]
 8004bec:	f000 fee4 	bl	80059b8 <HAL_TIMEx_BreakCallback>
 8004bf0:	687b      	ldr	r3, [r7, #4]
 8004bf2:	681b      	ldr	r3, [r3, #0]
 8004bf4:	691b      	ldr	r3, [r3, #16]
 8004bf6:	f003 0340 	and.w	r3, r3, #64	; 0x40
 8004bfa:	2b40      	cmp	r3, #64	; 0x40
 8004bfc:	d10e      	bne.n	8004c1c <HAL_TIM_IRQHandler+0x1dc>
 8004bfe:	687b      	ldr	r3, [r7, #4]
 8004c00:	681b      	ldr	r3, [r3, #0]
 8004c02:	68db      	ldr	r3, [r3, #12]
 8004c04:	f003 0340 	and.w	r3, r3, #64	; 0x40
 8004c08:	2b40      	cmp	r3, #64	; 0x40
 8004c0a:	d107      	bne.n	8004c1c <HAL_TIM_IRQHandler+0x1dc>
 8004c0c:	687b      	ldr	r3, [r7, #4]
 8004c0e:	681b      	ldr	r3, [r3, #0]
 8004c10:	f06f 0240 	mvn.w	r2, #64	; 0x40
 8004c14:	611a      	str	r2, [r3, #16]
 8004c16:	6878      	ldr	r0, [r7, #4]
 8004c18:	f000 fa5a 	bl	80050d0 <HAL_TIM_TriggerCallback>
 8004c1c:	687b      	ldr	r3, [r7, #4]
 8004c1e:	681b      	ldr	r3, [r3, #0]
 8004c20:	691b      	ldr	r3, [r3, #16]
 8004c22:	f003 0320 	and.w	r3, r3, #32
 8004c26:	2b20      	cmp	r3, #32
 8004c28:	d10e      	bne.n	8004c48 <HAL_TIM_IRQHandler+0x208>
 8004c2a:	687b      	ldr	r3, [r7, #4]
 8004c2c:	681b      	ldr	r3, [r3, #0]
 8004c2e:	68db      	ldr	r3, [r3, #12]
 8004c30:	f003 0320 	and.w	r3, r3, #32
 8004c34:	2b20      	cmp	r3, #32
 8004c36:	d107      	bne.n	8004c48 <HAL_TIM_IRQHandler+0x208>
 8004c38:	687b      	ldr	r3, [r7, #4]
 8004c3a:	681b      	ldr	r3, [r3, #0]
 8004c3c:	f06f 0220 	mvn.w	r2, #32
 8004c40:	611a      	str	r2, [r3, #16]
 8004c42:	6878      	ldr	r0, [r7, #4]
 8004c44:	f000 feaf 	bl	80059a6 <HAL_TIMEx_CommutCallback>
 8004c48:	bf00      	nop
 8004c4a:	3708      	adds	r7, #8
 8004c4c:	46bd      	mov	sp, r7
 8004c4e:	bd80      	pop	{r7, pc}

08004c50 <HAL_TIM_IC_ConfigChannel>:
 8004c50:	b580      	push	{r7, lr}
 8004c52:	b086      	sub	sp, #24
 8004c54:	af00      	add	r7, sp, #0
 8004c56:	60f8      	str	r0, [r7, #12]
 8004c58:	60b9      	str	r1, [r7, #8]
 8004c5a:	607a      	str	r2, [r7, #4]
 8004c5c:	2300      	movs	r3, #0
 8004c5e:	75fb      	strb	r3, [r7, #23]
 8004c60:	68fb      	ldr	r3, [r7, #12]
 8004c62:	f893 303c 	ldrb.w	r3, [r3, #60]	; 0x3c
 8004c66:	2b01      	cmp	r3, #1
 8004c68:	d101      	bne.n	8004c6e <HAL_TIM_IC_ConfigChannel+0x1e>
 8004c6a:	2302      	movs	r3, #2
 8004c6c:	e088      	b.n	8004d80 <HAL_TIM_IC_ConfigChannel+0x130>
 8004c6e:	68fb      	ldr	r3, [r7, #12]
 8004c70:	2201      	movs	r2, #1
 8004c72:	f883 203c 	strb.w	r2, [r3, #60]	; 0x3c
 8004c76:	687b      	ldr	r3, [r7, #4]
 8004c78:	2b00      	cmp	r3, #0
 8004c7a:	d11b      	bne.n	8004cb4 <HAL_TIM_IC_ConfigChannel+0x64>
 8004c7c:	68fb      	ldr	r3, [r7, #12]
 8004c7e:	6818      	ldr	r0, [r3, #0]
 8004c80:	68bb      	ldr	r3, [r7, #8]
 8004c82:	6819      	ldr	r1, [r3, #0]
 8004c84:	68bb      	ldr	r3, [r7, #8]
 8004c86:	685a      	ldr	r2, [r3, #4]
 8004c88:	68bb      	ldr	r3, [r7, #8]
 8004c8a:	68db      	ldr	r3, [r3, #12]
 8004c8c:	f000 fc14 	bl	80054b8 <TIM_TI1_SetConfig>
 8004c90:	68fb      	ldr	r3, [r7, #12]
 8004c92:	681b      	ldr	r3, [r3, #0]
 8004c94:	699a      	ldr	r2, [r3, #24]
 8004c96:	68fb      	ldr	r3, [r7, #12]
 8004c98:	681b      	ldr	r3, [r3, #0]
 8004c9a:	f022 020c 	bic.w	r2, r2, #12
 8004c9e:	619a      	str	r2, [r3, #24]
 8004ca0:	68fb      	ldr	r3, [r7, #12]
 8004ca2:	681b      	ldr	r3, [r3, #0]
 8004ca4:	6999      	ldr	r1, [r3, #24]
 8004ca6:	68bb      	ldr	r3, [r7, #8]
 8004ca8:	689a      	ldr	r2, [r3, #8]
 8004caa:	68fb      	ldr	r3, [r7, #12]
 8004cac:	681b      	ldr	r3, [r3, #0]
 8004cae:	430a      	orrs	r2, r1
 8004cb0:	619a      	str	r2, [r3, #24]
 8004cb2:	e060      	b.n	8004d76 <HAL_TIM_IC_ConfigChannel+0x126>
 8004cb4:	687b      	ldr	r3, [r7, #4]
 8004cb6:	2b04      	cmp	r3, #4
 8004cb8:	d11c      	bne.n	8004cf4 <HAL_TIM_IC_ConfigChannel+0xa4>
 8004cba:	68fb      	ldr	r3, [r7, #12]
 8004cbc:	6818      	ldr	r0, [r3, #0]
 8004cbe:	68bb      	ldr	r3, [r7, #8]
 8004cc0:	6819      	ldr	r1, [r3, #0]
 8004cc2:	68bb      	ldr	r3, [r7, #8]
 8004cc4:	685a      	ldr	r2, [r3, #4]
 8004cc6:	68bb      	ldr	r3, [r7, #8]
 8004cc8:	68db      	ldr	r3, [r3, #12]
 8004cca:	f000 fc7d 	bl	80055c8 <TIM_TI2_SetConfig>
 8004cce:	68fb      	ldr	r3, [r7, #12]
 8004cd0:	681b      	ldr	r3, [r3, #0]
 8004cd2:	699a      	ldr	r2, [r3, #24]
 8004cd4:	68fb      	ldr	r3, [r7, #12]
 8004cd6:	681b      	ldr	r3, [r3, #0]
 8004cd8:	f422 6240 	bic.w	r2, r2, #3072	; 0xc00
 8004cdc:	619a      	str	r2, [r3, #24]
 8004cde:	68fb      	ldr	r3, [r7, #12]
 8004ce0:	681b      	ldr	r3, [r3, #0]
 8004ce2:	6999      	ldr	r1, [r3, #24]
 8004ce4:	68bb      	ldr	r3, [r7, #8]
 8004ce6:	689b      	ldr	r3, [r3, #8]
 8004ce8:	021a      	lsls	r2, r3, #8
 8004cea:	68fb      	ldr	r3, [r7, #12]
 8004cec:	681b      	ldr	r3, [r3, #0]
 8004cee:	430a      	orrs	r2, r1
 8004cf0:	619a      	str	r2, [r3, #24]
 8004cf2:	e040      	b.n	8004d76 <HAL_TIM_IC_ConfigChannel+0x126>
 8004cf4:	687b      	ldr	r3, [r7, #4]
 8004cf6:	2b08      	cmp	r3, #8
 8004cf8:	d11b      	bne.n	8004d32 <HAL_TIM_IC_ConfigChannel+0xe2>
 8004cfa:	68fb      	ldr	r3, [r7, #12]
 8004cfc:	6818      	ldr	r0, [r3, #0]
 8004cfe:	68bb      	ldr	r3, [r7, #8]
 8004d00:	6819      	ldr	r1, [r3, #0]
 8004d02:	68bb      	ldr	r3, [r7, #8]
 8004d04:	685a      	ldr	r2, [r3, #4]
 8004d06:	68bb      	ldr	r3, [r7, #8]
 8004d08:	68db      	ldr	r3, [r3, #12]
 8004d0a:	f000 fcc8 	bl	800569e <TIM_TI3_SetConfig>
 8004d0e:	68fb      	ldr	r3, [r7, #12]
 8004d10:	681b      	ldr	r3, [r3, #0]
 8004d12:	69da      	ldr	r2, [r3, #28]
 8004d14:	68fb      	ldr	r3, [r7, #12]
 8004d16:	681b      	ldr	r3, [r3, #0]
 8004d18:	f022 020c 	bic.w	r2, r2, #12
 8004d1c:	61da      	str	r2, [r3, #28]
 8004d1e:	68fb      	ldr	r3, [r7, #12]
 8004d20:	681b      	ldr	r3, [r3, #0]
 8004d22:	69d9      	ldr	r1, [r3, #28]
 8004d24:	68bb      	ldr	r3, [r7, #8]
 8004d26:	689a      	ldr	r2, [r3, #8]
 8004d28:	68fb      	ldr	r3, [r7, #12]
 8004d2a:	681b      	ldr	r3, [r3, #0]
 8004d2c:	430a      	orrs	r2, r1
 8004d2e:	61da      	str	r2, [r3, #28]
 8004d30:	e021      	b.n	8004d76 <HAL_TIM_IC_ConfigChannel+0x126>
 8004d32:	687b      	ldr	r3, [r7, #4]
 8004d34:	2b0c      	cmp	r3, #12
 8004d36:	d11c      	bne.n	8004d72 <HAL_TIM_IC_ConfigChannel+0x122>
 8004d38:	68fb      	ldr	r3, [r7, #12]
 8004d3a:	6818      	ldr	r0, [r3, #0]
 8004d3c:	68bb      	ldr	r3, [r7, #8]
 8004d3e:	6819      	ldr	r1, [r3, #0]
 8004d40:	68bb      	ldr	r3, [r7, #8]
 8004d42:	685a      	ldr	r2, [r3, #4]
 8004d44:	68bb      	ldr	r3, [r7, #8]
 8004d46:	68db      	ldr	r3, [r3, #12]
 8004d48:	f000 fce4 	bl	8005714 <TIM_TI4_SetConfig>
 8004d4c:	68fb      	ldr	r3, [r7, #12]
 8004d4e:	681b      	ldr	r3, [r3, #0]
 8004d50:	69da      	ldr	r2, [r3, #28]
 8004d52:	68fb      	ldr	r3, [r7, #12]
 8004d54:	681b      	ldr	r3, [r3, #0]
 8004d56:	f422 6240 	bic.w	r2, r2, #3072	; 0xc00
 8004d5a:	61da      	str	r2, [r3, #28]
 8004d5c:	68fb      	ldr	r3, [r7, #12]
 8004d5e:	681b      	ldr	r3, [r3, #0]
 8004d60:	69d9      	ldr	r1, [r3, #28]
 8004d62:	68bb      	ldr	r3, [r7, #8]
 8004d64:	689b      	ldr	r3, [r3, #8]
 8004d66:	021a      	lsls	r2, r3, #8
 8004d68:	68fb      	ldr	r3, [r7, #12]
 8004d6a:	681b      	ldr	r3, [r3, #0]
 8004d6c:	430a      	orrs	r2, r1
 8004d6e:	61da      	str	r2, [r3, #28]
 8004d70:	e001      	b.n	8004d76 <HAL_TIM_IC_ConfigChannel+0x126>
 8004d72:	2301      	movs	r3, #1
 8004d74:	75fb      	strb	r3, [r7, #23]
 8004d76:	68fb      	ldr	r3, [r7, #12]
 8004d78:	2200      	movs	r2, #0
 8004d7a:	f883 203c 	strb.w	r2, [r3, #60]	; 0x3c
 8004d7e:	7dfb      	ldrb	r3, [r7, #23]
 8004d80:	4618      	mov	r0, r3
 8004d82:	3718      	adds	r7, #24
 8004d84:	46bd      	mov	sp, r7
 8004d86:	bd80      	pop	{r7, pc}

08004d88 <HAL_TIM_PWM_ConfigChannel>:
 8004d88:	b580      	push	{r7, lr}
 8004d8a:	b086      	sub	sp, #24
 8004d8c:	af00      	add	r7, sp, #0
 8004d8e:	60f8      	str	r0, [r7, #12]
 8004d90:	60b9      	str	r1, [r7, #8]
 8004d92:	607a      	str	r2, [r7, #4]
 8004d94:	2300      	movs	r3, #0
 8004d96:	75fb      	strb	r3, [r7, #23]
 8004d98:	68fb      	ldr	r3, [r7, #12]
 8004d9a:	f893 303c 	ldrb.w	r3, [r3, #60]	; 0x3c
 8004d9e:	2b01      	cmp	r3, #1
 8004da0:	d101      	bne.n	8004da6 <HAL_TIM_PWM_ConfigChannel+0x1e>
 8004da2:	2302      	movs	r3, #2
 8004da4:	e0ae      	b.n	8004f04 <HAL_TIM_PWM_ConfigChannel+0x17c>
 8004da6:	68fb      	ldr	r3, [r7, #12]
 8004da8:	2201      	movs	r2, #1
 8004daa:	f883 203c 	strb.w	r2, [r3, #60]	; 0x3c
 8004dae:	687b      	ldr	r3, [r7, #4]
 8004db0:	2b0c      	cmp	r3, #12
 8004db2:	f200 809f 	bhi.w	8004ef4 <HAL_TIM_PWM_ConfigChannel+0x16c>
 8004db6:	a201      	add	r2, pc, #4	; (adr r2, 8004dbc <HAL_TIM_PWM_ConfigChannel+0x34>)
 8004db8:	f852 f023 	ldr.w	pc, [r2, r3, lsl #2]
 8004dbc:	08004df1 	.word	0x08004df1
 8004dc0:	08004ef5 	.word	0x08004ef5
 8004dc4:	08004ef5 	.word	0x08004ef5
 8004dc8:	08004ef5 	.word	0x08004ef5
 8004dcc:	08004e31 	.word	0x08004e31
 8004dd0:	08004ef5 	.word	0x08004ef5
 8004dd4:	08004ef5 	.word	0x08004ef5
 8004dd8:	08004ef5 	.word	0x08004ef5
 8004ddc:	08004e73 	.word	0x08004e73
 8004de0:	08004ef5 	.word	0x08004ef5
 8004de4:	08004ef5 	.word	0x08004ef5
 8004de8:	08004ef5 	.word	0x08004ef5
 8004dec:	08004eb3 	.word	0x08004eb3
 8004df0:	68fb      	ldr	r3, [r7, #12]
 8004df2:	681b      	ldr	r3, [r3, #0]
 8004df4:	68b9      	ldr	r1, [r7, #8]
 8004df6:	4618      	mov	r0, r3
 8004df8:	f000 f9d6 	bl	80051a8 <TIM_OC1_SetConfig>
 8004dfc:	68fb      	ldr	r3, [r7, #12]
 8004dfe:	681b      	ldr	r3, [r3, #0]
 8004e00:	699a      	ldr	r2, [r3, #24]
 8004e02:	68fb      	ldr	r3, [r7, #12]
 8004e04:	681b      	ldr	r3, [r3, #0]
 8004e06:	f042 0208 	orr.w	r2, r2, #8
 8004e0a:	619a      	str	r2, [r3, #24]
 8004e0c:	68fb      	ldr	r3, [r7, #12]
 8004e0e:	681b      	ldr	r3, [r3, #0]
 8004e10:	699a      	ldr	r2, [r3, #24]
 8004e12:	68fb      	ldr	r3, [r7, #12]
 8004e14:	681b      	ldr	r3, [r3, #0]
 8004e16:	f022 0204 	bic.w	r2, r2, #4
 8004e1a:	619a      	str	r2, [r3, #24]
 8004e1c:	68fb      	ldr	r3, [r7, #12]
 8004e1e:	681b      	ldr	r3, [r3, #0]
 8004e20:	6999      	ldr	r1, [r3, #24]
 8004e22:	68bb      	ldr	r3, [r7, #8]
 8004e24:	691a      	ldr	r2, [r3, #16]
 8004e26:	68fb      	ldr	r3, [r7, #12]
 8004e28:	681b      	ldr	r3, [r3, #0]
 8004e2a:	430a      	orrs	r2, r1
 8004e2c:	619a      	str	r2, [r3, #24]
 8004e2e:	e064      	b.n	8004efa <HAL_TIM_PWM_ConfigChannel+0x172>
 8004e30:	68fb      	ldr	r3, [r7, #12]
 8004e32:	681b      	ldr	r3, [r3, #0]
 8004e34:	68b9      	ldr	r1, [r7, #8]
 8004e36:	4618      	mov	r0, r3
 8004e38:	f000 fa1c 	bl	8005274 <TIM_OC2_SetConfig>
 8004e3c:	68fb      	ldr	r3, [r7, #12]
 8004e3e:	681b      	ldr	r3, [r3, #0]
 8004e40:	699a      	ldr	r2, [r3, #24]
 8004e42:	68fb      	ldr	r3, [r7, #12]
 8004e44:	681b      	ldr	r3, [r3, #0]
 8004e46:	f442 6200 	orr.w	r2, r2, #2048	; 0x800
 8004e4a:	619a      	str	r2, [r3, #24]
 8004e4c:	68fb      	ldr	r3, [r7, #12]
 8004e4e:	681b      	ldr	r3, [r3, #0]
 8004e50:	699a      	ldr	r2, [r3, #24]
 8004e52:	68fb      	ldr	r3, [r7, #12]
 8004e54:	681b      	ldr	r3, [r3, #0]
 8004e56:	f422 6280 	bic.w	r2, r2, #1024	; 0x400
 8004e5a:	619a      	str	r2, [r3, #24]
 8004e5c:	68fb      	ldr	r3, [r7, #12]
 8004e5e:	681b      	ldr	r3, [r3, #0]
 8004e60:	6999      	ldr	r1, [r3, #24]
 8004e62:	68bb      	ldr	r3, [r7, #8]
 8004e64:	691b      	ldr	r3, [r3, #16]
 8004e66:	021a      	lsls	r2, r3, #8
 8004e68:	68fb      	ldr	r3, [r7, #12]
 8004e6a:	681b      	ldr	r3, [r3, #0]
 8004e6c:	430a      	orrs	r2, r1
 8004e6e:	619a      	str	r2, [r3, #24]
 8004e70:	e043      	b.n	8004efa <HAL_TIM_PWM_ConfigChannel+0x172>
 8004e72:	68fb      	ldr	r3, [r7, #12]
 8004e74:	681b      	ldr	r3, [r3, #0]
 8004e76:	68b9      	ldr	r1, [r7, #8]
 8004e78:	4618      	mov	r0, r3
 8004e7a:	f000 fa65 	bl	8005348 <TIM_OC3_SetConfig>
 8004e7e:	68fb      	ldr	r3, [r7, #12]
 8004e80:	681b      	ldr	r3, [r3, #0]
 8004e82:	69da      	ldr	r2, [r3, #28]
 8004e84:	68fb      	ldr	r3, [r7, #12]
 8004e86:	681b      	ldr	r3, [r3, #0]
 8004e88:	f042 0208 	orr.w	r2, r2, #8
 8004e8c:	61da      	str	r2, [r3, #28]
 8004e8e:	68fb      	ldr	r3, [r7, #12]
 8004e90:	681b      	ldr	r3, [r3, #0]
 8004e92:	69da      	ldr	r2, [r3, #28]
 8004e94:	68fb      	ldr	r3, [r7, #12]
 8004e96:	681b      	ldr	r3, [r3, #0]
 8004e98:	f022 0204 	bic.w	r2, r2, #4
 8004e9c:	61da      	str	r2, [r3, #28]
 8004e9e:	68fb      	ldr	r3, [r7, #12]
 8004ea0:	681b      	ldr	r3, [r3, #0]
 8004ea2:	69d9      	ldr	r1, [r3, #28]
 8004ea4:	68bb      	ldr	r3, [r7, #8]
 8004ea6:	691a      	ldr	r2, [r3, #16]
 8004ea8:	68fb      	ldr	r3, [r7, #12]
 8004eaa:	681b      	ldr	r3, [r3, #0]
 8004eac:	430a      	orrs	r2, r1
 8004eae:	61da      	str	r2, [r3, #28]
 8004eb0:	e023      	b.n	8004efa <HAL_TIM_PWM_ConfigChannel+0x172>
 8004eb2:	68fb      	ldr	r3, [r7, #12]
 8004eb4:	681b      	ldr	r3, [r3, #0]
 8004eb6:	68b9      	ldr	r1, [r7, #8]
 8004eb8:	4618      	mov	r0, r3
 8004eba:	f000 faaf 	bl	800541c <TIM_OC4_SetConfig>
 8004ebe:	68fb      	ldr	r3, [r7, #12]
 8004ec0:	681b      	ldr	r3, [r3, #0]
 8004ec2:	69da      	ldr	r2, [r3, #28]
 8004ec4:	68fb      	ldr	r3, [r7, #12]
 8004ec6:	681b      	ldr	r3, [r3, #0]
 8004ec8:	f442 6200 	orr.w	r2, r2, #2048	; 0x800
 8004ecc:	61da      	str	r2, [r3, #28]
 8004ece:	68fb      	ldr	r3, [r7, #12]
 8004ed0:	681b      	ldr	r3, [r3, #0]
 8004ed2:	69da      	ldr	r2, [r3, #28]
 8004ed4:	68fb      	ldr	r3, [r7, #12]
 8004ed6:	681b      	ldr	r3, [r3, #0]
 8004ed8:	f422 6280 	bic.w	r2, r2, #1024	; 0x400
 8004edc:	61da      	str	r2, [r3, #28]
 8004ede:	68fb      	ldr	r3, [r7, #12]
 8004ee0:	681b      	ldr	r3, [r3, #0]
 8004ee2:	69d9      	ldr	r1, [r3, #28]
 8004ee4:	68bb      	ldr	r3, [r7, #8]
 8004ee6:	691b      	ldr	r3, [r3, #16]
 8004ee8:	021a      	lsls	r2, r3, #8
 8004eea:	68fb      	ldr	r3, [r7, #12]
 8004eec:	681b      	ldr	r3, [r3, #0]
 8004eee:	430a      	orrs	r2, r1
 8004ef0:	61da      	str	r2, [r3, #28]
 8004ef2:	e002      	b.n	8004efa <HAL_TIM_PWM_ConfigChannel+0x172>
 8004ef4:	2301      	movs	r3, #1
 8004ef6:	75fb      	strb	r3, [r7, #23]
 8004ef8:	bf00      	nop
 8004efa:	68fb      	ldr	r3, [r7, #12]
 8004efc:	2200      	movs	r2, #0
 8004efe:	f883 203c 	strb.w	r2, [r3, #60]	; 0x3c
 8004f02:	7dfb      	ldrb	r3, [r7, #23]
 8004f04:	4618      	mov	r0, r3
 8004f06:	3718      	adds	r7, #24
 8004f08:	46bd      	mov	sp, r7
 8004f0a:	bd80      	pop	{r7, pc}

08004f0c <HAL_TIM_ConfigClockSource>:
 8004f0c:	b580      	push	{r7, lr}
 8004f0e:	b084      	sub	sp, #16
 8004f10:	af00      	add	r7, sp, #0
 8004f12:	6078      	str	r0, [r7, #4]
 8004f14:	6039      	str	r1, [r7, #0]
 8004f16:	2300      	movs	r3, #0
 8004f18:	73fb      	strb	r3, [r7, #15]
 8004f1a:	687b      	ldr	r3, [r7, #4]
 8004f1c:	f893 303c 	ldrb.w	r3, [r3, #60]	; 0x3c
 8004f20:	2b01      	cmp	r3, #1
 8004f22:	d101      	bne.n	8004f28 <HAL_TIM_ConfigClockSource+0x1c>
 8004f24:	2302      	movs	r3, #2
 8004f26:	e0b4      	b.n	8005092 <HAL_TIM_ConfigClockSource+0x186>
 8004f28:	687b      	ldr	r3, [r7, #4]
 8004f2a:	2201      	movs	r2, #1
 8004f2c:	f883 203c 	strb.w	r2, [r3, #60]	; 0x3c
 8004f30:	687b      	ldr	r3, [r7, #4]
 8004f32:	2202      	movs	r2, #2
 8004f34:	f883 203d 	strb.w	r2, [r3, #61]	; 0x3d
 8004f38:	687b      	ldr	r3, [r7, #4]
 8004f3a:	681b      	ldr	r3, [r3, #0]
 8004f3c:	689b      	ldr	r3, [r3, #8]
 8004f3e:	60bb      	str	r3, [r7, #8]
 8004f40:	68bb      	ldr	r3, [r7, #8]
 8004f42:	f023 0377 	bic.w	r3, r3, #119	; 0x77
 8004f46:	60bb      	str	r3, [r7, #8]
 8004f48:	68bb      	ldr	r3, [r7, #8]
 8004f4a:	f423 437f 	bic.w	r3, r3, #65280	; 0xff00
 8004f4e:	60bb      	str	r3, [r7, #8]
 8004f50:	687b      	ldr	r3, [r7, #4]
 8004f52:	681b      	ldr	r3, [r3, #0]
 8004f54:	68ba      	ldr	r2, [r7, #8]
 8004f56:	609a      	str	r2, [r3, #8]
 8004f58:	683b      	ldr	r3, [r7, #0]
 8004f5a:	681b      	ldr	r3, [r3, #0]
 8004f5c:	f5b3 5f00 	cmp.w	r3, #8192	; 0x2000
 8004f60:	d03e      	beq.n	8004fe0 <HAL_TIM_ConfigClockSource+0xd4>
 8004f62:	f5b3 5f00 	cmp.w	r3, #8192	; 0x2000
 8004f66:	f200 8087 	bhi.w	8005078 <HAL_TIM_ConfigClockSource+0x16c>
 8004f6a:	f5b3 5f80 	cmp.w	r3, #4096	; 0x1000
 8004f6e:	f000 8086 	beq.w	800507e <HAL_TIM_ConfigClockSource+0x172>
 8004f72:	f5b3 5f80 	cmp.w	r3, #4096	; 0x1000
 8004f76:	d87f      	bhi.n	8005078 <HAL_TIM_ConfigClockSource+0x16c>
 8004f78:	2b70      	cmp	r3, #112	; 0x70
 8004f7a:	d01a      	beq.n	8004fb2 <HAL_TIM_ConfigClockSource+0xa6>
 8004f7c:	2b70      	cmp	r3, #112	; 0x70
 8004f7e:	d87b      	bhi.n	8005078 <HAL_TIM_ConfigClockSource+0x16c>
 8004f80:	2b60      	cmp	r3, #96	; 0x60
 8004f82:	d050      	beq.n	8005026 <HAL_TIM_ConfigClockSource+0x11a>
 8004f84:	2b60      	cmp	r3, #96	; 0x60
 8004f86:	d877      	bhi.n	8005078 <HAL_TIM_ConfigClockSource+0x16c>
 8004f88:	2b50      	cmp	r3, #80	; 0x50
 8004f8a:	d03c      	beq.n	8005006 <HAL_TIM_ConfigClockSource+0xfa>
 8004f8c:	2b50      	cmp	r3, #80	; 0x50
 8004f8e:	d873      	bhi.n	8005078 <HAL_TIM_ConfigClockSource+0x16c>
 8004f90:	2b40      	cmp	r3, #64	; 0x40
 8004f92:	d058      	beq.n	8005046 <HAL_TIM_ConfigClockSource+0x13a>
 8004f94:	2b40      	cmp	r3, #64	; 0x40
 8004f96:	d86f      	bhi.n	8005078 <HAL_TIM_ConfigClockSource+0x16c>
 8004f98:	2b30      	cmp	r3, #48	; 0x30
 8004f9a:	d064      	beq.n	8005066 <HAL_TIM_ConfigClockSource+0x15a>
 8004f9c:	2b30      	cmp	r3, #48	; 0x30
 8004f9e:	d86b      	bhi.n	8005078 <HAL_TIM_ConfigClockSource+0x16c>
 8004fa0:	2b20      	cmp	r3, #32
 8004fa2:	d060      	beq.n	8005066 <HAL_TIM_ConfigClockSource+0x15a>
 8004fa4:	2b20      	cmp	r3, #32
 8004fa6:	d867      	bhi.n	8005078 <HAL_TIM_ConfigClockSource+0x16c>
 8004fa8:	2b00      	cmp	r3, #0
 8004faa:	d05c      	beq.n	8005066 <HAL_TIM_ConfigClockSource+0x15a>
 8004fac:	2b10      	cmp	r3, #16
 8004fae:	d05a      	beq.n	8005066 <HAL_TIM_ConfigClockSource+0x15a>
 8004fb0:	e062      	b.n	8005078 <HAL_TIM_ConfigClockSource+0x16c>
 8004fb2:	687b      	ldr	r3, [r7, #4]
 8004fb4:	6818      	ldr	r0, [r3, #0]
 8004fb6:	683b      	ldr	r3, [r7, #0]
 8004fb8:	6899      	ldr	r1, [r3, #8]
 8004fba:	683b      	ldr	r3, [r7, #0]
 8004fbc:	685a      	ldr	r2, [r3, #4]
 8004fbe:	683b      	ldr	r3, [r7, #0]
 8004fc0:	68db      	ldr	r3, [r3, #12]
 8004fc2:	f000 fbfd 	bl	80057c0 <TIM_ETR_SetConfig>
 8004fc6:	687b      	ldr	r3, [r7, #4]
 8004fc8:	681b      	ldr	r3, [r3, #0]
 8004fca:	689b      	ldr	r3, [r3, #8]
 8004fcc:	60bb      	str	r3, [r7, #8]
 8004fce:	68bb      	ldr	r3, [r7, #8]
 8004fd0:	f043 0377 	orr.w	r3, r3, #119	; 0x77
 8004fd4:	60bb      	str	r3, [r7, #8]
 8004fd6:	687b      	ldr	r3, [r7, #4]
 8004fd8:	681b      	ldr	r3, [r3, #0]
 8004fda:	68ba      	ldr	r2, [r7, #8]
 8004fdc:	609a      	str	r2, [r3, #8]
 8004fde:	e04f      	b.n	8005080 <HAL_TIM_ConfigClockSource+0x174>
 8004fe0:	687b      	ldr	r3, [r7, #4]
 8004fe2:	6818      	ldr	r0, [r3, #0]
 8004fe4:	683b      	ldr	r3, [r7, #0]
 8004fe6:	6899      	ldr	r1, [r3, #8]
 8004fe8:	683b      	ldr	r3, [r7, #0]
 8004fea:	685a      	ldr	r2, [r3, #4]
 8004fec:	683b      	ldr	r3, [r7, #0]
 8004fee:	68db      	ldr	r3, [r3, #12]
 8004ff0:	f000 fbe6 	bl	80057c0 <TIM_ETR_SetConfig>
 8004ff4:	687b      	ldr	r3, [r7, #4]
 8004ff6:	681b      	ldr	r3, [r3, #0]
 8004ff8:	689a      	ldr	r2, [r3, #8]
 8004ffa:	687b      	ldr	r3, [r7, #4]
 8004ffc:	681b      	ldr	r3, [r3, #0]
 8004ffe:	f442 4280 	orr.w	r2, r2, #16384	; 0x4000
 8005002:	609a      	str	r2, [r3, #8]
 8005004:	e03c      	b.n	8005080 <HAL_TIM_ConfigClockSource+0x174>
 8005006:	687b      	ldr	r3, [r7, #4]
 8005008:	6818      	ldr	r0, [r3, #0]
 800500a:	683b      	ldr	r3, [r7, #0]
 800500c:	6859      	ldr	r1, [r3, #4]
 800500e:	683b      	ldr	r3, [r7, #0]
 8005010:	68db      	ldr	r3, [r3, #12]
 8005012:	461a      	mov	r2, r3
 8005014:	f000 faaa 	bl	800556c <TIM_TI1_ConfigInputStage>
 8005018:	687b      	ldr	r3, [r7, #4]
 800501a:	681b      	ldr	r3, [r3, #0]
 800501c:	2150      	movs	r1, #80	; 0x50
 800501e:	4618      	mov	r0, r3
 8005020:	f000 fbb4 	bl	800578c <TIM_ITRx_SetConfig>
 8005024:	e02c      	b.n	8005080 <HAL_TIM_ConfigClockSource+0x174>
 8005026:	687b      	ldr	r3, [r7, #4]
 8005028:	6818      	ldr	r0, [r3, #0]
 800502a:	683b      	ldr	r3, [r7, #0]
 800502c:	6859      	ldr	r1, [r3, #4]
 800502e:	683b      	ldr	r3, [r7, #0]
 8005030:	68db      	ldr	r3, [r3, #12]
 8005032:	461a      	mov	r2, r3
 8005034:	f000 fb04 	bl	8005640 <TIM_TI2_ConfigInputStage>
 8005038:	687b      	ldr	r3, [r7, #4]
 800503a:	681b      	ldr	r3, [r3, #0]
 800503c:	2160      	movs	r1, #96	; 0x60
 800503e:	4618      	mov	r0, r3
 8005040:	f000 fba4 	bl	800578c <TIM_ITRx_SetConfig>
 8005044:	e01c      	b.n	8005080 <HAL_TIM_ConfigClockSource+0x174>
 8005046:	687b      	ldr	r3, [r7, #4]
 8005048:	6818      	ldr	r0, [r3, #0]
 800504a:	683b      	ldr	r3, [r7, #0]
 800504c:	6859      	ldr	r1, [r3, #4]
 800504e:	683b      	ldr	r3, [r7, #0]
 8005050:	68db      	ldr	r3, [r3, #12]
 8005052:	461a      	mov	r2, r3
 8005054:	f000 fa8a 	bl	800556c <TIM_TI1_ConfigInputStage>
 8005058:	687b      	ldr	r3, [r7, #4]
 800505a:	681b      	ldr	r3, [r3, #0]
 800505c:	2140      	movs	r1, #64	; 0x40
 800505e:	4618      	mov	r0, r3
 8005060:	f000 fb94 	bl	800578c <TIM_ITRx_SetConfig>
 8005064:	e00c      	b.n	8005080 <HAL_TIM_ConfigClockSource+0x174>
 8005066:	687b      	ldr	r3, [r7, #4]
 8005068:	681a      	ldr	r2, [r3, #0]
 800506a:	683b      	ldr	r3, [r7, #0]
 800506c:	681b      	ldr	r3, [r3, #0]
 800506e:	4619      	mov	r1, r3
 8005070:	4610      	mov	r0, r2
 8005072:	f000 fb8b 	bl	800578c <TIM_ITRx_SetConfig>
 8005076:	e003      	b.n	8005080 <HAL_TIM_ConfigClockSource+0x174>
 8005078:	2301      	movs	r3, #1
 800507a:	73fb      	strb	r3, [r7, #15]
 800507c:	e000      	b.n	8005080 <HAL_TIM_ConfigClockSource+0x174>
 800507e:	bf00      	nop
 8005080:	687b      	ldr	r3, [r7, #4]
 8005082:	2201      	movs	r2, #1
 8005084:	f883 203d 	strb.w	r2, [r3, #61]	; 0x3d
 8005088:	687b      	ldr	r3, [r7, #4]
 800508a:	2200      	movs	r2, #0
 800508c:	f883 203c 	strb.w	r2, [r3, #60]	; 0x3c
 8005090:	7bfb      	ldrb	r3, [r7, #15]
 8005092:	4618      	mov	r0, r3
 8005094:	3710      	adds	r7, #16
 8005096:	46bd      	mov	sp, r7
 8005098:	bd80      	pop	{r7, pc}

0800509a <HAL_TIM_PeriodElapsedCallback>:
 800509a:	b480      	push	{r7}
 800509c:	b083      	sub	sp, #12
 800509e:	af00      	add	r7, sp, #0
 80050a0:	6078      	str	r0, [r7, #4]
 80050a2:	bf00      	nop
 80050a4:	370c      	adds	r7, #12
 80050a6:	46bd      	mov	sp, r7
 80050a8:	bc80      	pop	{r7}
 80050aa:	4770      	bx	lr

080050ac <HAL_TIM_OC_DelayElapsedCallback>:
 80050ac:	b480      	push	{r7}
 80050ae:	b083      	sub	sp, #12
 80050b0:	af00      	add	r7, sp, #0
 80050b2:	6078      	str	r0, [r7, #4]
 80050b4:	bf00      	nop
 80050b6:	370c      	adds	r7, #12
 80050b8:	46bd      	mov	sp, r7
 80050ba:	bc80      	pop	{r7}
 80050bc:	4770      	bx	lr

080050be <HAL_TIM_PWM_PulseFinishedCallback>:
 80050be:	b480      	push	{r7}
 80050c0:	b083      	sub	sp, #12
 80050c2:	af00      	add	r7, sp, #0
 80050c4:	6078      	str	r0, [r7, #4]
 80050c6:	bf00      	nop
 80050c8:	370c      	adds	r7, #12
 80050ca:	46bd      	mov	sp, r7
 80050cc:	bc80      	pop	{r7}
 80050ce:	4770      	bx	lr

080050d0 <HAL_TIM_TriggerCallback>:
 80050d0:	b480      	push	{r7}
 80050d2:	b083      	sub	sp, #12
 80050d4:	af00      	add	r7, sp, #0
 80050d6:	6078      	str	r0, [r7, #4]
 80050d8:	bf00      	nop
 80050da:	370c      	adds	r7, #12
 80050dc:	46bd      	mov	sp, r7
 80050de:	bc80      	pop	{r7}
 80050e0:	4770      	bx	lr
	...

080050e4 <TIM_Base_SetConfig>:
 80050e4:	b480      	push	{r7}
 80050e6:	b085      	sub	sp, #20
 80050e8:	af00      	add	r7, sp, #0
 80050ea:	6078      	str	r0, [r7, #4]
 80050ec:	6039      	str	r1, [r7, #0]
 80050ee:	687b      	ldr	r3, [r7, #4]
 80050f0:	681b      	ldr	r3, [r3, #0]
 80050f2:	60fb      	str	r3, [r7, #12]
 80050f4:	687b      	ldr	r3, [r7, #4]
 80050f6:	4a29      	ldr	r2, [pc, #164]	; (800519c <TIM_Base_SetConfig+0xb8>)
 80050f8:	4293      	cmp	r3, r2
 80050fa:	d00b      	beq.n	8005114 <TIM_Base_SetConfig+0x30>
 80050fc:	687b      	ldr	r3, [r7, #4]
 80050fe:	f1b3 4f80 	cmp.w	r3, #1073741824	; 0x40000000
 8005102:	d007      	beq.n	8005114 <TIM_Base_SetConfig+0x30>
 8005104:	687b      	ldr	r3, [r7, #4]
 8005106:	4a26      	ldr	r2, [pc, #152]	; (80051a0 <TIM_Base_SetConfig+0xbc>)
 8005108:	4293      	cmp	r3, r2
 800510a:	d003      	beq.n	8005114 <TIM_Base_SetConfig+0x30>
 800510c:	687b      	ldr	r3, [r7, #4]
 800510e:	4a25      	ldr	r2, [pc, #148]	; (80051a4 <TIM_Base_SetConfig+0xc0>)
 8005110:	4293      	cmp	r3, r2
 8005112:	d108      	bne.n	8005126 <TIM_Base_SetConfig+0x42>
 8005114:	68fb      	ldr	r3, [r7, #12]
 8005116:	f023 0370 	bic.w	r3, r3, #112	; 0x70
 800511a:	60fb      	str	r3, [r7, #12]
 800511c:	683b      	ldr	r3, [r7, #0]
 800511e:	685b      	ldr	r3, [r3, #4]
 8005120:	68fa      	ldr	r2, [r7, #12]
 8005122:	4313      	orrs	r3, r2
 8005124:	60fb      	str	r3, [r7, #12]
 8005126:	687b      	ldr	r3, [r7, #4]
 8005128:	4a1c      	ldr	r2, [pc, #112]	; (800519c <TIM_Base_SetConfig+0xb8>)
 800512a:	4293      	cmp	r3, r2
 800512c:	d00b      	beq.n	8005146 <TIM_Base_SetConfig+0x62>
 800512e:	687b      	ldr	r3, [r7, #4]
 8005130:	f1b3 4f80 	cmp.w	r3, #1073741824	; 0x40000000
 8005134:	d007      	beq.n	8005146 <TIM_Base_SetConfig+0x62>
 8005136:	687b      	ldr	r3, [r7, #4]
 8005138:	4a19      	ldr	r2, [pc, #100]	; (80051a0 <TIM_Base_SetConfig+0xbc>)
 800513a:	4293      	cmp	r3, r2
 800513c:	d003      	beq.n	8005146 <TIM_Base_SetConfig+0x62>
 800513e:	687b      	ldr	r3, [r7, #4]
 8005140:	4a18      	ldr	r2, [pc, #96]	; (80051a4 <TIM_Base_SetConfig+0xc0>)
 8005142:	4293      	cmp	r3, r2
 8005144:	d108      	bne.n	8005158 <TIM_Base_SetConfig+0x74>
 8005146:	68fb      	ldr	r3, [r7, #12]
 8005148:	f423 7340 	bic.w	r3, r3, #768	; 0x300
 800514c:	60fb      	str	r3, [r7, #12]
 800514e:	683b      	ldr	r3, [r7, #0]
 8005150:	68db      	ldr	r3, [r3, #12]
 8005152:	68fa      	ldr	r2, [r7, #12]
 8005154:	4313      	orrs	r3, r2
 8005156:	60fb      	str	r3, [r7, #12]
 8005158:	68fb      	ldr	r3, [r7, #12]
 800515a:	f023 0280 	bic.w	r2, r3, #128	; 0x80
 800515e:	683b      	ldr	r3, [r7, #0]
 8005160:	695b      	ldr	r3, [r3, #20]
 8005162:	4313      	orrs	r3, r2
 8005164:	60fb      	str	r3, [r7, #12]
 8005166:	687b      	ldr	r3, [r7, #4]
 8005168:	68fa      	ldr	r2, [r7, #12]
 800516a:	601a      	str	r2, [r3, #0]
 800516c:	683b      	ldr	r3, [r7, #0]
 800516e:	689a      	ldr	r2, [r3, #8]
 8005170:	687b      	ldr	r3, [r7, #4]
 8005172:	62da      	str	r2, [r3, #44]	; 0x2c
 8005174:	683b      	ldr	r3, [r7, #0]
 8005176:	681a      	ldr	r2, [r3, #0]
 8005178:	687b      	ldr	r3, [r7, #4]
 800517a:	629a      	str	r2, [r3, #40]	; 0x28
 800517c:	687b      	ldr	r3, [r7, #4]
 800517e:	4a07      	ldr	r2, [pc, #28]	; (800519c <TIM_Base_SetConfig+0xb8>)
 8005180:	4293      	cmp	r3, r2
 8005182:	d103      	bne.n	800518c <TIM_Base_SetConfig+0xa8>
 8005184:	683b      	ldr	r3, [r7, #0]
 8005186:	691a      	ldr	r2, [r3, #16]
 8005188:	687b      	ldr	r3, [r7, #4]
 800518a:	631a      	str	r2, [r3, #48]	; 0x30
 800518c:	687b      	ldr	r3, [r7, #4]
 800518e:	2201      	movs	r2, #1
 8005190:	615a      	str	r2, [r3, #20]
 8005192:	bf00      	nop
 8005194:	3714      	adds	r7, #20
 8005196:	46bd      	mov	sp, r7
 8005198:	bc80      	pop	{r7}
 800519a:	4770      	bx	lr
 800519c:	40012c00 	.word	0x40012c00
 80051a0:	40000400 	.word	0x40000400
 80051a4:	40000800 	.word	0x40000800

080051a8 <TIM_OC1_SetConfig>:
 80051a8:	b480      	push	{r7}
 80051aa:	b087      	sub	sp, #28
 80051ac:	af00      	add	r7, sp, #0
 80051ae:	6078      	str	r0, [r7, #4]
 80051b0:	6039      	str	r1, [r7, #0]
 80051b2:	687b      	ldr	r3, [r7, #4]
 80051b4:	6a1b      	ldr	r3, [r3, #32]
 80051b6:	617b      	str	r3, [r7, #20]
 80051b8:	687b      	ldr	r3, [r7, #4]
 80051ba:	6a1b      	ldr	r3, [r3, #32]
 80051bc:	f023 0201 	bic.w	r2, r3, #1
 80051c0:	687b      	ldr	r3, [r7, #4]
 80051c2:	621a      	str	r2, [r3, #32]
 80051c4:	687b      	ldr	r3, [r7, #4]
 80051c6:	685b      	ldr	r3, [r3, #4]
 80051c8:	613b      	str	r3, [r7, #16]
 80051ca:	687b      	ldr	r3, [r7, #4]
 80051cc:	699b      	ldr	r3, [r3, #24]
 80051ce:	60fb      	str	r3, [r7, #12]
 80051d0:	68fb      	ldr	r3, [r7, #12]
 80051d2:	f023 0370 	bic.w	r3, r3, #112	; 0x70
 80051d6:	60fb      	str	r3, [r7, #12]
 80051d8:	68fb      	ldr	r3, [r7, #12]
 80051da:	f023 0303 	bic.w	r3, r3, #3
 80051de:	60fb      	str	r3, [r7, #12]
 80051e0:	683b      	ldr	r3, [r7, #0]
 80051e2:	681b      	ldr	r3, [r3, #0]
 80051e4:	68fa      	ldr	r2, [r7, #12]
 80051e6:	4313      	orrs	r3, r2
 80051e8:	60fb      	str	r3, [r7, #12]
 80051ea:	697b      	ldr	r3, [r7, #20]
 80051ec:	f023 0302 	bic.w	r3, r3, #2
 80051f0:	617b      	str	r3, [r7, #20]
 80051f2:	683b      	ldr	r3, [r7, #0]
 80051f4:	689b      	ldr	r3, [r3, #8]
 80051f6:	697a      	ldr	r2, [r7, #20]
 80051f8:	4313      	orrs	r3, r2
 80051fa:	617b      	str	r3, [r7, #20]
 80051fc:	687b      	ldr	r3, [r7, #4]
 80051fe:	4a1c      	ldr	r2, [pc, #112]	; (8005270 <TIM_OC1_SetConfig+0xc8>)
 8005200:	4293      	cmp	r3, r2
 8005202:	d10c      	bne.n	800521e <TIM_OC1_SetConfig+0x76>
 8005204:	697b      	ldr	r3, [r7, #20]
 8005206:	f023 0308 	bic.w	r3, r3, #8
 800520a:	617b      	str	r3, [r7, #20]
 800520c:	683b      	ldr	r3, [r7, #0]
 800520e:	68db      	ldr	r3, [r3, #12]
 8005210:	697a      	ldr	r2, [r7, #20]
 8005212:	4313      	orrs	r3, r2
 8005214:	617b      	str	r3, [r7, #20]
 8005216:	697b      	ldr	r3, [r7, #20]
 8005218:	f023 0304 	bic.w	r3, r3, #4
 800521c:	617b      	str	r3, [r7, #20]
 800521e:	687b      	ldr	r3, [r7, #4]
 8005220:	4a13      	ldr	r2, [pc, #76]	; (8005270 <TIM_OC1_SetConfig+0xc8>)
 8005222:	4293      	cmp	r3, r2
 8005224:	d111      	bne.n	800524a <TIM_OC1_SetConfig+0xa2>
 8005226:	693b      	ldr	r3, [r7, #16]
 8005228:	f423 7380 	bic.w	r3, r3, #256	; 0x100
 800522c:	613b      	str	r3, [r7, #16]
 800522e:	693b      	ldr	r3, [r7, #16]
 8005230:	f423 7300 	bic.w	r3, r3, #512	; 0x200
 8005234:	613b      	str	r3, [r7, #16]
 8005236:	683b      	ldr	r3, [r7, #0]
 8005238:	695b      	ldr	r3, [r3, #20]
 800523a:	693a      	ldr	r2, [r7, #16]
 800523c:	4313      	orrs	r3, r2
 800523e:	613b      	str	r3, [r7, #16]
 8005240:	683b      	ldr	r3, [r7, #0]
 8005242:	699b      	ldr	r3, [r3, #24]
 8005244:	693a      	ldr	r2, [r7, #16]
 8005246:	4313      	orrs	r3, r2
 8005248:	613b      	str	r3, [r7, #16]
 800524a:	687b      	ldr	r3, [r7, #4]
 800524c:	693a      	ldr	r2, [r7, #16]
 800524e:	605a      	str	r2, [r3, #4]
 8005250:	687b      	ldr	r3, [r7, #4]
 8005252:	68fa      	ldr	r2, [r7, #12]
 8005254:	619a      	str	r2, [r3, #24]
 8005256:	683b      	ldr	r3, [r7, #0]
 8005258:	685a      	ldr	r2, [r3, #4]
 800525a:	687b      	ldr	r3, [r7, #4]
 800525c:	635a      	str	r2, [r3, #52]	; 0x34
 800525e:	687b      	ldr	r3, [r7, #4]
 8005260:	697a      	ldr	r2, [r7, #20]
 8005262:	621a      	str	r2, [r3, #32]
 8005264:	bf00      	nop
 8005266:	371c      	adds	r7, #28
 8005268:	46bd      	mov	sp, r7
 800526a:	bc80      	pop	{r7}
 800526c:	4770      	bx	lr
 800526e:	bf00      	nop
 8005270:	40012c00 	.word	0x40012c00

08005274 <TIM_OC2_SetConfig>:
 8005274:	b480      	push	{r7}
 8005276:	b087      	sub	sp, #28
 8005278:	af00      	add	r7, sp, #0
 800527a:	6078      	str	r0, [r7, #4]
 800527c:	6039      	str	r1, [r7, #0]
 800527e:	687b      	ldr	r3, [r7, #4]
 8005280:	6a1b      	ldr	r3, [r3, #32]
 8005282:	617b      	str	r3, [r7, #20]
 8005284:	687b      	ldr	r3, [r7, #4]
 8005286:	6a1b      	ldr	r3, [r3, #32]
 8005288:	f023 0210 	bic.w	r2, r3, #16
 800528c:	687b      	ldr	r3, [r7, #4]
 800528e:	621a      	str	r2, [r3, #32]
 8005290:	687b      	ldr	r3, [r7, #4]
 8005292:	685b      	ldr	r3, [r3, #4]
 8005294:	613b      	str	r3, [r7, #16]
 8005296:	687b      	ldr	r3, [r7, #4]
 8005298:	699b      	ldr	r3, [r3, #24]
 800529a:	60fb      	str	r3, [r7, #12]
 800529c:	68fb      	ldr	r3, [r7, #12]
 800529e:	f423 43e0 	bic.w	r3, r3, #28672	; 0x7000
 80052a2:	60fb      	str	r3, [r7, #12]
 80052a4:	68fb      	ldr	r3, [r7, #12]
 80052a6:	f423 7340 	bic.w	r3, r3, #768	; 0x300
 80052aa:	60fb      	str	r3, [r7, #12]
 80052ac:	683b      	ldr	r3, [r7, #0]
 80052ae:	681b      	ldr	r3, [r3, #0]
 80052b0:	021b      	lsls	r3, r3, #8
 80052b2:	68fa      	ldr	r2, [r7, #12]
 80052b4:	4313      	orrs	r3, r2
 80052b6:	60fb      	str	r3, [r7, #12]
 80052b8:	697b      	ldr	r3, [r7, #20]
 80052ba:	f023 0320 	bic.w	r3, r3, #32
 80052be:	617b      	str	r3, [r7, #20]
 80052c0:	683b      	ldr	r3, [r7, #0]
 80052c2:	689b      	ldr	r3, [r3, #8]
 80052c4:	011b      	lsls	r3, r3, #4
 80052c6:	697a      	ldr	r2, [r7, #20]
 80052c8:	4313      	orrs	r3, r2
 80052ca:	617b      	str	r3, [r7, #20]
 80052cc:	687b      	ldr	r3, [r7, #4]
 80052ce:	4a1d      	ldr	r2, [pc, #116]	; (8005344 <TIM_OC2_SetConfig+0xd0>)
 80052d0:	4293      	cmp	r3, r2
 80052d2:	d10d      	bne.n	80052f0 <TIM_OC2_SetConfig+0x7c>
 80052d4:	697b      	ldr	r3, [r7, #20]
 80052d6:	f023 0380 	bic.w	r3, r3, #128	; 0x80
 80052da:	617b      	str	r3, [r7, #20]
 80052dc:	683b      	ldr	r3, [r7, #0]
 80052de:	68db      	ldr	r3, [r3, #12]
 80052e0:	011b      	lsls	r3, r3, #4
 80052e2:	697a      	ldr	r2, [r7, #20]
 80052e4:	4313      	orrs	r3, r2
 80052e6:	617b      	str	r3, [r7, #20]
 80052e8:	697b      	ldr	r3, [r7, #20]
 80052ea:	f023 0340 	bic.w	r3, r3, #64	; 0x40
 80052ee:	617b      	str	r3, [r7, #20]
 80052f0:	687b      	ldr	r3, [r7, #4]
 80052f2:	4a14      	ldr	r2, [pc, #80]	; (8005344 <TIM_OC2_SetConfig+0xd0>)
 80052f4:	4293      	cmp	r3, r2
 80052f6:	d113      	bne.n	8005320 <TIM_OC2_SetConfig+0xac>
 80052f8:	693b      	ldr	r3, [r7, #16]
 80052fa:	f423 6380 	bic.w	r3, r3, #1024	; 0x400
 80052fe:	613b      	str	r3, [r7, #16]
 8005300:	693b      	ldr	r3, [r7, #16]
 8005302:	f423 6300 	bic.w	r3, r3, #2048	; 0x800
 8005306:	613b      	str	r3, [r7, #16]
 8005308:	683b      	ldr	r3, [r7, #0]
 800530a:	695b      	ldr	r3, [r3, #20]
 800530c:	009b      	lsls	r3, r3, #2
 800530e:	693a      	ldr	r2, [r7, #16]
 8005310:	4313      	orrs	r3, r2
 8005312:	613b      	str	r3, [r7, #16]
 8005314:	683b      	ldr	r3, [r7, #0]
 8005316:	699b      	ldr	r3, [r3, #24]
 8005318:	009b      	lsls	r3, r3, #2
 800531a:	693a      	ldr	r2, [r7, #16]
 800531c:	4313      	orrs	r3, r2
 800531e:	613b      	str	r3, [r7, #16]
 8005320:	687b      	ldr	r3, [r7, #4]
 8005322:	693a      	ldr	r2, [r7, #16]
 8005324:	605a      	str	r2, [r3, #4]
 8005326:	687b      	ldr	r3, [r7, #4]
 8005328:	68fa      	ldr	r2, [r7, #12]
 800532a:	619a      	str	r2, [r3, #24]
 800532c:	683b      	ldr	r3, [r7, #0]
 800532e:	685a      	ldr	r2, [r3, #4]
 8005330:	687b      	ldr	r3, [r7, #4]
 8005332:	639a      	str	r2, [r3, #56]	; 0x38
 8005334:	687b      	ldr	r3, [r7, #4]
 8005336:	697a      	ldr	r2, [r7, #20]
 8005338:	621a      	str	r2, [r3, #32]
 800533a:	bf00      	nop
 800533c:	371c      	adds	r7, #28
 800533e:	46bd      	mov	sp, r7
 8005340:	bc80      	pop	{r7}
 8005342:	4770      	bx	lr
 8005344:	40012c00 	.word	0x40012c00

08005348 <TIM_OC3_SetConfig>:
 8005348:	b480      	push	{r7}
 800534a:	b087      	sub	sp, #28
 800534c:	af00      	add	r7, sp, #0
 800534e:	6078      	str	r0, [r7, #4]
 8005350:	6039      	str	r1, [r7, #0]
 8005352:	687b      	ldr	r3, [r7, #4]
 8005354:	6a1b      	ldr	r3, [r3, #32]
 8005356:	617b      	str	r3, [r7, #20]
 8005358:	687b      	ldr	r3, [r7, #4]
 800535a:	6a1b      	ldr	r3, [r3, #32]
 800535c:	f423 7280 	bic.w	r2, r3, #256	; 0x100
 8005360:	687b      	ldr	r3, [r7, #4]
 8005362:	621a      	str	r2, [r3, #32]
 8005364:	687b      	ldr	r3, [r7, #4]
 8005366:	685b      	ldr	r3, [r3, #4]
 8005368:	613b      	str	r3, [r7, #16]
 800536a:	687b      	ldr	r3, [r7, #4]
 800536c:	69db      	ldr	r3, [r3, #28]
 800536e:	60fb      	str	r3, [r7, #12]
 8005370:	68fb      	ldr	r3, [r7, #12]
 8005372:	f023 0370 	bic.w	r3, r3, #112	; 0x70
 8005376:	60fb      	str	r3, [r7, #12]
 8005378:	68fb      	ldr	r3, [r7, #12]
 800537a:	f023 0303 	bic.w	r3, r3, #3
 800537e:	60fb      	str	r3, [r7, #12]
 8005380:	683b      	ldr	r3, [r7, #0]
 8005382:	681b      	ldr	r3, [r3, #0]
 8005384:	68fa      	ldr	r2, [r7, #12]
 8005386:	4313      	orrs	r3, r2
 8005388:	60fb      	str	r3, [r7, #12]
 800538a:	697b      	ldr	r3, [r7, #20]
 800538c:	f423 7300 	bic.w	r3, r3, #512	; 0x200
 8005390:	617b      	str	r3, [r7, #20]
 8005392:	683b      	ldr	r3, [r7, #0]
 8005394:	689b      	ldr	r3, [r3, #8]
 8005396:	021b      	lsls	r3, r3, #8
 8005398:	697a      	ldr	r2, [r7, #20]
 800539a:	4313      	orrs	r3, r2
 800539c:	617b      	str	r3, [r7, #20]
 800539e:	687b      	ldr	r3, [r7, #4]
 80053a0:	4a1d      	ldr	r2, [pc, #116]	; (8005418 <TIM_OC3_SetConfig+0xd0>)
 80053a2:	4293      	cmp	r3, r2
 80053a4:	d10d      	bne.n	80053c2 <TIM_OC3_SetConfig+0x7a>
 80053a6:	697b      	ldr	r3, [r7, #20]
 80053a8:	f423 6300 	bic.w	r3, r3, #2048	; 0x800
 80053ac:	617b      	str	r3, [r7, #20]
 80053ae:	683b      	ldr	r3, [r7, #0]
 80053b0:	68db      	ldr	r3, [r3, #12]
 80053b2:	021b      	lsls	r3, r3, #8
 80053b4:	697a      	ldr	r2, [r7, #20]
 80053b6:	4313      	orrs	r3, r2
 80053b8:	617b      	str	r3, [r7, #20]
 80053ba:	697b      	ldr	r3, [r7, #20]
 80053bc:	f423 6380 	bic.w	r3, r3, #1024	; 0x400
 80053c0:	617b      	str	r3, [r7, #20]
 80053c2:	687b      	ldr	r3, [r7, #4]
 80053c4:	4a14      	ldr	r2, [pc, #80]	; (8005418 <TIM_OC3_SetConfig+0xd0>)
 80053c6:	4293      	cmp	r3, r2
 80053c8:	d113      	bne.n	80053f2 <TIM_OC3_SetConfig+0xaa>
 80053ca:	693b      	ldr	r3, [r7, #16]
 80053cc:	f423 5380 	bic.w	r3, r3, #4096	; 0x1000
 80053d0:	613b      	str	r3, [r7, #16]
 80053d2:	693b      	ldr	r3, [r7, #16]
 80053d4:	f423 5300 	bic.w	r3, r3, #8192	; 0x2000
 80053d8:	613b      	str	r3, [r7, #16]
 80053da:	683b      	ldr	r3, [r7, #0]
 80053dc:	695b      	ldr	r3, [r3, #20]
 80053de:	011b      	lsls	r3, r3, #4
 80053e0:	693a      	ldr	r2, [r7, #16]
 80053e2:	4313      	orrs	r3, r2
 80053e4:	613b      	str	r3, [r7, #16]
 80053e6:	683b      	ldr	r3, [r7, #0]
 80053e8:	699b      	ldr	r3, [r3, #24]
 80053ea:	011b      	lsls	r3, r3, #4
 80053ec:	693a      	ldr	r2, [r7, #16]
 80053ee:	4313      	orrs	r3, r2
 80053f0:	613b      	str	r3, [r7, #16]
 80053f2:	687b      	ldr	r3, [r7, #4]
 80053f4:	693a      	ldr	r2, [r7, #16]
 80053f6:	605a      	str	r2, [r3, #4]
 80053f8:	687b      	ldr	r3, [r7, #4]
 80053fa:	68fa      	ldr	r2, [r7, #12]
 80053fc:	61da      	str	r2, [r3, #28]
 80053fe:	683b      	ldr	r3, [r7, #0]
 8005400:	685a      	ldr	r2, [r3, #4]
 8005402:	687b      	ldr	r3, [r7, #4]
 8005404:	63da      	str	r2, [r3, #60]	; 0x3c
 8005406:	687b      	ldr	r3, [r7, #4]
 8005408:	697a      	ldr	r2, [r7, #20]
 800540a:	621a      	str	r2, [r3, #32]
 800540c:	bf00      	nop
 800540e:	371c      	adds	r7, #28
 8005410:	46bd      	mov	sp, r7
 8005412:	bc80      	pop	{r7}
 8005414:	4770      	bx	lr
 8005416:	bf00      	nop
 8005418:	40012c00 	.word	0x40012c00

0800541c <TIM_OC4_SetConfig>:
 800541c:	b480      	push	{r7}
 800541e:	b087      	sub	sp, #28
 8005420:	af00      	add	r7, sp, #0
 8005422:	6078      	str	r0, [r7, #4]
 8005424:	6039      	str	r1, [r7, #0]
 8005426:	687b      	ldr	r3, [r7, #4]
 8005428:	6a1b      	ldr	r3, [r3, #32]
 800542a:	613b      	str	r3, [r7, #16]
 800542c:	687b      	ldr	r3, [r7, #4]
 800542e:	6a1b      	ldr	r3, [r3, #32]
 8005430:	f423 5280 	bic.w	r2, r3, #4096	; 0x1000
 8005434:	687b      	ldr	r3, [r7, #4]
 8005436:	621a      	str	r2, [r3, #32]
 8005438:	687b      	ldr	r3, [r7, #4]
 800543a:	685b      	ldr	r3, [r3, #4]
 800543c:	617b      	str	r3, [r7, #20]
 800543e:	687b      	ldr	r3, [r7, #4]
 8005440:	69db      	ldr	r3, [r3, #28]
 8005442:	60fb      	str	r3, [r7, #12]
 8005444:	68fb      	ldr	r3, [r7, #12]
 8005446:	f423 43e0 	bic.w	r3, r3, #28672	; 0x7000
 800544a:	60fb      	str	r3, [r7, #12]
 800544c:	68fb      	ldr	r3, [r7, #12]
 800544e:	f423 7340 	bic.w	r3, r3, #768	; 0x300
 8005452:	60fb      	str	r3, [r7, #12]
 8005454:	683b      	ldr	r3, [r7, #0]
 8005456:	681b      	ldr	r3, [r3, #0]
 8005458:	021b      	lsls	r3, r3, #8
 800545a:	68fa      	ldr	r2, [r7, #12]
 800545c:	4313      	orrs	r3, r2
 800545e:	60fb      	str	r3, [r7, #12]
 8005460:	693b      	ldr	r3, [r7, #16]
 8005462:	f423 5300 	bic.w	r3, r3, #8192	; 0x2000
 8005466:	613b      	str	r3, [r7, #16]
 8005468:	683b      	ldr	r3, [r7, #0]
 800546a:	689b      	ldr	r3, [r3, #8]
 800546c:	031b      	lsls	r3, r3, #12
 800546e:	693a      	ldr	r2, [r7, #16]
 8005470:	4313      	orrs	r3, r2
 8005472:	613b      	str	r3, [r7, #16]
 8005474:	687b      	ldr	r3, [r7, #4]
 8005476:	4a0f      	ldr	r2, [pc, #60]	; (80054b4 <TIM_OC4_SetConfig+0x98>)
 8005478:	4293      	cmp	r3, r2
 800547a:	d109      	bne.n	8005490 <TIM_OC4_SetConfig+0x74>
 800547c:	697b      	ldr	r3, [r7, #20]
 800547e:	f423 4380 	bic.w	r3, r3, #16384	; 0x4000
 8005482:	617b      	str	r3, [r7, #20]
 8005484:	683b      	ldr	r3, [r7, #0]
 8005486:	695b      	ldr	r3, [r3, #20]
 8005488:	019b      	lsls	r3, r3, #6
 800548a:	697a      	ldr	r2, [r7, #20]
 800548c:	4313      	orrs	r3, r2
 800548e:	617b      	str	r3, [r7, #20]
 8005490:	687b      	ldr	r3, [r7, #4]
 8005492:	697a      	ldr	r2, [r7, #20]
 8005494:	605a      	str	r2, [r3, #4]
 8005496:	687b      	ldr	r3, [r7, #4]
 8005498:	68fa      	ldr	r2, [r7, #12]
 800549a:	61da      	str	r2, [r3, #28]
 800549c:	683b      	ldr	r3, [r7, #0]
 800549e:	685a      	ldr	r2, [r3, #4]
 80054a0:	687b      	ldr	r3, [r7, #4]
 80054a2:	641a      	str	r2, [r3, #64]	; 0x40
 80054a4:	687b      	ldr	r3, [r7, #4]
 80054a6:	693a      	ldr	r2, [r7, #16]
 80054a8:	621a      	str	r2, [r3, #32]
 80054aa:	bf00      	nop
 80054ac:	371c      	adds	r7, #28
 80054ae:	46bd      	mov	sp, r7
 80054b0:	bc80      	pop	{r7}
 80054b2:	4770      	bx	lr
 80054b4:	40012c00 	.word	0x40012c00

080054b8 <TIM_TI1_SetConfig>:
 80054b8:	b480      	push	{r7}
 80054ba:	b087      	sub	sp, #28
 80054bc:	af00      	add	r7, sp, #0
 80054be:	60f8      	str	r0, [r7, #12]
 80054c0:	60b9      	str	r1, [r7, #8]
 80054c2:	607a      	str	r2, [r7, #4]
 80054c4:	603b      	str	r3, [r7, #0]
 80054c6:	68fb      	ldr	r3, [r7, #12]
 80054c8:	6a1b      	ldr	r3, [r3, #32]
 80054ca:	613b      	str	r3, [r7, #16]
 80054cc:	68fb      	ldr	r3, [r7, #12]
 80054ce:	6a1b      	ldr	r3, [r3, #32]
 80054d0:	f023 0201 	bic.w	r2, r3, #1
 80054d4:	68fb      	ldr	r3, [r7, #12]
 80054d6:	621a      	str	r2, [r3, #32]
 80054d8:	68fb      	ldr	r3, [r7, #12]
 80054da:	699b      	ldr	r3, [r3, #24]
 80054dc:	617b      	str	r3, [r7, #20]
 80054de:	68fb      	ldr	r3, [r7, #12]
 80054e0:	4a1f      	ldr	r2, [pc, #124]	; (8005560 <TIM_TI1_SetConfig+0xa8>)
 80054e2:	4293      	cmp	r3, r2
 80054e4:	d00b      	beq.n	80054fe <TIM_TI1_SetConfig+0x46>
 80054e6:	68fb      	ldr	r3, [r7, #12]
 80054e8:	f1b3 4f80 	cmp.w	r3, #1073741824	; 0x40000000
 80054ec:	d007      	beq.n	80054fe <TIM_TI1_SetConfig+0x46>
 80054ee:	68fb      	ldr	r3, [r7, #12]
 80054f0:	4a1c      	ldr	r2, [pc, #112]	; (8005564 <TIM_TI1_SetConfig+0xac>)
 80054f2:	4293      	cmp	r3, r2
 80054f4:	d003      	beq.n	80054fe <TIM_TI1_SetConfig+0x46>
 80054f6:	68fb      	ldr	r3, [r7, #12]
 80054f8:	4a1b      	ldr	r2, [pc, #108]	; (8005568 <TIM_TI1_SetConfig+0xb0>)
 80054fa:	4293      	cmp	r3, r2
 80054fc:	d101      	bne.n	8005502 <TIM_TI1_SetConfig+0x4a>
 80054fe:	2301      	movs	r3, #1
 8005500:	e000      	b.n	8005504 <TIM_TI1_SetConfig+0x4c>
 8005502:	2300      	movs	r3, #0
 8005504:	2b00      	cmp	r3, #0
 8005506:	d008      	beq.n	800551a <TIM_TI1_SetConfig+0x62>
 8005508:	697b      	ldr	r3, [r7, #20]
 800550a:	f023 0303 	bic.w	r3, r3, #3
 800550e:	617b      	str	r3, [r7, #20]
 8005510:	697a      	ldr	r2, [r7, #20]
 8005512:	687b      	ldr	r3, [r7, #4]
 8005514:	4313      	orrs	r3, r2
 8005516:	617b      	str	r3, [r7, #20]
 8005518:	e003      	b.n	8005522 <TIM_TI1_SetConfig+0x6a>
 800551a:	697b      	ldr	r3, [r7, #20]
 800551c:	f043 0301 	orr.w	r3, r3, #1
 8005520:	617b      	str	r3, [r7, #20]
 8005522:	697b      	ldr	r3, [r7, #20]
 8005524:	f023 03f0 	bic.w	r3, r3, #240	; 0xf0
 8005528:	617b      	str	r3, [r7, #20]
 800552a:	683b      	ldr	r3, [r7, #0]
 800552c:	011b      	lsls	r3, r3, #4
 800552e:	b2db      	uxtb	r3, r3
 8005530:	697a      	ldr	r2, [r7, #20]
 8005532:	4313      	orrs	r3, r2
 8005534:	617b      	str	r3, [r7, #20]
 8005536:	693b      	ldr	r3, [r7, #16]
 8005538:	f023 030a 	bic.w	r3, r3, #10
 800553c:	613b      	str	r3, [r7, #16]
 800553e:	68bb      	ldr	r3, [r7, #8]
 8005540:	f003 030a 	and.w	r3, r3, #10
 8005544:	693a      	ldr	r2, [r7, #16]
 8005546:	4313      	orrs	r3, r2
 8005548:	613b      	str	r3, [r7, #16]
 800554a:	68fb      	ldr	r3, [r7, #12]
 800554c:	697a      	ldr	r2, [r7, #20]
 800554e:	619a      	str	r2, [r3, #24]
 8005550:	68fb      	ldr	r3, [r7, #12]
 8005552:	693a      	ldr	r2, [r7, #16]
 8005554:	621a      	str	r2, [r3, #32]
 8005556:	bf00      	nop
 8005558:	371c      	adds	r7, #28
 800555a:	46bd      	mov	sp, r7
 800555c:	bc80      	pop	{r7}
 800555e:	4770      	bx	lr
 8005560:	40012c00 	.word	0x40012c00
 8005564:	40000400 	.word	0x40000400
 8005568:	40000800 	.word	0x40000800

0800556c <TIM_TI1_ConfigInputStage>:
 800556c:	b480      	push	{r7}
 800556e:	b087      	sub	sp, #28
 8005570:	af00      	add	r7, sp, #0
 8005572:	60f8      	str	r0, [r7, #12]
 8005574:	60b9      	str	r1, [r7, #8]
 8005576:	607a      	str	r2, [r7, #4]
 8005578:	68fb      	ldr	r3, [r7, #12]
 800557a:	6a1b      	ldr	r3, [r3, #32]
 800557c:	617b      	str	r3, [r7, #20]
 800557e:	68fb      	ldr	r3, [r7, #12]
 8005580:	6a1b      	ldr	r3, [r3, #32]
 8005582:	f023 0201 	bic.w	r2, r3, #1
 8005586:	68fb      	ldr	r3, [r7, #12]
 8005588:	621a      	str	r2, [r3, #32]
 800558a:	68fb      	ldr	r3, [r7, #12]
 800558c:	699b      	ldr	r3, [r3, #24]
 800558e:	613b      	str	r3, [r7, #16]
 8005590:	693b      	ldr	r3, [r7, #16]
 8005592:	f023 03f0 	bic.w	r3, r3, #240	; 0xf0
 8005596:	613b      	str	r3, [r7, #16]
 8005598:	687b      	ldr	r3, [r7, #4]
 800559a:	011b      	lsls	r3, r3, #4
 800559c:	693a      	ldr	r2, [r7, #16]
 800559e:	4313      	orrs	r3, r2
 80055a0:	613b      	str	r3, [r7, #16]
 80055a2:	697b      	ldr	r3, [r7, #20]
 80055a4:	f023 030a 	bic.w	r3, r3, #10
 80055a8:	617b      	str	r3, [r7, #20]
 80055aa:	697a      	ldr	r2, [r7, #20]
 80055ac:	68bb      	ldr	r3, [r7, #8]
 80055ae:	4313      	orrs	r3, r2
 80055b0:	617b      	str	r3, [r7, #20]
 80055b2:	68fb      	ldr	r3, [r7, #12]
 80055b4:	693a      	ldr	r2, [r7, #16]
 80055b6:	619a      	str	r2, [r3, #24]
 80055b8:	68fb      	ldr	r3, [r7, #12]
 80055ba:	697a      	ldr	r2, [r7, #20]
 80055bc:	621a      	str	r2, [r3, #32]
 80055be:	bf00      	nop
 80055c0:	371c      	adds	r7, #28
 80055c2:	46bd      	mov	sp, r7
 80055c4:	bc80      	pop	{r7}
 80055c6:	4770      	bx	lr

080055c8 <TIM_TI2_SetConfig>:
 80055c8:	b480      	push	{r7}
 80055ca:	b087      	sub	sp, #28
 80055cc:	af00      	add	r7, sp, #0
 80055ce:	60f8      	str	r0, [r7, #12]
 80055d0:	60b9      	str	r1, [r7, #8]
 80055d2:	607a      	str	r2, [r7, #4]
 80055d4:	603b      	str	r3, [r7, #0]
 80055d6:	68fb      	ldr	r3, [r7, #12]
 80055d8:	6a1b      	ldr	r3, [r3, #32]
 80055da:	617b      	str	r3, [r7, #20]
 80055dc:	68fb      	ldr	r3, [r7, #12]
 80055de:	6a1b      	ldr	r3, [r3, #32]
 80055e0:	f023 0210 	bic.w	r2, r3, #16
 80055e4:	68fb      	ldr	r3, [r7, #12]
 80055e6:	621a      	str	r2, [r3, #32]
 80055e8:	68fb      	ldr	r3, [r7, #12]
 80055ea:	699b      	ldr	r3, [r3, #24]
 80055ec:	613b      	str	r3, [r7, #16]
 80055ee:	693b      	ldr	r3, [r7, #16]
 80055f0:	f423 7340 	bic.w	r3, r3, #768	; 0x300
 80055f4:	613b      	str	r3, [r7, #16]
 80055f6:	687b      	ldr	r3, [r7, #4]
 80055f8:	021b      	lsls	r3, r3, #8
 80055fa:	693a      	ldr	r2, [r7, #16]
 80055fc:	4313      	orrs	r3, r2
 80055fe:	613b      	str	r3, [r7, #16]
 8005600:	693b      	ldr	r3, [r7, #16]
 8005602:	f423 4370 	bic.w	r3, r3, #61440	; 0xf000
 8005606:	613b      	str	r3, [r7, #16]
 8005608:	683b      	ldr	r3, [r7, #0]
 800560a:	031b      	lsls	r3, r3, #12
 800560c:	b29b      	uxth	r3, r3
 800560e:	693a      	ldr	r2, [r7, #16]
 8005610:	4313      	orrs	r3, r2
 8005612:	613b      	str	r3, [r7, #16]
 8005614:	697b      	ldr	r3, [r7, #20]
 8005616:	f023 03a0 	bic.w	r3, r3, #160	; 0xa0
 800561a:	617b      	str	r3, [r7, #20]
 800561c:	68bb      	ldr	r3, [r7, #8]
 800561e:	011b      	lsls	r3, r3, #4
 8005620:	f003 03a0 	and.w	r3, r3, #160	; 0xa0
 8005624:	697a      	ldr	r2, [r7, #20]
 8005626:	4313      	orrs	r3, r2
 8005628:	617b      	str	r3, [r7, #20]
 800562a:	68fb      	ldr	r3, [r7, #12]
 800562c:	693a      	ldr	r2, [r7, #16]
 800562e:	619a      	str	r2, [r3, #24]
 8005630:	68fb      	ldr	r3, [r7, #12]
 8005632:	697a      	ldr	r2, [r7, #20]
 8005634:	621a      	str	r2, [r3, #32]
 8005636:	bf00      	nop
 8005638:	371c      	adds	r7, #28
 800563a:	46bd      	mov	sp, r7
 800563c:	bc80      	pop	{r7}
 800563e:	4770      	bx	lr

08005640 <TIM_TI2_ConfigInputStage>:
 8005640:	b480      	push	{r7}
 8005642:	b087      	sub	sp, #28
 8005644:	af00      	add	r7, sp, #0
 8005646:	60f8      	str	r0, [r7, #12]
 8005648:	60b9      	str	r1, [r7, #8]
 800564a:	607a      	str	r2, [r7, #4]
 800564c:	68fb      	ldr	r3, [r7, #12]
 800564e:	6a1b      	ldr	r3, [r3, #32]
 8005650:	617b      	str	r3, [r7, #20]
 8005652:	68fb      	ldr	r3, [r7, #12]
 8005654:	6a1b      	ldr	r3, [r3, #32]
 8005656:	f023 0210 	bic.w	r2, r3, #16
 800565a:	68fb      	ldr	r3, [r7, #12]
 800565c:	621a      	str	r2, [r3, #32]
 800565e:	68fb      	ldr	r3, [r7, #12]
 8005660:	699b      	ldr	r3, [r3, #24]
 8005662:	613b      	str	r3, [r7, #16]
 8005664:	693b      	ldr	r3, [r7, #16]
 8005666:	f423 4370 	bic.w	r3, r3, #61440	; 0xf000
 800566a:	613b      	str	r3, [r7, #16]
 800566c:	687b      	ldr	r3, [r7, #4]
 800566e:	031b      	lsls	r3, r3, #12
 8005670:	693a      	ldr	r2, [r7, #16]
 8005672:	4313      	orrs	r3, r2
 8005674:	613b      	str	r3, [r7, #16]
 8005676:	697b      	ldr	r3, [r7, #20]
 8005678:	f023 03a0 	bic.w	r3, r3, #160	; 0xa0
 800567c:	617b      	str	r3, [r7, #20]
 800567e:	68bb      	ldr	r3, [r7, #8]
 8005680:	011b      	lsls	r3, r3, #4
 8005682:	697a      	ldr	r2, [r7, #20]
 8005684:	4313      	orrs	r3, r2
 8005686:	617b      	str	r3, [r7, #20]
 8005688:	68fb      	ldr	r3, [r7, #12]
 800568a:	693a      	ldr	r2, [r7, #16]
 800568c:	619a      	str	r2, [r3, #24]
 800568e:	68fb      	ldr	r3, [r7, #12]
 8005690:	697a      	ldr	r2, [r7, #20]
 8005692:	621a      	str	r2, [r3, #32]
 8005694:	bf00      	nop
 8005696:	371c      	adds	r7, #28
 8005698:	46bd      	mov	sp, r7
 800569a:	bc80      	pop	{r7}
 800569c:	4770      	bx	lr

0800569e <TIM_TI3_SetConfig>:
 800569e:	b480      	push	{r7}
 80056a0:	b087      	sub	sp, #28
 80056a2:	af00      	add	r7, sp, #0
 80056a4:	60f8      	str	r0, [r7, #12]
 80056a6:	60b9      	str	r1, [r7, #8]
 80056a8:	607a      	str	r2, [r7, #4]
 80056aa:	603b      	str	r3, [r7, #0]
 80056ac:	68fb      	ldr	r3, [r7, #12]
 80056ae:	6a1b      	ldr	r3, [r3, #32]
 80056b0:	617b      	str	r3, [r7, #20]
 80056b2:	68fb      	ldr	r3, [r7, #12]
 80056b4:	6a1b      	ldr	r3, [r3, #32]
 80056b6:	f423 7280 	bic.w	r2, r3, #256	; 0x100
 80056ba:	68fb      	ldr	r3, [r7, #12]
 80056bc:	621a      	str	r2, [r3, #32]
 80056be:	68fb      	ldr	r3, [r7, #12]
 80056c0:	69db      	ldr	r3, [r3, #28]
 80056c2:	613b      	str	r3, [r7, #16]
 80056c4:	693b      	ldr	r3, [r7, #16]
 80056c6:	f023 0303 	bic.w	r3, r3, #3
 80056ca:	613b      	str	r3, [r7, #16]
 80056cc:	693a      	ldr	r2, [r7, #16]
 80056ce:	687b      	ldr	r3, [r7, #4]
 80056d0:	4313      	orrs	r3, r2
 80056d2:	613b      	str	r3, [r7, #16]
 80056d4:	693b      	ldr	r3, [r7, #16]
 80056d6:	f023 03f0 	bic.w	r3, r3, #240	; 0xf0
 80056da:	613b      	str	r3, [r7, #16]
 80056dc:	683b      	ldr	r3, [r7, #0]
 80056de:	011b      	lsls	r3, r3, #4
 80056e0:	b2db      	uxtb	r3, r3
 80056e2:	693a      	ldr	r2, [r7, #16]
 80056e4:	4313      	orrs	r3, r2
 80056e6:	613b      	str	r3, [r7, #16]
 80056e8:	697b      	ldr	r3, [r7, #20]
 80056ea:	f423 7300 	bic.w	r3, r3, #512	; 0x200
 80056ee:	617b      	str	r3, [r7, #20]
 80056f0:	68bb      	ldr	r3, [r7, #8]
 80056f2:	021b      	lsls	r3, r3, #8
 80056f4:	f403 7300 	and.w	r3, r3, #512	; 0x200
 80056f8:	697a      	ldr	r2, [r7, #20]
 80056fa:	4313      	orrs	r3, r2
 80056fc:	617b      	str	r3, [r7, #20]
 80056fe:	68fb      	ldr	r3, [r7, #12]
 8005700:	693a      	ldr	r2, [r7, #16]
 8005702:	61da      	str	r2, [r3, #28]
 8005704:	68fb      	ldr	r3, [r7, #12]
 8005706:	697a      	ldr	r2, [r7, #20]
 8005708:	621a      	str	r2, [r3, #32]
 800570a:	bf00      	nop
 800570c:	371c      	adds	r7, #28
 800570e:	46bd      	mov	sp, r7
 8005710:	bc80      	pop	{r7}
 8005712:	4770      	bx	lr

08005714 <TIM_TI4_SetConfig>:
 8005714:	b480      	push	{r7}
 8005716:	b087      	sub	sp, #28
 8005718:	af00      	add	r7, sp, #0
 800571a:	60f8      	str	r0, [r7, #12]
 800571c:	60b9      	str	r1, [r7, #8]
 800571e:	607a      	str	r2, [r7, #4]
 8005720:	603b      	str	r3, [r7, #0]
 8005722:	68fb      	ldr	r3, [r7, #12]
 8005724:	6a1b      	ldr	r3, [r3, #32]
 8005726:	617b      	str	r3, [r7, #20]
 8005728:	68fb      	ldr	r3, [r7, #12]
 800572a:	6a1b      	ldr	r3, [r3, #32]
 800572c:	f423 5280 	bic.w	r2, r3, #4096	; 0x1000
 8005730:	68fb      	ldr	r3, [r7, #12]
 8005732:	621a      	str	r2, [r3, #32]
 8005734:	68fb      	ldr	r3, [r7, #12]
 8005736:	69db      	ldr	r3, [r3, #28]
 8005738:	613b      	str	r3, [r7, #16]
 800573a:	693b      	ldr	r3, [r7, #16]
 800573c:	f423 7340 	bic.w	r3, r3, #768	; 0x300
 8005740:	613b      	str	r3, [r7, #16]
 8005742:	687b      	ldr	r3, [r7, #4]
 8005744:	021b      	lsls	r3, r3, #8
 8005746:	693a      	ldr	r2, [r7, #16]
 8005748:	4313      	orrs	r3, r2
 800574a:	613b      	str	r3, [r7, #16]
 800574c:	693b      	ldr	r3, [r7, #16]
 800574e:	f423 4370 	bic.w	r3, r3, #61440	; 0xf000
 8005752:	613b      	str	r3, [r7, #16]
 8005754:	683b      	ldr	r3, [r7, #0]
 8005756:	031b      	lsls	r3, r3, #12
 8005758:	b29b      	uxth	r3, r3
 800575a:	693a      	ldr	r2, [r7, #16]
 800575c:	4313      	orrs	r3, r2
 800575e:	613b      	str	r3, [r7, #16]
 8005760:	697b      	ldr	r3, [r7, #20]
 8005762:	f423 5300 	bic.w	r3, r3, #8192	; 0x2000
 8005766:	617b      	str	r3, [r7, #20]
 8005768:	68bb      	ldr	r3, [r7, #8]
 800576a:	031b      	lsls	r3, r3, #12
 800576c:	f403 5300 	and.w	r3, r3, #8192	; 0x2000
 8005770:	697a      	ldr	r2, [r7, #20]
 8005772:	4313      	orrs	r3, r2
 8005774:	617b      	str	r3, [r7, #20]
 8005776:	68fb      	ldr	r3, [r7, #12]
 8005778:	693a      	ldr	r2, [r7, #16]
 800577a:	61da      	str	r2, [r3, #28]
 800577c:	68fb      	ldr	r3, [r7, #12]
 800577e:	697a      	ldr	r2, [r7, #20]
 8005780:	621a      	str	r2, [r3, #32]
 8005782:	bf00      	nop
 8005784:	371c      	adds	r7, #28
 8005786:	46bd      	mov	sp, r7
 8005788:	bc80      	pop	{r7}
 800578a:	4770      	bx	lr

0800578c <TIM_ITRx_SetConfig>:
 800578c:	b480      	push	{r7}
 800578e:	b085      	sub	sp, #20
 8005790:	af00      	add	r7, sp, #0
 8005792:	6078      	str	r0, [r7, #4]
 8005794:	6039      	str	r1, [r7, #0]
 8005796:	687b      	ldr	r3, [r7, #4]
 8005798:	689b      	ldr	r3, [r3, #8]
 800579a:	60fb      	str	r3, [r7, #12]
 800579c:	68fb      	ldr	r3, [r7, #12]
 800579e:	f023 0370 	bic.w	r3, r3, #112	; 0x70
 80057a2:	60fb      	str	r3, [r7, #12]
 80057a4:	683a      	ldr	r2, [r7, #0]
 80057a6:	68fb      	ldr	r3, [r7, #12]
 80057a8:	4313      	orrs	r3, r2
 80057aa:	f043 0307 	orr.w	r3, r3, #7
 80057ae:	60fb      	str	r3, [r7, #12]
 80057b0:	687b      	ldr	r3, [r7, #4]
 80057b2:	68fa      	ldr	r2, [r7, #12]
 80057b4:	609a      	str	r2, [r3, #8]
 80057b6:	bf00      	nop
 80057b8:	3714      	adds	r7, #20
 80057ba:	46bd      	mov	sp, r7
 80057bc:	bc80      	pop	{r7}
 80057be:	4770      	bx	lr

080057c0 <TIM_ETR_SetConfig>:
 80057c0:	b480      	push	{r7}
 80057c2:	b087      	sub	sp, #28
 80057c4:	af00      	add	r7, sp, #0
 80057c6:	60f8      	str	r0, [r7, #12]
 80057c8:	60b9      	str	r1, [r7, #8]
 80057ca:	607a      	str	r2, [r7, #4]
 80057cc:	603b      	str	r3, [r7, #0]
 80057ce:	68fb      	ldr	r3, [r7, #12]
 80057d0:	689b      	ldr	r3, [r3, #8]
 80057d2:	617b      	str	r3, [r7, #20]
 80057d4:	697b      	ldr	r3, [r7, #20]
 80057d6:	f423 437f 	bic.w	r3, r3, #65280	; 0xff00
 80057da:	617b      	str	r3, [r7, #20]
 80057dc:	683b      	ldr	r3, [r7, #0]
 80057de:	021a      	lsls	r2, r3, #8
 80057e0:	687b      	ldr	r3, [r7, #4]
 80057e2:	431a      	orrs	r2, r3
 80057e4:	68bb      	ldr	r3, [r7, #8]
 80057e6:	4313      	orrs	r3, r2
 80057e8:	697a      	ldr	r2, [r7, #20]
 80057ea:	4313      	orrs	r3, r2
 80057ec:	617b      	str	r3, [r7, #20]
 80057ee:	68fb      	ldr	r3, [r7, #12]
 80057f0:	697a      	ldr	r2, [r7, #20]
 80057f2:	609a      	str	r2, [r3, #8]
 80057f4:	bf00      	nop
 80057f6:	371c      	adds	r7, #28
 80057f8:	46bd      	mov	sp, r7
 80057fa:	bc80      	pop	{r7}
 80057fc:	4770      	bx	lr

080057fe <TIM_CCxChannelCmd>:
 80057fe:	b480      	push	{r7}
 8005800:	b087      	sub	sp, #28
 8005802:	af00      	add	r7, sp, #0
 8005804:	60f8      	str	r0, [r7, #12]
 8005806:	60b9      	str	r1, [r7, #8]
 8005808:	607a      	str	r2, [r7, #4]
 800580a:	68bb      	ldr	r3, [r7, #8]
 800580c:	f003 031f 	and.w	r3, r3, #31
 8005810:	2201      	movs	r2, #1
 8005812:	fa02 f303 	lsl.w	r3, r2, r3
 8005816:	617b      	str	r3, [r7, #20]
 8005818:	68fb      	ldr	r3, [r7, #12]
 800581a:	6a1a      	ldr	r2, [r3, #32]
 800581c:	697b      	ldr	r3, [r7, #20]
 800581e:	43db      	mvns	r3, r3
 8005820:	401a      	ands	r2, r3
 8005822:	68fb      	ldr	r3, [r7, #12]
 8005824:	621a      	str	r2, [r3, #32]
 8005826:	68fb      	ldr	r3, [r7, #12]
 8005828:	6a1a      	ldr	r2, [r3, #32]
 800582a:	68bb      	ldr	r3, [r7, #8]
 800582c:	f003 031f 	and.w	r3, r3, #31
 8005830:	6879      	ldr	r1, [r7, #4]
 8005832:	fa01 f303 	lsl.w	r3, r1, r3
 8005836:	431a      	orrs	r2, r3
 8005838:	68fb      	ldr	r3, [r7, #12]
 800583a:	621a      	str	r2, [r3, #32]
 800583c:	bf00      	nop
 800583e:	371c      	adds	r7, #28
 8005840:	46bd      	mov	sp, r7
 8005842:	bc80      	pop	{r7}
 8005844:	4770      	bx	lr
	...

08005848 <HAL_TIMEx_MasterConfigSynchronization>:
 8005848:	b480      	push	{r7}
 800584a:	b085      	sub	sp, #20
 800584c:	af00      	add	r7, sp, #0
 800584e:	6078      	str	r0, [r7, #4]
 8005850:	6039      	str	r1, [r7, #0]
 8005852:	687b      	ldr	r3, [r7, #4]
 8005854:	f893 303c 	ldrb.w	r3, [r3, #60]	; 0x3c
 8005858:	2b01      	cmp	r3, #1
 800585a:	d101      	bne.n	8005860 <HAL_TIMEx_MasterConfigSynchronization+0x18>
 800585c:	2302      	movs	r3, #2
 800585e:	e046      	b.n	80058ee <HAL_TIMEx_MasterConfigSynchronization+0xa6>
 8005860:	687b      	ldr	r3, [r7, #4]
 8005862:	2201      	movs	r2, #1
 8005864:	f883 203c 	strb.w	r2, [r3, #60]	; 0x3c
 8005868:	687b      	ldr	r3, [r7, #4]
 800586a:	2202      	movs	r2, #2
 800586c:	f883 203d 	strb.w	r2, [r3, #61]	; 0x3d
 8005870:	687b      	ldr	r3, [r7, #4]
 8005872:	681b      	ldr	r3, [r3, #0]
 8005874:	685b      	ldr	r3, [r3, #4]
 8005876:	60fb      	str	r3, [r7, #12]
 8005878:	687b      	ldr	r3, [r7, #4]
 800587a:	681b      	ldr	r3, [r3, #0]
 800587c:	689b      	ldr	r3, [r3, #8]
 800587e:	60bb      	str	r3, [r7, #8]
 8005880:	68fb      	ldr	r3, [r7, #12]
 8005882:	f023 0370 	bic.w	r3, r3, #112	; 0x70
 8005886:	60fb      	str	r3, [r7, #12]
 8005888:	683b      	ldr	r3, [r7, #0]
 800588a:	681b      	ldr	r3, [r3, #0]
 800588c:	68fa      	ldr	r2, [r7, #12]
 800588e:	4313      	orrs	r3, r2
 8005890:	60fb      	str	r3, [r7, #12]
 8005892:	687b      	ldr	r3, [r7, #4]
 8005894:	681b      	ldr	r3, [r3, #0]
 8005896:	68fa      	ldr	r2, [r7, #12]
 8005898:	605a      	str	r2, [r3, #4]
 800589a:	687b      	ldr	r3, [r7, #4]
 800589c:	681b      	ldr	r3, [r3, #0]
 800589e:	4a16      	ldr	r2, [pc, #88]	; (80058f8 <HAL_TIMEx_MasterConfigSynchronization+0xb0>)
 80058a0:	4293      	cmp	r3, r2
 80058a2:	d00e      	beq.n	80058c2 <HAL_TIMEx_MasterConfigSynchronization+0x7a>
 80058a4:	687b      	ldr	r3, [r7, #4]
 80058a6:	681b      	ldr	r3, [r3, #0]
 80058a8:	f1b3 4f80 	cmp.w	r3, #1073741824	; 0x40000000
 80058ac:	d009      	beq.n	80058c2 <HAL_TIMEx_MasterConfigSynchronization+0x7a>
 80058ae:	687b      	ldr	r3, [r7, #4]
 80058b0:	681b      	ldr	r3, [r3, #0]
 80058b2:	4a12      	ldr	r2, [pc, #72]	; (80058fc <HAL_TIMEx_MasterConfigSynchronization+0xb4>)
 80058b4:	4293      	cmp	r3, r2
 80058b6:	d004      	beq.n	80058c2 <HAL_TIMEx_MasterConfigSynchronization+0x7a>
 80058b8:	687b      	ldr	r3, [r7, #4]
 80058ba:	681b      	ldr	r3, [r3, #0]
 80058bc:	4a10      	ldr	r2, [pc, #64]	; (8005900 <HAL_TIMEx_MasterConfigSynchronization+0xb8>)
 80058be:	4293      	cmp	r3, r2
 80058c0:	d10c      	bne.n	80058dc <HAL_TIMEx_MasterConfigSynchronization+0x94>
 80058c2:	68bb      	ldr	r3, [r7, #8]
 80058c4:	f023 0380 	bic.w	r3, r3, #128	; 0x80
 80058c8:	60bb      	str	r3, [r7, #8]
 80058ca:	683b      	ldr	r3, [r7, #0]
 80058cc:	685b      	ldr	r3, [r3, #4]
 80058ce:	68ba      	ldr	r2, [r7, #8]
 80058d0:	4313      	orrs	r3, r2
 80058d2:	60bb      	str	r3, [r7, #8]
 80058d4:	687b      	ldr	r3, [r7, #4]
 80058d6:	681b      	ldr	r3, [r3, #0]
 80058d8:	68ba      	ldr	r2, [r7, #8]
 80058da:	609a      	str	r2, [r3, #8]
 80058dc:	687b      	ldr	r3, [r7, #4]
 80058de:	2201      	movs	r2, #1
 80058e0:	f883 203d 	strb.w	r2, [r3, #61]	; 0x3d
 80058e4:	687b      	ldr	r3, [r7, #4]
 80058e6:	2200      	movs	r2, #0
 80058e8:	f883 203c 	strb.w	r2, [r3, #60]	; 0x3c
 80058ec:	2300      	movs	r3, #0
 80058ee:	4618      	mov	r0, r3
 80058f0:	3714      	adds	r7, #20
 80058f2:	46bd      	mov	sp, r7
 80058f4:	bc80      	pop	{r7}
 80058f6:	4770      	bx	lr
 80058f8:	40012c00 	.word	0x40012c00
 80058fc:	40000400 	.word	0x40000400
 8005900:	40000800 	.word	0x40000800

08005904 <HAL_TIMEx_ConfigBreakDeadTime>:
 8005904:	b480      	push	{r7}
 8005906:	b085      	sub	sp, #20
 8005908:	af00      	add	r7, sp, #0
 800590a:	6078      	str	r0, [r7, #4]
 800590c:	6039      	str	r1, [r7, #0]
 800590e:	2300      	movs	r3, #0
 8005910:	60fb      	str	r3, [r7, #12]
 8005912:	687b      	ldr	r3, [r7, #4]
 8005914:	f893 303c 	ldrb.w	r3, [r3, #60]	; 0x3c
 8005918:	2b01      	cmp	r3, #1
 800591a:	d101      	bne.n	8005920 <HAL_TIMEx_ConfigBreakDeadTime+0x1c>
 800591c:	2302      	movs	r3, #2
 800591e:	e03d      	b.n	800599c <HAL_TIMEx_ConfigBreakDeadTime+0x98>
 8005920:	687b      	ldr	r3, [r7, #4]
 8005922:	2201      	movs	r2, #1
 8005924:	f883 203c 	strb.w	r2, [r3, #60]	; 0x3c
 8005928:	68fb      	ldr	r3, [r7, #12]
 800592a:	f023 02ff 	bic.w	r2, r3, #255	; 0xff
 800592e:	683b      	ldr	r3, [r7, #0]
 8005930:	68db      	ldr	r3, [r3, #12]
 8005932:	4313      	orrs	r3, r2
 8005934:	60fb      	str	r3, [r7, #12]
 8005936:	68fb      	ldr	r3, [r7, #12]
 8005938:	f423 7240 	bic.w	r2, r3, #768	; 0x300
 800593c:	683b      	ldr	r3, [r7, #0]
 800593e:	689b      	ldr	r3, [r3, #8]
 8005940:	4313      	orrs	r3, r2
 8005942:	60fb      	str	r3, [r7, #12]
 8005944:	68fb      	ldr	r3, [r7, #12]
 8005946:	f423 6280 	bic.w	r2, r3, #1024	; 0x400
 800594a:	683b      	ldr	r3, [r7, #0]
 800594c:	685b      	ldr	r3, [r3, #4]
 800594e:	4313      	orrs	r3, r2
 8005950:	60fb      	str	r3, [r7, #12]
 8005952:	68fb      	ldr	r3, [r7, #12]
 8005954:	f423 6200 	bic.w	r2, r3, #2048	; 0x800
 8005958:	683b      	ldr	r3, [r7, #0]
 800595a:	681b      	ldr	r3, [r3, #0]
 800595c:	4313      	orrs	r3, r2
 800595e:	60fb      	str	r3, [r7, #12]
 8005960:	68fb      	ldr	r3, [r7, #12]
 8005962:	f423 5280 	bic.w	r2, r3, #4096	; 0x1000
 8005966:	683b      	ldr	r3, [r7, #0]
 8005968:	691b      	ldr	r3, [r3, #16]
 800596a:	4313      	orrs	r3, r2
 800596c:	60fb      	str	r3, [r7, #12]
 800596e:	68fb      	ldr	r3, [r7, #12]
 8005970:	f423 5200 	bic.w	r2, r3, #8192	; 0x2000
 8005974:	683b      	ldr	r3, [r7, #0]
 8005976:	695b      	ldr	r3, [r3, #20]
 8005978:	4313      	orrs	r3, r2
 800597a:	60fb      	str	r3, [r7, #12]
 800597c:	68fb      	ldr	r3, [r7, #12]
 800597e:	f423 4280 	bic.w	r2, r3, #16384	; 0x4000
 8005982:	683b      	ldr	r3, [r7, #0]
 8005984:	69db      	ldr	r3, [r3, #28]
 8005986:	4313      	orrs	r3, r2
 8005988:	60fb      	str	r3, [r7, #12]
 800598a:	687b      	ldr	r3, [r7, #4]
 800598c:	681b      	ldr	r3, [r3, #0]
 800598e:	68fa      	ldr	r2, [r7, #12]
 8005990:	645a      	str	r2, [r3, #68]	; 0x44
 8005992:	687b      	ldr	r3, [r7, #4]
 8005994:	2200      	movs	r2, #0
 8005996:	f883 203c 	strb.w	r2, [r3, #60]	; 0x3c
 800599a:	2300      	movs	r3, #0
 800599c:	4618      	mov	r0, r3
 800599e:	3714      	adds	r7, #20
 80059a0:	46bd      	mov	sp, r7
 80059a2:	bc80      	pop	{r7}
 80059a4:	4770      	bx	lr

080059a6 <HAL_TIMEx_CommutCallback>:
 80059a6:	b480      	push	{r7}
 80059a8:	b083      	sub	sp, #12
 80059aa:	af00      	add	r7, sp, #0
 80059ac:	6078      	str	r0, [r7, #4]
 80059ae:	bf00      	nop
 80059b0:	370c      	adds	r7, #12
 80059b2:	46bd      	mov	sp, r7
 80059b4:	bc80      	pop	{r7}
 80059b6:	4770      	bx	lr

080059b8 <HAL_TIMEx_BreakCallback>:
 80059b8:	b480      	push	{r7}
 80059ba:	b083      	sub	sp, #12
 80059bc:	af00      	add	r7, sp, #0
 80059be:	6078      	str	r0, [r7, #4]
 80059c0:	bf00      	nop
 80059c2:	370c      	adds	r7, #12
 80059c4:	46bd      	mov	sp, r7
 80059c6:	bc80      	pop	{r7}
 80059c8:	4770      	bx	lr
	...

080059cc <__libc_init_array>:
 80059cc:	b570      	push	{r4, r5, r6, lr}
 80059ce:	2600      	movs	r6, #0
 80059d0:	4d0c      	ldr	r5, [pc, #48]	; (8005a04 <__libc_init_array+0x38>)
 80059d2:	4c0d      	ldr	r4, [pc, #52]	; (8005a08 <__libc_init_array+0x3c>)
 80059d4:	1b64      	subs	r4, r4, r5
 80059d6:	10a4      	asrs	r4, r4, #2
 80059d8:	42a6      	cmp	r6, r4
 80059da:	d109      	bne.n	80059f0 <__libc_init_array+0x24>
 80059dc:	f000 f822 	bl	8005a24 <_init>
 80059e0:	2600      	movs	r6, #0
 80059e2:	4d0a      	ldr	r5, [pc, #40]	; (8005a0c <__libc_init_array+0x40>)
 80059e4:	4c0a      	ldr	r4, [pc, #40]	; (8005a10 <__libc_init_array+0x44>)
 80059e6:	1b64      	subs	r4, r4, r5
 80059e8:	10a4      	asrs	r4, r4, #2
 80059ea:	42a6      	cmp	r6, r4
 80059ec:	d105      	bne.n	80059fa <__libc_init_array+0x2e>
 80059ee:	bd70      	pop	{r4, r5, r6, pc}
 80059f0:	f855 3b04 	ldr.w	r3, [r5], #4
 80059f4:	4798      	blx	r3
 80059f6:	3601      	adds	r6, #1
 80059f8:	e7ee      	b.n	80059d8 <__libc_init_array+0xc>
 80059fa:	f855 3b04 	ldr.w	r3, [r5], #4
 80059fe:	4798      	blx	r3
 8005a00:	3601      	adds	r6, #1
 8005a02:	e7f2      	b.n	80059ea <__libc_init_array+0x1e>
 8005a04:	08005a68 	.word	0x08005a68
 8005a08:	08005a68 	.word	0x08005a68
 8005a0c:	08005a68 	.word	0x08005a68
 8005a10:	08005a6c 	.word	0x08005a6c

08005a14 <memset>:
 8005a14:	4603      	mov	r3, r0
 8005a16:	4402      	add	r2, r0
 8005a18:	4293      	cmp	r3, r2
 8005a1a:	d100      	bne.n	8005a1e <memset+0xa>
 8005a1c:	4770      	bx	lr
 8005a1e:	f803 1b01 	strb.w	r1, [r3], #1
 8005a22:	e7f9      	b.n	8005a18 <memset+0x4>

08005a24 <_init>:
 8005a24:	b5f8      	push	{r3, r4, r5, r6, r7, lr}
 8005a26:	bf00      	nop
 8005a28:	bcf8      	pop	{r3, r4, r5, r6, r7}
 8005a2a:	bc08      	pop	{r3}
 8005a2c:	469e      	mov	lr, r3
 8005a2e:	4770      	bx	lr

08005a30 <_fini>:
 8005a30:	b5f8      	push	{r3, r4, r5, r6, r7, lr}
 8005a32:	bf00      	nop
 8005a34:	bcf8      	pop	{r3, r4, r5, r6, r7}
 8005a36:	bc08      	pop	{r3}
 8005a38:	469e      	mov	lr, r3
 8005a3a:	4770      	bx	lr
